
c:/Users/tschw/repos/elec4740Group6/clusterhead/target/1.5.2/argon/clusterhead.elf:     file format elf32-littlearm

Sections:
Idx Name          Size      VMA       LMA       File off  Algn
  0 .module_info  00000018  000d4000  000d4000  00004000  2**2
                  CONTENTS, ALLOC, LOAD, READONLY, DATA
  1 .dynalib      00000004  000d4018  000d4018  00004018  2**2
                  CONTENTS, ALLOC, LOAD, READONLY, DATA
  2 .text         000080f4  000d401c  000d401c  0000401c  2**2
                  CONTENTS, ALLOC, LOAD, READONLY, CODE
  3 .backup       00000004  2003f400  000dc110  0000f400  2**2
                  CONTENTS, ALLOC, LOAD, DATA
  4 .data         00000078  2003d85c  000dc114  0001d85c  2**2
                  CONTENTS, ALLOC, LOAD, DATA
  5 .bss          00000f1c  2003d8d4  2003d8d4  0002d8d4  2**2
                  ALLOC
  6 .module_info_suffix 00000028  000dc18c  000dc18c  0002c18c  2**0
                  CONTENTS, ALLOC, LOAD, READONLY, DATA
  7 .module_info_crc 00000004  000dc1b4  000dc1b4  0002c1b4  2**0
                  CONTENTS, ALLOC, LOAD, READONLY, DATA
  8 .debug_info   00101486  00000000  00000000  0002c1b8  2**0
                  CONTENTS, READONLY, DEBUGGING
  9 .debug_abbrev 00012751  00000000  00000000  0012d63e  2**0
                  CONTENTS, READONLY, DEBUGGING
 10 .debug_loc    00026028  00000000  00000000  0013fd8f  2**0
                  CONTENTS, READONLY, DEBUGGING
 11 .debug_aranges 00002d70  00000000  00000000  00165db7  2**0
                  CONTENTS, READONLY, DEBUGGING
 12 .debug_ranges 00005718  00000000  00000000  00168b27  2**0
                  CONTENTS, READONLY, DEBUGGING
 13 .debug_macro  00035527  00000000  00000000  0016e23f  2**0
                  CONTENTS, READONLY, DEBUGGING
 14 .debug_line   0002b43a  00000000  00000000  001a3766  2**0
                  CONTENTS, READONLY, DEBUGGING
 15 .debug_str    0010efe2  00000000  00000000  001ceba0  2**0
                  CONTENTS, READONLY, DEBUGGING
 16 .debug_frame  0000e89c  00000000  00000000  002ddb84  2**2
                  CONTENTS, READONLY, DEBUGGING

Disassembly of section .text:

000d401c <module_user_pre_init>:
/**
 * Initializes this user module. Returns the start of the heap.
 */
void* module_user_pre_init() {

    if ( (&link_global_data_start!=&link_global_data_initial_values) && (link_global_data_size != 0))
   d401c:	4809      	ldr	r0, [pc, #36]	; (d4044 <link_dynalib_end+0x28>)
   d401e:	490a      	ldr	r1, [pc, #40]	; (d4048 <link_dynalib_end+0x2c>)
   d4020:	4288      	cmp	r0, r1
extern constructor_ptr_t link_constructors_end;

/**
 * Initializes this user module. Returns the start of the heap.
 */
void* module_user_pre_init() {
   d4022:	b508      	push	{r3, lr}

    if ( (&link_global_data_start!=&link_global_data_initial_values) && (link_global_data_size != 0))
   d4024:	d005      	beq.n	d4032 <module_user_pre_init+0x16>
   d4026:	4a09      	ldr	r2, [pc, #36]	; (d404c <link_dynalib_end+0x30>)
   d4028:	4282      	cmp	r2, r0
   d402a:	d002      	beq.n	d4032 <module_user_pre_init+0x16>
    {
        memcpy(&link_global_data_start, &link_global_data_initial_values, link_global_data_size);
   d402c:	1a12      	subs	r2, r2, r0
   d402e:	f006 fc88 	bl	da942 <memcpy>
    }

    memset(&link_bss_location, 0, link_bss_size );
   d4032:	4807      	ldr	r0, [pc, #28]	; (d4050 <link_dynalib_end+0x34>)
   d4034:	4a07      	ldr	r2, [pc, #28]	; (d4054 <link_dynalib_end+0x38>)
   d4036:	2100      	movs	r1, #0
   d4038:	1a12      	subs	r2, r2, r0
   d403a:	f006 fca8 	bl	da98e <memset>
    return &link_global_data_start;
}
   d403e:	4801      	ldr	r0, [pc, #4]	; (d4044 <link_dynalib_end+0x28>)
   d4040:	bd08      	pop	{r3, pc}
   d4042:	bf00      	nop
   d4044:	2003d85c 	.word	0x2003d85c
   d4048:	000dc114 	.word	0x000dc114
   d404c:	2003d8d4 	.word	0x2003d8d4
   d4050:	2003d8d4 	.word	0x2003d8d4
   d4054:	2003e7f0 	.word	0x2003e7f0

000d4058 <module_user_init>:
extern constructor_ptr_t link_constructors_location[];
extern constructor_ptr_t link_constructors_end;
#define link_constructors_size   ((unsigned long)&link_constructors_end  -  (unsigned long)&link_constructors_location )

void module_user_init()
{
   d4058:	b570      	push	{r4, r5, r6, lr}
    module_user_init_hook();
   d405a:	f005 f815 	bl	d9088 <module_user_init_hook>
   d405e:	4c07      	ldr	r4, [pc, #28]	; (d407c <module_user_init+0x24>)
   d4060:	4b07      	ldr	r3, [pc, #28]	; (d4080 <module_user_init+0x28>)
   d4062:	1ae4      	subs	r4, r4, r3
   d4064:	08a4      	lsrs	r4, r4, #2

    // invoke constructors
    int ctor_num;
    for (ctor_num=0; ctor_num < link_constructors_size/sizeof(constructor_ptr_t); ctor_num++ )
   d4066:	2500      	movs	r5, #0
   d4068:	461e      	mov	r6, r3
   d406a:	42a5      	cmp	r5, r4
   d406c:	d004      	beq.n	d4078 <module_user_init+0x20>
    {
        link_constructors_location[ctor_num]();
   d406e:	f856 3025 	ldr.w	r3, [r6, r5, lsl #2]
   d4072:	4798      	blx	r3
{
    module_user_init_hook();

    // invoke constructors
    int ctor_num;
    for (ctor_num=0; ctor_num < link_constructors_size/sizeof(constructor_ptr_t); ctor_num++ )
   d4074:	3501      	adds	r5, #1
   d4076:	e7f8      	b.n	d406a <module_user_init+0x12>
    {
        link_constructors_location[ctor_num]();
    }
}
   d4078:	bd70      	pop	{r4, r5, r6, pc}
   d407a:	bf00      	nop
   d407c:	000dc10c 	.word	0x000dc10c
   d4080:	000dc0cc 	.word	0x000dc0cc

000d4084 <module_user_setup>:

/**
 * Export these functions with a fuller name so they don't clash with the setup/loop wrappers in the system module.
 */
void module_user_setup() {
    setup();
   d4084:	f000 baf2 	b.w	d466c <setup>

000d4088 <module_user_loop>:
}

void module_user_loop() {
   d4088:	b508      	push	{r3, lr}
    loop();
   d408a:	f000 f915 	bl	d42b8 <loop>
    _post_loop();
}
   d408e:	e8bd 4008 	ldmia.w	sp!, {r3, lr}
    setup();
}

void module_user_loop() {
    loop();
    _post_loop();
   d4092:	f004 bfbb 	b.w	d900c <_post_loop>

000d4096 <_Znwj>:
   d4096:	f002 b9d1 	b.w	d643c <malloc>

000d409a <_Znaj>:
	return malloc(size);
}

void *operator new[](size_t size)
{
	return malloc(size);
   d409a:	f002 b9cf 	b.w	d643c <malloc>

000d409e <_ZdlPv>:
   d409e:	f002 b9d5 	b.w	d644c <free>

000d40a2 <_ZdaPv>:
	free(p);
}

void operator delete[](void *p)
{
	free(p);
   d40a2:	f002 b9d3 	b.w	d644c <free>
	...

000d40a8 <__cxa_pure_virtual>:
char* strerror(int errnum) {
    return (char*)"";
}

/* Default implementation for call made to pure virtual function. */
void __cxa_pure_virtual() {
   d40a8:	b508      	push	{r3, lr}
  PANIC(PureVirtualCall,"Call on pure virtual");
   d40aa:	4a03      	ldr	r2, [pc, #12]	; (d40b8 <__cxa_pure_virtual+0x10>)
   d40ac:	2100      	movs	r1, #0
   d40ae:	200c      	movs	r0, #12
   d40b0:	f002 f908 	bl	d62c4 <panic_>
   d40b4:	e7fe      	b.n	d40b4 <__cxa_pure_virtual+0xc>
   d40b6:	bf00      	nop
   d40b8:	000d5fc5 	.word	0x000d5fc5

000d40bc <__cxa_guard_acquire>:

/* Provide default implemenation for __cxa_guard_acquire() and
 * __cxa_guard_release(). Note: these must be revisited if a multitasking
 * OS is ported to this platform. */
__extension__ typedef int __guard __attribute__((mode (__DI__)));
int __cxa_guard_acquire(__guard *g) {return !*(char *)(g);};
   d40bc:	7800      	ldrb	r0, [r0, #0]
   d40be:	fab0 f080 	clz	r0, r0
   d40c2:	0940      	lsrs	r0, r0, #5
   d40c4:	4770      	bx	lr

000d40c6 <__cxa_guard_release>:
void __cxa_guard_release (__guard *g) {*(char *)g = 1;};
   d40c6:	2301      	movs	r3, #1
   d40c8:	7003      	strb	r3, [r0, #0]
   d40ca:	4770      	bx	lr

000d40cc <_ZN5spark10LogHandler5writeEPKcj>:
    if (level >= filter_.level(category)) {
        write(data, size);
    }
}

inline void spark::LogHandler::write(const char *data, size_t size) {
   d40cc:	4770      	bx	lr

000d40ce <_ZN5spark16StreamLogHandler5writeEPKcj>:
inline Print* spark::StreamLogHandler::stream() const {
    return stream_;
}

inline void spark::StreamLogHandler::write(const char *data, size_t size) {
    stream_->write((const uint8_t*)data, size);
   d40ce:	6a00      	ldr	r0, [r0, #32]
   d40d0:	6803      	ldr	r3, [r0, #0]
   d40d2:	68db      	ldr	r3, [r3, #12]
   d40d4:	4718      	bx	r3

000d40d6 <_ZN11SystemClassD1Ev>:
    system_error_t error_;
    SleepResult compatResult_;
};


class SystemClass {
   d40d6:	b510      	push	{r4, lr}
   d40d8:	4604      	mov	r4, r0
        return toSleepResult();
    }

private:
    void freeWakeupSourceMemory() {
        if (wakeupSource_) {
   d40da:	6800      	ldr	r0, [r0, #0]
   d40dc:	b108      	cbz	r0, d40e2 <_ZN11SystemClassD1Ev+0xc>
            free(wakeupSource_);
   d40de:	f002 f9b5 	bl	d644c <free>
    system_error_t error_;
    SleepResult compatResult_;
};


class SystemClass {
   d40e2:	4620      	mov	r0, r4
   d40e4:	bd10      	pop	{r4, pc}
	...

000d40e8 <_ZN5spark16SerialLogHandlerD1Ev>:
            StreamLogHandler(Serial, level, filters) {
        Serial.begin(baud);
        LogManager::instance()->addHandler(this);
    }

    virtual ~SerialLogHandler() {
   d40e8:	4b0a      	ldr	r3, [pc, #40]	; (d4114 <_ZN5spark16SerialLogHandlerD1Ev+0x2c>)
   d40ea:	b510      	push	{r4, lr}
   d40ec:	4604      	mov	r4, r0
   d40ee:	6003      	str	r3, [r0, #0]
        LogManager::instance()->removeHandler(this);
   d40f0:	f004 f88c 	bl	d820c <_ZN5spark10LogManager8instanceEv>
   d40f4:	4621      	mov	r1, r4
   d40f6:	f004 fa79 	bl	d85ec <_ZN5spark10LogManager13removeHandlerEPNS_10LogHandlerE>
        Serial.end();
   d40fa:	f005 fbad 	bl	d9858 <_Z16_fetch_usbserialv>
   d40fe:	f005 fb9f 	bl	d9840 <_ZN9USBSerial3endEv>
    */
    LogHandler(LogLevel level, LogCategoryFilters filters);
    /*!
        \brief Destructor.
    */
    virtual ~LogHandler() = default;
   d4102:	4620      	mov	r0, r4
   d4104:	4b04      	ldr	r3, [pc, #16]	; (d4118 <_ZN5spark16SerialLogHandlerD1Ev+0x30>)
   d4106:	f840 3b04 	str.w	r3, [r0], #4
   d410a:	f004 f975 	bl	d83f8 <_ZN5spark6detail9LogFilterD1Ev>
    }
   d410e:	4620      	mov	r0, r4
   d4110:	bd10      	pop	{r4, pc}
   d4112:	bf00      	nop
   d4114:	000dac48 	.word	0x000dac48
   d4118:	000dac30 	.word	0x000dac30

000d411c <_ZN5spark16SerialLogHandlerD0Ev>:
            StreamLogHandler(Serial, level, filters) {
        Serial.begin(baud);
        LogManager::instance()->addHandler(this);
    }

    virtual ~SerialLogHandler() {
   d411c:	b510      	push	{r4, lr}
   d411e:	4604      	mov	r4, r0
        LogManager::instance()->removeHandler(this);
        Serial.end();
    }
   d4120:	f7ff ffe2 	bl	d40e8 <_ZN5spark16SerialLogHandlerD1Ev>
   d4124:	4620      	mov	r0, r4
   d4126:	2124      	movs	r1, #36	; 0x24
   d4128:	f006 fa92 	bl	da650 <_ZdlPvj>
   d412c:	4620      	mov	r0, r4
   d412e:	bd10      	pop	{r4, pc}

000d4130 <_ZNK5spark6Logger4infoEPKcz>:
    va_start(args, fmt);
    log(LOG_LEVEL_TRACE, fmt, args);
    va_end(args);
}

inline void spark::Logger::info(const char *fmt, ...) const {
   d4130:	b40e      	push	{r1, r2, r3}
   d4132:	b500      	push	{lr}
   d4134:	b08c      	sub	sp, #48	; 0x30
   d4136:	aa0d      	add	r2, sp, #52	; 0x34
    va_end(args);
}

inline void spark::Logger::log(LogLevel level, const char *fmt, va_list args) const {
    LogAttributes attr;
    attr.size = sizeof(LogAttributes);
   d4138:	2320      	movs	r3, #32
    va_start(args, fmt);
    log(LOG_LEVEL_TRACE, fmt, args);
    va_end(args);
}

inline void spark::Logger::info(const char *fmt, ...) const {
   d413a:	f852 1b04 	ldr.w	r1, [r2], #4
    va_list args;
    va_start(args, fmt);
   d413e:	9203      	str	r2, [sp, #12]

inline void spark::Logger::log(LogLevel level, const char *fmt, va_list args) const {
    LogAttributes attr;
    attr.size = sizeof(LogAttributes);
    attr.flags = 0;
    log_message_v(level, name_, &attr, nullptr, fmt, args);
   d4140:	e88d 0006 	stmia.w	sp, {r1, r2}
    va_end(args);
}

inline void spark::Logger::log(LogLevel level, const char *fmt, va_list args) const {
    LogAttributes attr;
    attr.size = sizeof(LogAttributes);
   d4144:	9304      	str	r3, [sp, #16]
    attr.flags = 0;
    log_message_v(level, name_, &attr, nullptr, fmt, args);
   d4146:	6801      	ldr	r1, [r0, #0]
}

inline void spark::Logger::log(LogLevel level, const char *fmt, va_list args) const {
    LogAttributes attr;
    attr.size = sizeof(LogAttributes);
    attr.flags = 0;
   d4148:	2300      	movs	r3, #0
    log_message_v(level, name_, &attr, nullptr, fmt, args);
   d414a:	aa04      	add	r2, sp, #16
   d414c:	201e      	movs	r0, #30
}

inline void spark::Logger::log(LogLevel level, const char *fmt, va_list args) const {
    LogAttributes attr;
    attr.size = sizeof(LogAttributes);
    attr.flags = 0;
   d414e:	9305      	str	r3, [sp, #20]
    log_message_v(level, name_, &attr, nullptr, fmt, args);
   d4150:	f002 f8c8 	bl	d62e4 <log_message_v>
inline void spark::Logger::info(const char *fmt, ...) const {
    va_list args;
    va_start(args, fmt);
    log(LOG_LEVEL_INFO, fmt, args);
    va_end(args);
}
   d4154:	b00c      	add	sp, #48	; 0x30
   d4156:	f85d eb04 	ldr.w	lr, [sp], #4
   d415a:	b003      	add	sp, #12
   d415c:	4770      	bx	lr
	...

000d4160 <_Z18mqttPacketReceivedPcPhtb9MQTT5_QOSb>:
    snprintf(buf, sz+1, "Failure due to reason %d", (int) reason);
    
   Particle.publish(buf, PRIVATE);
}

void mqttPacketReceived(char* topic, uint8_t* payload, uint16_t payloadLength, bool dup, MQTT5_QOS qos, bool retain) {
   d4160:	b508      	push	{r3, lr}
    char content[payloadLength + 1];
    memcpy(content, payload, payloadLength);
    content[payloadLength] = 0;
    Log.info("Topic: %s. Message: %s", topic, payload);
   d4162:	4602      	mov	r2, r0
   d4164:	460b      	mov	r3, r1
   d4166:	4802      	ldr	r0, [pc, #8]	; (d4170 <_Z18mqttPacketReceivedPcPhtb9MQTT5_QOSb+0x10>)
   d4168:	4902      	ldr	r1, [pc, #8]	; (d4174 <_Z18mqttPacketReceivedPcPhtb9MQTT5_QOSb+0x14>)
   d416a:	f7ff ffe1 	bl	d4130 <_ZNK5spark6Logger4infoEPKcz>
   d416e:	bd08      	pop	{r3, pc}
   d4170:	2003e40c 	.word	0x2003e40c
   d4174:	000dac78 	.word	0x000dac78

000d4178 <_Z22onTemperatureReceived1PKhjRKN8particle13BlePeerDeviceEPv>:
    }
}

/* These functions are where we do something with the data (in bytes) we've received via bluetooth */

void onTemperatureReceived1(const uint8_t* data, size_t len, const BlePeerDevice& peer, void* context){
   d4178:	b510      	push	{r4, lr}

    
    //read the time of sending, to calculate transmission delay
    memcpy(&sentTime, &data[0] + sizeof(receivedTemp), sizeof(sentTime));
    //read the temp
    memcpy(&receivedTemp, &data[0], sizeof(receivedTemp));
   d417a:	f990 4000 	ldrsb.w	r4, [r0]
    

    Log.info("Sensor 1 - Temperature: %u degrees Celsius", receivedTemp);
   d417e:	4904      	ldr	r1, [pc, #16]	; (d4190 <_Z22onTemperatureReceived1PKhjRKN8particle13BlePeerDeviceEPv+0x18>)
   d4180:	4804      	ldr	r0, [pc, #16]	; (d4194 <_Z22onTemperatureReceived1PKhjRKN8particle13BlePeerDeviceEPv+0x1c>)
   d4182:	4622      	mov	r2, r4
   d4184:	f7ff ffd4 	bl	d4130 <_ZNK5spark6Logger4infoEPKcz>
    getTempsn1 = receivedTemp;
   d4188:	4b03      	ldr	r3, [pc, #12]	; (d4198 <_Z22onTemperatureReceived1PKhjRKN8particle13BlePeerDeviceEPv+0x20>)
   d418a:	701c      	strb	r4, [r3, #0]
   d418c:	bd10      	pop	{r4, pc}
   d418e:	bf00      	nop
   d4190:	000dac8f 	.word	0x000dac8f
   d4194:	2003e40c 	.word	0x2003e40c
   d4198:	2003d85c 	.word	0x2003d85c

000d419c <_Z18onHumidityReceivedPKhjRKN8particle13BlePeerDeviceEPv>:
    // Log.info("Temp/humidity transmission delay: %llu seconds", calculateTransmissionDelay(sentTime));
}

void onHumidityReceived(const uint8_t* data, size_t len, const BlePeerDevice& peer, void* context){
   d419c:	b508      	push	{r3, lr}
    uint8_t receivedHumidity;
    memcpy(&receivedHumidity, &data[0], sizeof(receivedHumidity));
    Log.info("Sensor 1 - Humidity: %u%%", receivedHumidity);
   d419e:	4903      	ldr	r1, [pc, #12]	; (d41ac <_Z18onHumidityReceivedPKhjRKN8particle13BlePeerDeviceEPv+0x10>)
   d41a0:	7802      	ldrb	r2, [r0, #0]
   d41a2:	4803      	ldr	r0, [pc, #12]	; (d41b0 <_Z18onHumidityReceivedPKhjRKN8particle13BlePeerDeviceEPv+0x14>)
   d41a4:	f7ff ffc4 	bl	d4130 <_ZNK5spark6Logger4infoEPKcz>
   d41a8:	bd08      	pop	{r3, pc}
   d41aa:	bf00      	nop
   d41ac:	000dacba 	.word	0x000dacba
   d41b0:	2003e40c 	.word	0x2003e40c

000d41b4 <_Z18onMoistureReceivedPKhjRKN8particle13BlePeerDeviceEPv>:
}

void onMoistureReceived(const uint8_t* data, size_t len, const BlePeerDevice& peer, void* context){
   d41b4:	b507      	push	{r0, r1, r2, lr}
    //read the current sensor reading
    uint16_t twoByteValue;
    memcpy(&twoByteValue, &data[0], sizeof(uint16_t));
   d41b6:	8803      	ldrh	r3, [r0, #0]
   d41b8:	f8ad 3006 	strh.w	r3, [sp, #6]
    
    Log.info("Sensor 1 - Moisture: %u", twoByteValue);
   d41bc:	f8bd 2006 	ldrh.w	r2, [sp, #6]
   d41c0:	4903      	ldr	r1, [pc, #12]	; (d41d0 <_Z18onMoistureReceivedPKhjRKN8particle13BlePeerDeviceEPv+0x1c>)
   d41c2:	4804      	ldr	r0, [pc, #16]	; (d41d4 <_Z18onMoistureReceivedPKhjRKN8particle13BlePeerDeviceEPv+0x20>)
   d41c4:	f7ff ffb4 	bl	d4130 <_ZNK5spark6Logger4infoEPKcz>
}
   d41c8:	b003      	add	sp, #12
   d41ca:	f85d fb04 	ldr.w	pc, [sp], #4
   d41ce:	bf00      	nop
   d41d0:	000dacd4 	.word	0x000dacd4
   d41d4:	2003e40c 	.word	0x2003e40c

000d41d8 <_Z19onSolenoidReceived2PKhjRKN8particle13BlePeerDeviceEPv>:

void onSolenoidReceived2(const uint8_t* data, size_t len, const BlePeerDevice& peer, void* context){
   d41d8:	b507      	push	{r0, r1, r2, lr}
    //read the current sensor reading
    uint16_t twoByteValue;
    memcpy(&twoByteValue, &data[0], sizeof(uint16_t));
   d41da:	8803      	ldrh	r3, [r0, #0]
   d41dc:	f8ad 3006 	strh.w	r3, [sp, #6]
    
    Log.info("Sensor 2 - Solenoid: %u ", twoByteValue);
   d41e0:	f8bd 2006 	ldrh.w	r2, [sp, #6]
   d41e4:	4903      	ldr	r1, [pc, #12]	; (d41f4 <_Z19onSolenoidReceived2PKhjRKN8particle13BlePeerDeviceEPv+0x1c>)
   d41e6:	4804      	ldr	r0, [pc, #16]	; (d41f8 <_Z19onSolenoidReceived2PKhjRKN8particle13BlePeerDeviceEPv+0x20>)
   d41e8:	f7ff ffa2 	bl	d4130 <_ZNK5spark6Logger4infoEPKcz>
}
   d41ec:	b003      	add	sp, #12
   d41ee:	f85d fb04 	ldr.w	pc, [sp], #4
   d41f2:	bf00      	nop
   d41f4:	000dacec 	.word	0x000dacec
   d41f8:	2003e40c 	.word	0x2003e40c

000d41fc <_Z15onLightReceivedPKhjRKN8particle13BlePeerDeviceEPv>:
    memcpy(&twoByteValue, &data[0], sizeof(uint16_t));
    
    Log.info("Sensor 2 - Current: %u Amps", twoByteValue);
}

void onLightReceived(const uint8_t* data, size_t len, const BlePeerDevice& peer, void* context){
   d41fc:	b507      	push	{r0, r1, r2, lr}
    //read the current sensor reading
    uint16_t twoByteValue;
    memcpy(&twoByteValue, &data[0], sizeof(uint16_t));
   d41fe:	8803      	ldrh	r3, [r0, #0]
   d4200:	f8ad 3006 	strh.w	r3, [sp, #6]
    
    Log.info("Sensor 1 - Light: %u Lux", twoByteValue);
   d4204:	f8bd 2006 	ldrh.w	r2, [sp, #6]
   d4208:	4903      	ldr	r1, [pc, #12]	; (d4218 <_Z15onLightReceivedPKhjRKN8particle13BlePeerDeviceEPv+0x1c>)
   d420a:	4804      	ldr	r0, [pc, #16]	; (d421c <_Z15onLightReceivedPKhjRKN8particle13BlePeerDeviceEPv+0x20>)
   d420c:	f7ff ff90 	bl	d4130 <_ZNK5spark6Logger4infoEPKcz>
}
   d4210:	b003      	add	sp, #12
   d4212:	f85d fb04 	ldr.w	pc, [sp], #4
   d4216:	bf00      	nop
   d4218:	000dad05 	.word	0x000dad05
   d421c:	2003e40c 	.word	0x2003e40c

000d4220 <_Z20onRainsteamReceived2PKhjRKN8particle13BlePeerDeviceEPv>:

void onRainsteamReceived2(const uint8_t* data, size_t len, const BlePeerDevice& peer, void* context){
   d4220:	b508      	push	{r3, lr}

    //read the time of sending, to calculate transmission delay
    memcpy(&sentTime, &data[0] + sizeof(rainsteam), sizeof(sentTime));

    memcpy(&rainsteam, &data[0], sizeof(rainsteam));
    Log.info("Sensor 2 - Rainsteam: %d ", rainsteam);
   d4222:	4903      	ldr	r1, [pc, #12]	; (d4230 <_Z20onRainsteamReceived2PKhjRKN8particle13BlePeerDeviceEPv+0x10>)
   d4224:	f990 2000 	ldrsb.w	r2, [r0]
   d4228:	4802      	ldr	r0, [pc, #8]	; (d4234 <_Z20onRainsteamReceived2PKhjRKN8particle13BlePeerDeviceEPv+0x14>)
   d422a:	f7ff ff81 	bl	d4130 <_ZNK5spark6Logger4infoEPKcz>
   d422e:	bd08      	pop	{r3, pc}
   d4230:	000dad1e 	.word	0x000dad1e
   d4234:	2003e40c 	.word	0x2003e40c

000d4238 <_Z16onLightReceived2PKhjRKN8particle13BlePeerDeviceEPv>:
    // Log.info("Transmission delay: %llu seconds", calculateTransmissionDelay(sentTime));
}

void onLightReceived2(const uint8_t* data, size_t len, const BlePeerDevice& peer, void* context){
   d4238:	b513      	push	{r0, r1, r4, lr}
    uint64_t sentTime;

    //read the time of sending, to calculate transmission delay
    memcpy(&sentTime, &data[0] + sizeof(twoByteValue), sizeof(sentTime));

    memcpy(&twoByteValue, &data[0], sizeof(uint16_t));
   d423a:	8803      	ldrh	r3, [r0, #0]
   d423c:	f8ad 3006 	strh.w	r3, [sp, #6]
    Log.info("Sensor 2 - Liquid: %u ", twoByteValue);
   d4240:	f8bd 4006 	ldrh.w	r4, [sp, #6]
   d4244:	4904      	ldr	r1, [pc, #16]	; (d4258 <_Z16onLightReceived2PKhjRKN8particle13BlePeerDeviceEPv+0x20>)
   d4246:	4805      	ldr	r0, [pc, #20]	; (d425c <_Z16onLightReceived2PKhjRKN8particle13BlePeerDeviceEPv+0x24>)
   d4248:	4622      	mov	r2, r4
   d424a:	f7ff ff71 	bl	d4130 <_ZNK5spark6Logger4infoEPKcz>

    currentLight = twoByteValue;
   d424e:	4b04      	ldr	r3, [pc, #16]	; (d4260 <_Z16onLightReceived2PKhjRKN8particle13BlePeerDeviceEPv+0x28>)
   d4250:	801c      	strh	r4, [r3, #0]
    // Log.info("Transmission delay: %llu seconds", calculateTransmissionDelay(sentTime));
}
   d4252:	b002      	add	sp, #8
   d4254:	bd10      	pop	{r4, pc}
   d4256:	bf00      	nop
   d4258:	000dad38 	.word	0x000dad38
   d425c:	2003e40c 	.word	0x2003e40c
   d4260:	2003e3a4 	.word	0x2003e3a4

000d4264 <_Z23onHumanDetectorReceivedPKhjRKN8particle13BlePeerDeviceEPv>:


void onHumanDetectorReceived(const uint8_t* data, size_t len, const BlePeerDevice& peer, void* context){
   d4264:	b513      	push	{r0, r1, r4, lr}
    uint8_t humanSeen;
    uint64_t sentTime;

    //read the time of sending, to calculate transmission delay
    memcpy(&sentTime, &data[0] + sizeof(uint8_t), sizeof(sentTime));
   d4266:	4602      	mov	r2, r0
    currentLight = twoByteValue;
    // Log.info("Transmission delay: %llu seconds", calculateTransmissionDelay(sentTime));
}


void onHumanDetectorReceived(const uint8_t* data, size_t len, const BlePeerDevice& peer, void* context){
   d4268:	4604      	mov	r4, r0
    uint8_t humanSeen;
    uint64_t sentTime;

    //read the time of sending, to calculate transmission delay
    memcpy(&sentTime, &data[0] + sizeof(uint8_t), sizeof(sentTime));
   d426a:	f852 0f01 	ldr.w	r0, [r2, #1]!

    memcpy(&humanSeen, &data[0], sizeof(uint8_t));
   d426e:	7824      	ldrb	r4, [r4, #0]
void onHumanDetectorReceived(const uint8_t* data, size_t len, const BlePeerDevice& peer, void* context){
    uint8_t humanSeen;
    uint64_t sentTime;

    //read the time of sending, to calculate transmission delay
    memcpy(&sentTime, &data[0] + sizeof(uint8_t), sizeof(sentTime));
   d4270:	6851      	ldr	r1, [r2, #4]
   d4272:	466b      	mov	r3, sp
   d4274:	c303      	stmia	r3!, {r0, r1}

    memcpy(&humanSeen, &data[0], sizeof(uint8_t));
    Log.info("Sensor 2 - Human detector: %u", humanSeen);
   d4276:	4622      	mov	r2, r4
   d4278:	490a      	ldr	r1, [pc, #40]	; (d42a4 <_Z23onHumanDetectorReceivedPKhjRKN8particle13BlePeerDeviceEPv+0x40>)
   d427a:	480b      	ldr	r0, [pc, #44]	; (d42a8 <_Z23onHumanDetectorReceivedPKhjRKN8particle13BlePeerDeviceEPv+0x44>)
   d427c:	f7ff ff58 	bl	d4130 <_ZNK5spark6Logger4infoEPKcz>
    if(humanSeen == 0x00){
   d4280:	b90c      	cbnz	r4, d4286 <_Z23onHumanDetectorReceivedPKhjRKN8particle13BlePeerDeviceEPv+0x22>
        Log.info("Sensor 2 - Human lost...");
   d4282:	490a      	ldr	r1, [pc, #40]	; (d42ac <_Z23onHumanDetectorReceivedPKhjRKN8particle13BlePeerDeviceEPv+0x48>)
   d4284:	e002      	b.n	d428c <_Z23onHumanDetectorReceivedPKhjRKN8particle13BlePeerDeviceEPv+0x28>
    }
    else if (humanSeen == 0x01){
   d4286:	2c01      	cmp	r4, #1
   d4288:	d104      	bne.n	d4294 <_Z23onHumanDetectorReceivedPKhjRKN8particle13BlePeerDeviceEPv+0x30>
        Log.info("Sensor 2 - Human detected!");
   d428a:	4909      	ldr	r1, [pc, #36]	; (d42b0 <_Z23onHumanDetectorReceivedPKhjRKN8particle13BlePeerDeviceEPv+0x4c>)
   d428c:	4806      	ldr	r0, [pc, #24]	; (d42a8 <_Z23onHumanDetectorReceivedPKhjRKN8particle13BlePeerDeviceEPv+0x44>)
   d428e:	f7ff ff4f 	bl	d4130 <_ZNK5spark6Logger4infoEPKcz>
   d4292:	e004      	b.n	d429e <_Z23onHumanDetectorReceivedPKhjRKN8particle13BlePeerDeviceEPv+0x3a>
    }
    else{
        Log.info("Sensor 2 - Invalid human detector message. Expected 0 or 1, received %u", humanSeen);
   d4294:	4622      	mov	r2, r4
   d4296:	4907      	ldr	r1, [pc, #28]	; (d42b4 <_Z23onHumanDetectorReceivedPKhjRKN8particle13BlePeerDeviceEPv+0x50>)
   d4298:	4803      	ldr	r0, [pc, #12]	; (d42a8 <_Z23onHumanDetectorReceivedPKhjRKN8particle13BlePeerDeviceEPv+0x44>)
   d429a:	f7ff ff49 	bl	d4130 <_ZNK5spark6Logger4infoEPKcz>
    }
    // Log.info("Transmission delay: %llu seconds", calculateTransmissionDelay(sentTime));
   d429e:	b002      	add	sp, #8
   d42a0:	bd10      	pop	{r4, pc}
   d42a2:	bf00      	nop
   d42a4:	000dad4f 	.word	0x000dad4f
   d42a8:	2003e40c 	.word	0x2003e40c
   d42ac:	000dad6d 	.word	0x000dad6d
   d42b0:	000dad86 	.word	0x000dad86
   d42b4:	000dada1 	.word	0x000dada1

000d42b8 <loop>:
    humanDetectorCharacteristic.onDataReceived(onHumanDetectorReceived, NULL);
    solenoidVoltageCharacteristic.onDataReceived(onSolenoidReceived2, NULL);

}

void loop() { 
   d42b8:	e92d 41f0 	stmdb	sp!, {r4, r5, r6, r7, r8, lr}
    //do stuff if both sensors have been connected
    if ((sensorNode1.connected()) || (sensorNode2.connected())) {   //Add this back in when required!
   d42bc:	48a3      	ldr	r0, [pc, #652]	; (d454c <loop+0x294>)
    humanDetectorCharacteristic.onDataReceived(onHumanDetectorReceived, NULL);
    solenoidVoltageCharacteristic.onDataReceived(onSolenoidReceived2, NULL);

}

void loop() { 
   d42be:	b090      	sub	sp, #64	; 0x40
    //do stuff if both sensors have been connected
    if ((sensorNode1.connected()) || (sensorNode2.connected())) {   //Add this back in when required!
   d42c0:	f002 feae 	bl	d7020 <_ZNK8particle13BlePeerDevice9connectedEv>
   d42c4:	2800      	cmp	r0, #0
   d42c6:	f040 80dc 	bne.w	d4482 <loop+0x1ca>
   d42ca:	48a1      	ldr	r0, [pc, #644]	; (d4550 <loop+0x298>)
   d42cc:	f002 fea8 	bl	d7020 <_ZNK8particle13BlePeerDevice9connectedEv>
   d42d0:	4605      	mov	r5, r0
   d42d2:	2800      	cmp	r0, #0
   d42d4:	f040 80d5 	bne.w	d4482 <loop+0x1ca>

        }
    }
    //if we haven't connected both, then scan for them
    else {
        Log.info("About to scan...");
   d42d8:	499e      	ldr	r1, [pc, #632]	; (d4554 <loop+0x29c>)
   d42da:	489f      	ldr	r0, [pc, #636]	; (d4558 <loop+0x2a0>)
        for (int i = 0; i < count; i++) {
            BleUuid foundService;
            size_t len;

            //Read the service UUID of this BT device
            len = scanResults[i].advertisingData.serviceUUID(&foundService, 1);
   d42dc:	4f9f      	ldr	r7, [pc, #636]	; (d455c <loop+0x2a4>)

        }
    }
    //if we haven't connected both, then scan for them
    else {
        Log.info("About to scan...");
   d42de:	f7ff ff27 	bl	d4130 <_ZNK5spark6Logger4infoEPKcz>
        int count = BLE.scan(scanResults, SCAN_RESULT_MAX);
   d42e2:	f002 fefd 	bl	d70e0 <_ZN8particle14BleLocalDevice11getInstanceEv>
   d42e6:	221e      	movs	r2, #30
   d42e8:	499c      	ldr	r1, [pc, #624]	; (d455c <loop+0x2a4>)
   d42ea:	f002 ff4f 	bl	d718c <_ZNK8particle14BleLocalDevice4scanEPNS_13BleScanResultEj>
   d42ee:	4606      	mov	r6, r0
        for (int i = 0; i < count; i++) {
   d42f0:	42b5      	cmp	r5, r6
   d42f2:	f280 80be 	bge.w	d4472 <loop+0x1ba>
   d42f6:	2454      	movs	r4, #84	; 0x54
   d42f8:	436c      	muls	r4, r5
            BleUuid foundService;
   d42fa:	a806      	add	r0, sp, #24
   d42fc:	f002 fb22 	bl	d6944 <_ZN8particle7BleUuidC1Ev>
            size_t len;

            //Read the service UUID of this BT device
            len = scanResults[i].advertisingData.serviceUUID(&foundService, 1);
   d4300:	f104 0008 	add.w	r0, r4, #8
   d4304:	2201      	movs	r2, #1
   d4306:	a906      	add	r1, sp, #24
   d4308:	4438      	add	r0, r7
   d430a:	f002 fd81 	bl	d6e10 <_ZNK8particle18BleAdvertisingData11serviceUUIDEPNS_7BleUuidEj>

            Log.info("Found a bluetooth device.");
   d430e:	4994      	ldr	r1, [pc, #592]	; (d4560 <loop+0x2a8>)
        for (int i = 0; i < count; i++) {
            BleUuid foundService;
            size_t len;

            //Read the service UUID of this BT device
            len = scanResults[i].advertisingData.serviceUUID(&foundService, 1);
   d4310:	4680      	mov	r8, r0

            Log.info("Found a bluetooth device.");
   d4312:	4891      	ldr	r0, [pc, #580]	; (d4558 <loop+0x2a0>)
   d4314:	f7ff ff0c 	bl	d4130 <_ZNK5spark6Logger4infoEPKcz>
   d4318:	443c      	add	r4, r7

class StringSumHelper : public String
{
public:
	StringSumHelper(const String &s) : String(s) {}
	StringSumHelper(const char *p) : String(p) {}
   d431a:	4992      	ldr	r1, [pc, #584]	; (d4564 <loop+0x2ac>)
   d431c:	a80b      	add	r0, sp, #44	; 0x2c
   d431e:	f002 f97c 	bl	d661a <_ZN6StringC1EPK19__FlashStringHelper>
            Log.info("Address: " + scanResults[i].address.toString());
   d4322:	2200      	movs	r2, #0
   d4324:	4621      	mov	r1, r4
   d4326:	a802      	add	r0, sp, #8
   d4328:	f002 fafb 	bl	d6922 <_ZNK8particle10BleAddress8toStringEb>
   d432c:	a902      	add	r1, sp, #8
   d432e:	a80b      	add	r0, sp, #44	; 0x2c
   d4330:	f002 f9c8 	bl	d66c4 <_ZplRK15StringSumHelperRK6String>
   d4334:	6801      	ldr	r1, [r0, #0]
   d4336:	4888      	ldr	r0, [pc, #544]	; (d4558 <loop+0x2a0>)
   d4338:	f7ff fefa 	bl	d4130 <_ZNK5spark6Logger4infoEPKcz>
   d433c:	a802      	add	r0, sp, #8
   d433e:	f002 f925 	bl	d658c <_ZN6StringD1Ev>

        friend class StringPrintableHelper;

};

class StringSumHelper : public String
   d4342:	a80b      	add	r0, sp, #44	; 0x2c
   d4344:	f002 f922 	bl	d658c <_ZN6StringD1Ev>
{
public:
	StringSumHelper(const String &s) : String(s) {}
	StringSumHelper(const char *p) : String(p) {}
   d4348:	4987      	ldr	r1, [pc, #540]	; (d4568 <loop+0x2b0>)
   d434a:	a80b      	add	r0, sp, #44	; 0x2c
   d434c:	f002 f965 	bl	d661a <_ZN6StringC1EPK19__FlashStringHelper>
            Log.info("Found UUID: " + foundService.toString());
   d4350:	2200      	movs	r2, #0
   d4352:	a906      	add	r1, sp, #24
   d4354:	a802      	add	r0, sp, #8
   d4356:	f002 fc85 	bl	d6c64 <_ZNK8particle7BleUuid8toStringEb>
   d435a:	a902      	add	r1, sp, #8
   d435c:	a80b      	add	r0, sp, #44	; 0x2c
   d435e:	f002 f9b1 	bl	d66c4 <_ZplRK15StringSumHelperRK6String>
   d4362:	6801      	ldr	r1, [r0, #0]
   d4364:	487c      	ldr	r0, [pc, #496]	; (d4558 <loop+0x2a0>)
   d4366:	f7ff fee3 	bl	d4130 <_ZNK5spark6Logger4infoEPKcz>
   d436a:	a802      	add	r0, sp, #8
   d436c:	f002 f90e 	bl	d658c <_ZN6StringD1Ev>

        friend class StringPrintableHelper;

};

class StringSumHelper : public String
   d4370:	a80b      	add	r0, sp, #44	; 0x2c
   d4372:	f002 f90b 	bl	d658c <_ZN6StringD1Ev>
{
public:
	StringSumHelper(const String &s) : String(s) {}
	StringSumHelper(const char *p) : String(p) {}
   d4376:	497d      	ldr	r1, [pc, #500]	; (d456c <loop+0x2b4>)
   d4378:	a80b      	add	r0, sp, #44	; 0x2c
   d437a:	f002 f94e 	bl	d661a <_ZN6StringC1EPK19__FlashStringHelper>
            Log.info("SensorNode1 UUID: " + sensorNode1ServiceUuid.toString());
   d437e:	2200      	movs	r2, #0
   d4380:	497b      	ldr	r1, [pc, #492]	; (d4570 <loop+0x2b8>)
   d4382:	a802      	add	r0, sp, #8
   d4384:	f002 fc6e 	bl	d6c64 <_ZNK8particle7BleUuid8toStringEb>
   d4388:	a902      	add	r1, sp, #8
   d438a:	a80b      	add	r0, sp, #44	; 0x2c
   d438c:	f002 f99a 	bl	d66c4 <_ZplRK15StringSumHelperRK6String>
   d4390:	6801      	ldr	r1, [r0, #0]
   d4392:	4871      	ldr	r0, [pc, #452]	; (d4558 <loop+0x2a0>)
   d4394:	f7ff fecc 	bl	d4130 <_ZNK5spark6Logger4infoEPKcz>
   d4398:	a802      	add	r0, sp, #8
   d439a:	f002 f8f7 	bl	d658c <_ZN6StringD1Ev>

        friend class StringPrintableHelper;

};

class StringSumHelper : public String
   d439e:	a80b      	add	r0, sp, #44	; 0x2c
   d43a0:	f002 f8f4 	bl	d658c <_ZN6StringD1Ev>
{
public:
	StringSumHelper(const String &s) : String(s) {}
	StringSumHelper(const char *p) : String(p) {}
   d43a4:	4973      	ldr	r1, [pc, #460]	; (d4574 <loop+0x2bc>)
   d43a6:	a80b      	add	r0, sp, #44	; 0x2c
   d43a8:	f002 f937 	bl	d661a <_ZN6StringC1EPK19__FlashStringHelper>
            Log.info("SensorNode2 UUID: " + sensorNode2ServiceUuid.toString());
   d43ac:	2200      	movs	r2, #0
   d43ae:	4972      	ldr	r1, [pc, #456]	; (d4578 <loop+0x2c0>)
   d43b0:	a802      	add	r0, sp, #8
   d43b2:	f002 fc57 	bl	d6c64 <_ZNK8particle7BleUuid8toStringEb>
   d43b6:	a902      	add	r1, sp, #8
   d43b8:	a80b      	add	r0, sp, #44	; 0x2c
   d43ba:	f002 f983 	bl	d66c4 <_ZplRK15StringSumHelperRK6String>
   d43be:	6801      	ldr	r1, [r0, #0]
   d43c0:	4865      	ldr	r0, [pc, #404]	; (d4558 <loop+0x2a0>)
   d43c2:	f7ff feb5 	bl	d4130 <_ZNK5spark6Logger4infoEPKcz>
   d43c6:	a802      	add	r0, sp, #8
   d43c8:	f002 f8e0 	bl	d658c <_ZN6StringD1Ev>

        friend class StringPrintableHelper;

};

class StringSumHelper : public String
   d43cc:	a80b      	add	r0, sp, #44	; 0x2c
   d43ce:	f002 f8dd 	bl	d658c <_ZN6StringD1Ev>

            //Check if it matches UUID for sensor node 1
            if (len > 0 && foundService == sensorNode1ServiceUuid){
   d43d2:	f1b8 0f00 	cmp.w	r8, #0
   d43d6:	d04a      	beq.n	d446e <loop+0x1b6>
   d43d8:	4965      	ldr	r1, [pc, #404]	; (d4570 <loop+0x2b8>)
   d43da:	a806      	add	r0, sp, #24
   d43dc:	f002 fb52 	bl	d6a84 <_ZNK8particle7BleUuideqERKS0_>
   d43e0:	2800      	cmp	r0, #0
   d43e2:	d063      	beq.n	d44ac <loop+0x1f4>
                Log.info("Found sensor node 1.");
   d43e4:	485c      	ldr	r0, [pc, #368]	; (d4558 <loop+0x2a0>)
   d43e6:	4965      	ldr	r1, [pc, #404]	; (d457c <loop+0x2c4>)
   d43e8:	f7ff fea2 	bl	d4130 <_ZNK5spark6Logger4infoEPKcz>
                if(sensorNode1.connected() == false){
   d43ec:	4857      	ldr	r0, [pc, #348]	; (d454c <loop+0x294>)
   d43ee:	f002 fe17 	bl	d7020 <_ZNK8particle13BlePeerDevice9connectedEv>
   d43f2:	2800      	cmp	r0, #0
   d43f4:	d153      	bne.n	d449e <loop+0x1e6>
                    sensorNode1 = BLE.connect(scanResults[i].address);
   d43f6:	f002 fe73 	bl	d70e0 <_ZN8particle14BleLocalDevice11getInstanceEv>
   d43fa:	2301      	movs	r3, #1
   d43fc:	4622      	mov	r2, r4
   d43fe:	4601      	mov	r1, r0
   d4400:	a80b      	add	r0, sp, #44	; 0x2c
   d4402:	f003 fb75 	bl	d7af0 <_ZNK8particle14BleLocalDevice7connectERKNS_10BleAddressEb>
   d4406:	a90b      	add	r1, sp, #44	; 0x2c
   d4408:	4850      	ldr	r0, [pc, #320]	; (d454c <loop+0x294>)
   d440a:	f002 ffec 	bl	d73e6 <_ZN8particle13BlePeerDeviceaSERKS0_>
   d440e:	a80b      	add	r0, sp, #44	; 0x2c
   d4410:	f002 ff0c 	bl	d722c <_ZN8particle13BlePeerDeviceD1Ev>
                    if(sensorNode1.connected()){
   d4414:	484d      	ldr	r0, [pc, #308]	; (d454c <loop+0x294>)
   d4416:	f002 fe03 	bl	d7020 <_ZNK8particle13BlePeerDevice9connectedEv>
   d441a:	2800      	cmp	r0, #0
   d441c:	d03d      	beq.n	d449a <loop+0x1e2>
                        Log.info("Successfully connected to sensor node 1!");
   d441e:	4958      	ldr	r1, [pc, #352]	; (d4580 <loop+0x2c8>)
   d4420:	484d      	ldr	r0, [pc, #308]	; (d4558 <loop+0x2a0>)
   d4422:	f7ff fe85 	bl	d4130 <_ZNK5spark6Logger4infoEPKcz>
                        //map characteristics from this service to the variables in this program, so they're handled by our "on<X>Received" functions
                        sensorNode1.getCharacteristicByUUID(temperatureSensorCharacteristic, "29fba3f5-4ce8-46bc-8d75-77806db22c31");
   d4426:	4957      	ldr	r1, [pc, #348]	; (d4584 <loop+0x2cc>)
   d4428:	a80b      	add	r0, sp, #44	; 0x2c
   d442a:	f002 fba1 	bl	d6b70 <_ZN8particle7BleUuidC1EPKc>
   d442e:	aa0b      	add	r2, sp, #44	; 0x2c
   d4430:	4955      	ldr	r1, [pc, #340]	; (d4588 <loop+0x2d0>)
   d4432:	4846      	ldr	r0, [pc, #280]	; (d454c <loop+0x294>)
   d4434:	f002 ffb3 	bl	d739e <_ZNK8particle13BlePeerDevice23getCharacteristicByUUIDERNS_17BleCharacteristicERKNS_7BleUuidE>
                        sensorNode1.getCharacteristicByUUID(humiditySensorCharacteristic, "99a0d2f9-1cfa-42b3-b5ba-1b4d4341392f");
   d4438:	4954      	ldr	r1, [pc, #336]	; (d458c <loop+0x2d4>)
   d443a:	a80b      	add	r0, sp, #44	; 0x2c
   d443c:	f002 fb98 	bl	d6b70 <_ZN8particle7BleUuidC1EPKc>
   d4440:	aa0b      	add	r2, sp, #44	; 0x2c
   d4442:	4953      	ldr	r1, [pc, #332]	; (d4590 <loop+0x2d8>)
   d4444:	4841      	ldr	r0, [pc, #260]	; (d454c <loop+0x294>)
   d4446:	f002 ffaa 	bl	d739e <_ZNK8particle13BlePeerDevice23getCharacteristicByUUIDERNS_17BleCharacteristicERKNS_7BleUuidE>
                        sensorNode1.getCharacteristicByUUID(lightSensorCharacteristic, "45be4a56-48f5-483c-8bb1-d3fee433c23c");
   d444a:	4952      	ldr	r1, [pc, #328]	; (d4594 <loop+0x2dc>)
   d444c:	a80b      	add	r0, sp, #44	; 0x2c
   d444e:	f002 fb8f 	bl	d6b70 <_ZN8particle7BleUuidC1EPKc>
   d4452:	aa0b      	add	r2, sp, #44	; 0x2c
   d4454:	4950      	ldr	r1, [pc, #320]	; (d4598 <loop+0x2e0>)
   d4456:	483d      	ldr	r0, [pc, #244]	; (d454c <loop+0x294>)
   d4458:	f002 ffa1 	bl	d739e <_ZNK8particle13BlePeerDevice23getCharacteristicByUUIDERNS_17BleCharacteristicERKNS_7BleUuidE>
                        sensorNode1.getCharacteristicByUUID(moistureSensorCharacteristic, "ea5248a4-43cc-4198-a4aa-79200a750835");
   d445c:	494f      	ldr	r1, [pc, #316]	; (d459c <loop+0x2e4>)
   d445e:	a80b      	add	r0, sp, #44	; 0x2c
   d4460:	f002 fb86 	bl	d6b70 <_ZN8particle7BleUuidC1EPKc>
   d4464:	494e      	ldr	r1, [pc, #312]	; (d45a0 <loop+0x2e8>)
   d4466:	4839      	ldr	r0, [pc, #228]	; (d454c <loop+0x294>)
   d4468:	aa0b      	add	r2, sp, #44	; 0x2c
                        Log.info("Successfully connected to sensor node 2!");
                        //map characteristics from this service to the variables in this program, so they're handled by our "on<X>Received" functions
                        sensorNode2.getCharacteristicByUUID(rainsteamSensorCharacteristic, "bc7f18d9-2c43-408e-be25-62f40645987c");
                        sensorNode2.getCharacteristicByUUID(liquidSensorCharacteristic, "88ba2f5d-1e98-49af-8697-d0516df03be9");
                        sensorNode2.getCharacteristicByUUID(humanDetectorCharacteristic, "b482d551-c3ae-4dde-b125-ce244d7896b0");
                        sensorNode2.getCharacteristicByUUID(solenoidVoltageCharacteristic, "97017674-9615-4fba-9712-6829f2045836");
   d446a:	f002 ff98 	bl	d739e <_ZNK8particle13BlePeerDevice23getCharacteristicByUUIDERNS_17BleCharacteristicERKNS_7BleUuidE>
    }
    //if we haven't connected both, then scan for them
    else {
        Log.info("About to scan...");
        int count = BLE.scan(scanResults, SCAN_RESULT_MAX);
        for (int i = 0; i < count; i++) {
   d446e:	3501      	adds	r5, #1
   d4470:	e73e      	b.n	d42f0 <loop+0x38>
                    Log.info("Sensor node 2 already connected.");
                }
            }
        }

        if (count > 0) {
   d4472:	2e00      	cmp	r6, #0
   d4474:	dd66      	ble.n	d4544 <loop+0x28c>
            Log.info("%d devices found", count);
   d4476:	4632      	mov	r2, r6
   d4478:	494a      	ldr	r1, [pc, #296]	; (d45a4 <loop+0x2ec>)
   d447a:	4837      	ldr	r0, [pc, #220]	; (d4558 <loop+0x2a0>)
   d447c:	f7ff fe58 	bl	d4130 <_ZNK5spark6Logger4infoEPKcz>
        }
    }
}
   d4480:	e060      	b.n	d4544 <loop+0x28c>

#ifdef __cplusplus
extern "C" {
#endif

inline system_tick_t millis(void) { return HAL_Timer_Get_Milli_Seconds(); }
   d4482:	f001 fda7 	bl	d5fd4 <HAL_Timer_Get_Milli_Seconds>

void loop() { 
    //do stuff if both sensors have been connected
    if ((sensorNode1.connected()) || (sensorNode2.connected())) {   //Add this back in when required!
        //record start time of this loop
        loopStart = millis();
   d4486:	4b48      	ldr	r3, [pc, #288]	; (d45a8 <loop+0x2f0>)

        //TEST
        client.publish("elec4740g6/data","test");
   d4488:	4a48      	ldr	r2, [pc, #288]	; (d45ac <loop+0x2f4>)

void loop() { 
    //do stuff if both sensors have been connected
    if ((sensorNode1.connected()) || (sensorNode2.connected())) {   //Add this back in when required!
        //record start time of this loop
        loopStart = millis();
   d448a:	6018      	str	r0, [r3, #0]

        //TEST
        client.publish("elec4740g6/data","test");
   d448c:	2300      	movs	r3, #0
   d448e:	9300      	str	r3, [sp, #0]
   d4490:	4947      	ldr	r1, [pc, #284]	; (d45b0 <loop+0x2f8>)
   d4492:	4848      	ldr	r0, [pc, #288]	; (d45b4 <loop+0x2fc>)
   d4494:	f001 f9e2 	bl	d585c <_ZN5MQTT57publishEPKcS1_9MQTT5_QOSPt>
   d4498:	e054      	b.n	d4544 <loop+0x28c>
                        sensorNode1.getCharacteristicByUUID(humiditySensorCharacteristic, "99a0d2f9-1cfa-42b3-b5ba-1b4d4341392f");
                        sensorNode1.getCharacteristicByUUID(lightSensorCharacteristic, "45be4a56-48f5-483c-8bb1-d3fee433c23c");
                        sensorNode1.getCharacteristicByUUID(moistureSensorCharacteristic, "ea5248a4-43cc-4198-a4aa-79200a750835");
                    }
                    else{
                        Log.info("Failed to connect to sensor node 1.");
   d449a:	4947      	ldr	r1, [pc, #284]	; (d45b8 <loop+0x300>)
   d449c:	e002      	b.n	d44a4 <loop+0x1ec>
                    }
                }
                else{
                    Log.info("Sensor node 1 already connected.");
   d449e:	4947      	ldr	r1, [pc, #284]	; (d45bc <loop+0x304>)
   d44a0:	e000      	b.n	d44a4 <loop+0x1ec>
                        sensorNode2.getCharacteristicByUUID(humanDetectorCharacteristic, "b482d551-c3ae-4dde-b125-ce244d7896b0");
                        sensorNode2.getCharacteristicByUUID(solenoidVoltageCharacteristic, "97017674-9615-4fba-9712-6829f2045836");

                    }
                    else{
                        Log.info("Failed to connect to sensor node 2.");
   d44a2:	4947      	ldr	r1, [pc, #284]	; (d45c0 <loop+0x308>)
                    }
                }
                else{
                    Log.info("Sensor node 2 already connected.");
   d44a4:	482c      	ldr	r0, [pc, #176]	; (d4558 <loop+0x2a0>)
   d44a6:	f7ff fe43 	bl	d4130 <_ZNK5spark6Logger4infoEPKcz>
   d44aa:	e7e0      	b.n	d446e <loop+0x1b6>
                    Log.info("Sensor node 1 already connected.");
                }
            }

            //Check if it matches UUID for sensor node 2
            else if (len > 0 && foundService == sensorNode2ServiceUuid){
   d44ac:	4932      	ldr	r1, [pc, #200]	; (d4578 <loop+0x2c0>)
   d44ae:	a806      	add	r0, sp, #24
   d44b0:	f002 fae8 	bl	d6a84 <_ZNK8particle7BleUuideqERKS0_>
   d44b4:	2800      	cmp	r0, #0
   d44b6:	d0da      	beq.n	d446e <loop+0x1b6>
                Log.info("Found sensor node 2.");
   d44b8:	4827      	ldr	r0, [pc, #156]	; (d4558 <loop+0x2a0>)
   d44ba:	4942      	ldr	r1, [pc, #264]	; (d45c4 <loop+0x30c>)
   d44bc:	f7ff fe38 	bl	d4130 <_ZNK5spark6Logger4infoEPKcz>
                if(sensorNode2.connected() == false){
   d44c0:	4823      	ldr	r0, [pc, #140]	; (d4550 <loop+0x298>)
   d44c2:	f002 fdad 	bl	d7020 <_ZNK8particle13BlePeerDevice9connectedEv>
   d44c6:	2800      	cmp	r0, #0
   d44c8:	d13a      	bne.n	d4540 <loop+0x288>
                    sensorNode2 = BLE.connect(scanResults[i].address);
   d44ca:	f002 fe09 	bl	d70e0 <_ZN8particle14BleLocalDevice11getInstanceEv>
   d44ce:	2301      	movs	r3, #1
   d44d0:	4622      	mov	r2, r4
   d44d2:	4601      	mov	r1, r0
   d44d4:	a80b      	add	r0, sp, #44	; 0x2c
   d44d6:	f003 fb0b 	bl	d7af0 <_ZNK8particle14BleLocalDevice7connectERKNS_10BleAddressEb>
   d44da:	a90b      	add	r1, sp, #44	; 0x2c
   d44dc:	481c      	ldr	r0, [pc, #112]	; (d4550 <loop+0x298>)
   d44de:	f002 ff82 	bl	d73e6 <_ZN8particle13BlePeerDeviceaSERKS0_>
   d44e2:	a80b      	add	r0, sp, #44	; 0x2c
   d44e4:	f002 fea2 	bl	d722c <_ZN8particle13BlePeerDeviceD1Ev>
                    if(sensorNode2.connected()){
   d44e8:	4819      	ldr	r0, [pc, #100]	; (d4550 <loop+0x298>)
   d44ea:	f002 fd99 	bl	d7020 <_ZNK8particle13BlePeerDevice9connectedEv>
   d44ee:	2800      	cmp	r0, #0
   d44f0:	d0d7      	beq.n	d44a2 <loop+0x1ea>
                        Log.info("Successfully connected to sensor node 2!");
   d44f2:	4935      	ldr	r1, [pc, #212]	; (d45c8 <loop+0x310>)
   d44f4:	4818      	ldr	r0, [pc, #96]	; (d4558 <loop+0x2a0>)
   d44f6:	f7ff fe1b 	bl	d4130 <_ZNK5spark6Logger4infoEPKcz>
                        //map characteristics from this service to the variables in this program, so they're handled by our "on<X>Received" functions
                        sensorNode2.getCharacteristicByUUID(rainsteamSensorCharacteristic, "bc7f18d9-2c43-408e-be25-62f40645987c");
   d44fa:	4934      	ldr	r1, [pc, #208]	; (d45cc <loop+0x314>)
   d44fc:	a80b      	add	r0, sp, #44	; 0x2c
   d44fe:	f002 fb37 	bl	d6b70 <_ZN8particle7BleUuidC1EPKc>
   d4502:	aa0b      	add	r2, sp, #44	; 0x2c
   d4504:	4932      	ldr	r1, [pc, #200]	; (d45d0 <loop+0x318>)
   d4506:	4812      	ldr	r0, [pc, #72]	; (d4550 <loop+0x298>)
   d4508:	f002 ff49 	bl	d739e <_ZNK8particle13BlePeerDevice23getCharacteristicByUUIDERNS_17BleCharacteristicERKNS_7BleUuidE>
                        sensorNode2.getCharacteristicByUUID(liquidSensorCharacteristic, "88ba2f5d-1e98-49af-8697-d0516df03be9");
   d450c:	4931      	ldr	r1, [pc, #196]	; (d45d4 <loop+0x31c>)
   d450e:	a80b      	add	r0, sp, #44	; 0x2c
   d4510:	f002 fb2e 	bl	d6b70 <_ZN8particle7BleUuidC1EPKc>
   d4514:	aa0b      	add	r2, sp, #44	; 0x2c
   d4516:	4930      	ldr	r1, [pc, #192]	; (d45d8 <loop+0x320>)
   d4518:	480d      	ldr	r0, [pc, #52]	; (d4550 <loop+0x298>)
   d451a:	f002 ff40 	bl	d739e <_ZNK8particle13BlePeerDevice23getCharacteristicByUUIDERNS_17BleCharacteristicERKNS_7BleUuidE>
                        sensorNode2.getCharacteristicByUUID(humanDetectorCharacteristic, "b482d551-c3ae-4dde-b125-ce244d7896b0");
   d451e:	492f      	ldr	r1, [pc, #188]	; (d45dc <loop+0x324>)
   d4520:	a80b      	add	r0, sp, #44	; 0x2c
   d4522:	f002 fb25 	bl	d6b70 <_ZN8particle7BleUuidC1EPKc>
   d4526:	aa0b      	add	r2, sp, #44	; 0x2c
   d4528:	492d      	ldr	r1, [pc, #180]	; (d45e0 <loop+0x328>)
   d452a:	4809      	ldr	r0, [pc, #36]	; (d4550 <loop+0x298>)
   d452c:	f002 ff37 	bl	d739e <_ZNK8particle13BlePeerDevice23getCharacteristicByUUIDERNS_17BleCharacteristicERKNS_7BleUuidE>
                        sensorNode2.getCharacteristicByUUID(solenoidVoltageCharacteristic, "97017674-9615-4fba-9712-6829f2045836");
   d4530:	492c      	ldr	r1, [pc, #176]	; (d45e4 <loop+0x32c>)
   d4532:	a80b      	add	r0, sp, #44	; 0x2c
   d4534:	f002 fb1c 	bl	d6b70 <_ZN8particle7BleUuidC1EPKc>
   d4538:	aa0b      	add	r2, sp, #44	; 0x2c
   d453a:	492b      	ldr	r1, [pc, #172]	; (d45e8 <loop+0x330>)
   d453c:	4804      	ldr	r0, [pc, #16]	; (d4550 <loop+0x298>)
   d453e:	e794      	b.n	d446a <loop+0x1b2>
                    else{
                        Log.info("Failed to connect to sensor node 2.");
                    }
                }
                else{
                    Log.info("Sensor node 2 already connected.");
   d4540:	492a      	ldr	r1, [pc, #168]	; (d45ec <loop+0x334>)
   d4542:	e7af      	b.n	d44a4 <loop+0x1ec>

        if (count > 0) {
            Log.info("%d devices found", count);
        }
    }
}
   d4544:	b010      	add	sp, #64	; 0x40
   d4546:	e8bd 81f0 	ldmia.w	sp!, {r4, r5, r6, r7, r8, pc}
   d454a:	bf00      	nop
   d454c:	2003d984 	.word	0x2003d984
   d4550:	2003d98c 	.word	0x2003d98c
   d4554:	000db055 	.word	0x000db055
   d4558:	2003e40c 	.word	0x2003e40c
   d455c:	2003d998 	.word	0x2003d998
   d4560:	000dade9 	.word	0x000dade9
   d4564:	000dae03 	.word	0x000dae03
   d4568:	000dae0d 	.word	0x000dae0d
   d456c:	000dae1a 	.word	0x000dae1a
   d4570:	2003d954 	.word	0x2003d954
   d4574:	000dae2d 	.word	0x000dae2d
   d4578:	2003d8d8 	.word	0x2003d8d8
   d457c:	000db07b 	.word	0x000db07b
   d4580:	000dae40 	.word	0x000dae40
   d4584:	000dae69 	.word	0x000dae69
   d4588:	2003d974 	.word	0x2003d974
   d458c:	000dae8e 	.word	0x000dae8e
   d4590:	2003e3a8 	.word	0x2003e3a8
   d4594:	000daeb3 	.word	0x000daeb3
   d4598:	2003d8ec 	.word	0x2003d8ec
   d459c:	000daed8 	.word	0x000daed8
   d45a0:	2003d97c 	.word	0x2003d97c
   d45a4:	000db044 	.word	0x000db044
   d45a8:	2003d968 	.word	0x2003d968
   d45ac:	000db066 	.word	0x000db066
   d45b0:	000db06b 	.word	0x000db06b
   d45b4:	2003d900 	.word	0x2003d900
   d45b8:	000daefd 	.word	0x000daefd
   d45bc:	000daf21 	.word	0x000daf21
   d45c0:	000dafff 	.word	0x000dafff
   d45c4:	000db090 	.word	0x000db090
   d45c8:	000daf42 	.word	0x000daf42
   d45cc:	000daf6b 	.word	0x000daf6b
   d45d0:	2003e378 	.word	0x2003e378
   d45d4:	000daf90 	.word	0x000daf90
   d45d8:	2003e3b0 	.word	0x2003e3b0
   d45dc:	000dafb5 	.word	0x000dafb5
   d45e0:	2003e370 	.word	0x2003e370
   d45e4:	000dafda 	.word	0x000dafda
   d45e8:	2003d96c 	.word	0x2003d96c
   d45ec:	000db023 	.word	0x000db023

000d45f0 <_ZNSt14__shared_countILN9__gnu_cxx12_Lock_policyE0EED1Ev>:
      explicit __shared_count(const __weak_count<_Lp>& __r);

      // Does not throw if __r._M_get_use_count() == 0, caller must check.
      explicit __shared_count(const __weak_count<_Lp>& __r, std::nothrow_t);

      ~__shared_count() noexcept
   d45f0:	b538      	push	{r3, r4, r5, lr}
      {
	if (_M_pi != nullptr)
   d45f2:	6804      	ldr	r4, [r0, #0]
      explicit __shared_count(const __weak_count<_Lp>& __r);

      // Does not throw if __r._M_get_use_count() == 0, caller must check.
      explicit __shared_count(const __weak_count<_Lp>& __r, std::nothrow_t);

      ~__shared_count() noexcept
   d45f4:	4605      	mov	r5, r0
      {
	if (_M_pi != nullptr)
   d45f6:	b17c      	cbz	r4, d4618 <_ZNSt14__shared_countILN9__gnu_cxx12_Lock_policyE0EED1Ev+0x28>

  template<>
    inline void
    _Sp_counted_base<_S_single>::_M_release() noexcept
    {
      if (--_M_use_count == 0)
   d45f8:	6863      	ldr	r3, [r4, #4]
   d45fa:	3b01      	subs	r3, #1
   d45fc:	6063      	str	r3, [r4, #4]
   d45fe:	b95b      	cbnz	r3, d4618 <_ZNSt14__shared_countILN9__gnu_cxx12_Lock_policyE0EED1Ev+0x28>
        {
          _M_dispose();
   d4600:	6823      	ldr	r3, [r4, #0]
   d4602:	4620      	mov	r0, r4
   d4604:	689b      	ldr	r3, [r3, #8]
   d4606:	4798      	blx	r3
          if (--_M_weak_count == 0)
   d4608:	68a3      	ldr	r3, [r4, #8]
   d460a:	3b01      	subs	r3, #1
   d460c:	60a3      	str	r3, [r4, #8]
   d460e:	b91b      	cbnz	r3, d4618 <_ZNSt14__shared_countILN9__gnu_cxx12_Lock_policyE0EED1Ev+0x28>
            _M_destroy();
   d4610:	6823      	ldr	r3, [r4, #0]
   d4612:	4620      	mov	r0, r4
   d4614:	68db      	ldr	r3, [r3, #12]
   d4616:	4798      	blx	r3

      ~__shared_count() noexcept
      {
	if (_M_pi != nullptr)
	  _M_pi->_M_release();
      }
   d4618:	4628      	mov	r0, r5
   d461a:	bd38      	pop	{r3, r4, r5, pc}

000d461c <_Z11mqttFailure17MQTT5_REASON_CODE>:
BleScanResult scanResults[SCAN_RESULT_MAX];

//MQTT client used to publish MQTT messages
MQTT5 client;
//functions used to handle MQTT
void mqttFailure(MQTT5_REASON_CODE reason) {
   d461c:	b5f0      	push	{r4, r5, r6, r7, lr}
    // See codes here: https://docs.oasis-open.org/mqtt/mqtt/v5.0/os/mqtt-v5.0-os.html#_Toc3901031
    char *buf;
    size_t sz;
    sz = snprintf(NULL, 0, "Failure due to reason %d", (int) reason);
   d461e:	4d11      	ldr	r5, [pc, #68]	; (d4664 <_Z11mqttFailure17MQTT5_REASON_CODE+0x48>)
   d4620:	2100      	movs	r1, #0
BleScanResult scanResults[SCAN_RESULT_MAX];

//MQTT client used to publish MQTT messages
MQTT5 client;
//functions used to handle MQTT
void mqttFailure(MQTT5_REASON_CODE reason) {
   d4622:	b085      	sub	sp, #20
    // See codes here: https://docs.oasis-open.org/mqtt/mqtt/v5.0/os/mqtt-v5.0-os.html#_Toc3901031
    char *buf;
    size_t sz;
    sz = snprintf(NULL, 0, "Failure due to reason %d", (int) reason);
   d4624:	4603      	mov	r3, r0
   d4626:	462a      	mov	r2, r5
BleScanResult scanResults[SCAN_RESULT_MAX];

//MQTT client used to publish MQTT messages
MQTT5 client;
//functions used to handle MQTT
void mqttFailure(MQTT5_REASON_CODE reason) {
   d4628:	4606      	mov	r6, r0
    // See codes here: https://docs.oasis-open.org/mqtt/mqtt/v5.0/os/mqtt-v5.0-os.html#_Toc3901031
    char *buf;
    size_t sz;
    sz = snprintf(NULL, 0, "Failure due to reason %d", (int) reason);
   d462a:	4608      	mov	r0, r1
   d462c:	f001 ff1e 	bl	d646c <snprintf>
    buf = (char *)malloc(sz + 1); /* make sure you check for != NULL in real code */
   d4630:	1c44      	adds	r4, r0, #1
   d4632:	4620      	mov	r0, r4
   d4634:	f001 ff02 	bl	d643c <malloc>
    snprintf(buf, sz+1, "Failure due to reason %d", (int) reason);
   d4638:	4633      	mov	r3, r6
   d463a:	462a      	mov	r2, r5
   d463c:	4621      	mov	r1, r4
void mqttFailure(MQTT5_REASON_CODE reason) {
    // See codes here: https://docs.oasis-open.org/mqtt/mqtt/v5.0/os/mqtt-v5.0-os.html#_Toc3901031
    char *buf;
    size_t sz;
    sz = snprintf(NULL, 0, "Failure due to reason %d", (int) reason);
    buf = (char *)malloc(sz + 1); /* make sure you check for != NULL in real code */
   d463e:	4607      	mov	r7, r0
    snprintf(buf, sz+1, "Failure due to reason %d", (int) reason);
   d4640:	f001 ff14 	bl	d646c <snprintf>
   d4644:	4b08      	ldr	r3, [pc, #32]	; (d4668 <_Z11mqttFailure17MQTT5_REASON_CODE+0x4c>)
   d4646:	781b      	ldrb	r3, [r3, #0]
        return publish(eventName, eventData, DEFAULT_CLOUD_EVENT_TTL, flags1, flags2);
    }

    inline particle::Future<bool> publish(const char *eventName, const char *eventData, int ttl, PublishFlags flags1, PublishFlags flags2 = PublishFlags())
    {
        return publish_event(eventName, eventData, ttl, flags1 | flags2);
   d4648:	f88d 3000 	strb.w	r3, [sp]
   d464c:	2200      	movs	r2, #0
   d464e:	233c      	movs	r3, #60	; 0x3c
   d4650:	4639      	mov	r1, r7
   d4652:	a802      	add	r0, sp, #8
   d4654:	f004 fe86 	bl	d9364 <_ZN10CloudClass13publish_eventEPKcS1_iN8particle5FlagsI15PublishFlagTypehEE>
	: _M_ptr(__p), _M_refcount(__r._M_refcount) // never throws
	{ }

      __shared_ptr(const __shared_ptr&) noexcept = default;
      __shared_ptr& operator=(const __shared_ptr&) noexcept = default;
      ~__shared_ptr() = default;
   d4658:	a803      	add	r0, sp, #12
   d465a:	f7ff ffc9 	bl	d45f0 <_ZNSt14__shared_countILN9__gnu_cxx12_Lock_policyE0EED1Ev>
    
   Particle.publish(buf, PRIVATE);
}
   d465e:	b005      	add	sp, #20
   d4660:	bdf0      	pop	{r4, r5, r6, r7, pc}
   d4662:	bf00      	nop
   d4664:	000db0c1 	.word	0x000db0c1
   d4668:	2003d994 	.word	0x2003d994

000d466c <setup>:
    memcpy(content, payload, payloadLength);
    content[payloadLength] = 0;
    Log.info("Topic: %s. Message: %s", topic, payload);
}

void setup() {
   d466c:	b530      	push	{r4, r5, lr}

    //setup MQTT
    client.onConnectFailed(mqttFailure);
   d466e:	493c      	ldr	r1, [pc, #240]	; (d4760 <setup+0xf4>)
   d4670:	483c      	ldr	r0, [pc, #240]	; (d4764 <setup+0xf8>)
    client.onPublishFailed(mqttFailure);
    client.onSubscribeFailed(mqttFailure);
    client.onPacketReceived(mqttPacketReceived);

    if (client.connect("test.mosquitto.org", 1883, "client123") && client.awaitPackets()) {
   d4672:	4d3d      	ldr	r5, [pc, #244]	; (d4768 <setup+0xfc>)
    memcpy(content, payload, payloadLength);
    content[payloadLength] = 0;
    Log.info("Topic: %s. Message: %s", topic, payload);
}

void setup() {
   d4674:	b08b      	sub	sp, #44	; 0x2c

    //setup MQTT
    client.onConnectFailed(mqttFailure);
   d4676:	f001 fc65 	bl	d5f44 <_ZN5MQTT515onConnectFailedEPFv17MQTT5_REASON_CODEE>
    client.onPublishFailed(mqttFailure);
   d467a:	4939      	ldr	r1, [pc, #228]	; (d4760 <setup+0xf4>)
   d467c:	4839      	ldr	r0, [pc, #228]	; (d4764 <setup+0xf8>)
   d467e:	f001 fc63 	bl	d5f48 <_ZN5MQTT515onPublishFailedEPFv17MQTT5_REASON_CODEE>
    client.onSubscribeFailed(mqttFailure);
   d4682:	4937      	ldr	r1, [pc, #220]	; (d4760 <setup+0xf4>)
   d4684:	4837      	ldr	r0, [pc, #220]	; (d4764 <setup+0xf8>)
   d4686:	f001 fc61 	bl	d5f4c <_ZN5MQTT517onSubscribeFailedEPFv17MQTT5_REASON_CODEE>
    client.onPacketReceived(mqttPacketReceived);
   d468a:	4938      	ldr	r1, [pc, #224]	; (d476c <setup+0x100>)
   d468c:	4835      	ldr	r0, [pc, #212]	; (d4764 <setup+0xf8>)
   d468e:	f001 fc5f 	bl	d5f50 <_ZN5MQTT516onPacketReceivedEPFvPcPhtb9MQTT5_QOSbE>

    if (client.connect("test.mosquitto.org", 1883, "client123") && client.awaitPackets()) {
   d4692:	cd0f      	ldmia	r5!, {r0, r1, r2, r3}
   d4694:	466c      	mov	r4, sp
   d4696:	c40f      	stmia	r4!, {r0, r1, r2, r3}
   d4698:	e895 000f 	ldmia.w	r5, {r0, r1, r2, r3}
   d469c:	e884 000f 	stmia.w	r4, {r0, r1, r2, r3}
   d46a0:	4b33      	ldr	r3, [pc, #204]	; (d4770 <setup+0x104>)
   d46a2:	4934      	ldr	r1, [pc, #208]	; (d4774 <setup+0x108>)
   d46a4:	482f      	ldr	r0, [pc, #188]	; (d4764 <setup+0xf8>)
   d46a6:	4d34      	ldr	r5, [pc, #208]	; (d4778 <setup+0x10c>)
   d46a8:	f240 725b 	movw	r2, #1883	; 0x75b
   d46ac:	f001 fc24 	bl	d5ef8 <_ZN5MQTT57connectEPKctS1_19MQTT5ConnectOptions>
   d46b0:	b128      	cbz	r0, d46be <setup+0x52>
   d46b2:	f241 3188 	movw	r1, #5000	; 0x1388
   d46b6:	482b      	ldr	r0, [pc, #172]	; (d4764 <setup+0xf8>)
   d46b8:	f001 fa74 	bl	d5ba4 <_ZN5MQTT512awaitPacketsEm>
   d46bc:	b930      	cbnz	r0, d46cc <setup+0x60>
   d46be:	782b      	ldrb	r3, [r5, #0]
   d46c0:	f88d 3000 	strb.w	r3, [sp]
   d46c4:	2200      	movs	r2, #0
   d46c6:	233c      	movs	r3, #60	; 0x3c
   d46c8:	492c      	ldr	r1, [pc, #176]	; (d477c <setup+0x110>)
   d46ca:	e00d      	b.n	d46e8 <setup+0x7c>
       client.publish("elec4740g6/data", "Hello world");
   d46cc:	2400      	movs	r4, #0
   d46ce:	4623      	mov	r3, r4
   d46d0:	4a2b      	ldr	r2, [pc, #172]	; (d4780 <setup+0x114>)
   d46d2:	492c      	ldr	r1, [pc, #176]	; (d4784 <setup+0x118>)
   d46d4:	9400      	str	r4, [sp, #0]
   d46d6:	4823      	ldr	r0, [pc, #140]	; (d4764 <setup+0xf8>)
   d46d8:	f001 f8c0 	bl	d585c <_ZN5MQTT57publishEPKcS1_9MQTT5_QOSPt>
   d46dc:	782b      	ldrb	r3, [r5, #0]
   d46de:	492a      	ldr	r1, [pc, #168]	; (d4788 <setup+0x11c>)
   d46e0:	f88d 3000 	strb.w	r3, [sp]
   d46e4:	4622      	mov	r2, r4
   d46e6:	233c      	movs	r3, #60	; 0x3c
   d46e8:	a808      	add	r0, sp, #32
   d46ea:	f004 fe3b 	bl	d9364 <_ZN10CloudClass13publish_eventEPKcS1_iN8particle5FlagsI15PublishFlagTypehEE>
   d46ee:	a809      	add	r0, sp, #36	; 0x24
   d46f0:	f7ff ff7e 	bl	d45f0 <_ZNSt14__shared_countILN9__gnu_cxx12_Lock_policyE0EED1Ev>
    }
    else{
        Particle.publish("MQTT connection failure :(", PRIVATE);
    }

    const uint8_t val = 0x01;
   d46f4:	2201      	movs	r2, #1
    dct_write_app_data(&val, DCT_SETUP_DONE_OFFSET, 1);
   d46f6:	f641 71c6 	movw	r1, #8134	; 0x1fc6
   d46fa:	a808      	add	r0, sp, #32
    }
    else{
        Particle.publish("MQTT connection failure :(", PRIVATE);
    }

    const uint8_t val = 0x01;
   d46fc:	f88d 2020 	strb.w	r2, [sp, #32]
    dct_write_app_data(&val, DCT_SETUP_DONE_OFFSET, 1);
   d4700:	f001 fd98 	bl	d6234 <dct_write_app_data>
    (void)logHandler; // Does nothing, just to eliminate the unused variable warning

    BLE.on();
   d4704:	f002 fcec 	bl	d70e0 <_ZN8particle14BleLocalDevice11getInstanceEv>
   d4708:	f002 fd30 	bl	d716c <_ZNK8particle14BleLocalDevice2onEv>
    
    
    //map functions to be called whenever new data is received for a characteristic
    temperatureSensorCharacteristic.onDataReceived(onTemperatureReceived1, NULL);
   d470c:	2200      	movs	r2, #0
   d470e:	491f      	ldr	r1, [pc, #124]	; (d478c <setup+0x120>)
   d4710:	481f      	ldr	r0, [pc, #124]	; (d4790 <setup+0x124>)
   d4712:	f002 fc17 	bl	d6f44 <_ZN8particle17BleCharacteristic14onDataReceivedEPFvPKhjRKNS_13BlePeerDeviceEPvES6_>
    humiditySensorCharacteristic.onDataReceived(onHumidityReceived, NULL);
   d4716:	2200      	movs	r2, #0
   d4718:	491e      	ldr	r1, [pc, #120]	; (d4794 <setup+0x128>)
   d471a:	481f      	ldr	r0, [pc, #124]	; (d4798 <setup+0x12c>)
   d471c:	f002 fc12 	bl	d6f44 <_ZN8particle17BleCharacteristic14onDataReceivedEPFvPKhjRKNS_13BlePeerDeviceEPvES6_>
    lightSensorCharacteristic.onDataReceived(onLightReceived, NULL);
   d4720:	2200      	movs	r2, #0
   d4722:	491e      	ldr	r1, [pc, #120]	; (d479c <setup+0x130>)
   d4724:	481e      	ldr	r0, [pc, #120]	; (d47a0 <setup+0x134>)
   d4726:	f002 fc0d 	bl	d6f44 <_ZN8particle17BleCharacteristic14onDataReceivedEPFvPKhjRKNS_13BlePeerDeviceEPvES6_>
    moistureSensorCharacteristic.onDataReceived(onMoistureReceived, NULL);
   d472a:	2200      	movs	r2, #0
   d472c:	491d      	ldr	r1, [pc, #116]	; (d47a4 <setup+0x138>)
   d472e:	481e      	ldr	r0, [pc, #120]	; (d47a8 <setup+0x13c>)
   d4730:	f002 fc08 	bl	d6f44 <_ZN8particle17BleCharacteristic14onDataReceivedEPFvPKhjRKNS_13BlePeerDeviceEPvES6_>

    rainsteamSensorCharacteristic.onDataReceived(onRainsteamReceived2, NULL);
   d4734:	2200      	movs	r2, #0
   d4736:	491d      	ldr	r1, [pc, #116]	; (d47ac <setup+0x140>)
   d4738:	481d      	ldr	r0, [pc, #116]	; (d47b0 <setup+0x144>)
   d473a:	f002 fc03 	bl	d6f44 <_ZN8particle17BleCharacteristic14onDataReceivedEPFvPKhjRKNS_13BlePeerDeviceEPvES6_>
    liquidSensorCharacteristic.onDataReceived(onLightReceived2, NULL);
   d473e:	2200      	movs	r2, #0
   d4740:	491c      	ldr	r1, [pc, #112]	; (d47b4 <setup+0x148>)
   d4742:	481d      	ldr	r0, [pc, #116]	; (d47b8 <setup+0x14c>)
   d4744:	f002 fbfe 	bl	d6f44 <_ZN8particle17BleCharacteristic14onDataReceivedEPFvPKhjRKNS_13BlePeerDeviceEPvES6_>
    humanDetectorCharacteristic.onDataReceived(onHumanDetectorReceived, NULL);
   d4748:	2200      	movs	r2, #0
   d474a:	491c      	ldr	r1, [pc, #112]	; (d47bc <setup+0x150>)
   d474c:	481c      	ldr	r0, [pc, #112]	; (d47c0 <setup+0x154>)
   d474e:	f002 fbf9 	bl	d6f44 <_ZN8particle17BleCharacteristic14onDataReceivedEPFvPKhjRKNS_13BlePeerDeviceEPvES6_>
    solenoidVoltageCharacteristic.onDataReceived(onSolenoidReceived2, NULL);
   d4752:	2200      	movs	r2, #0
   d4754:	491b      	ldr	r1, [pc, #108]	; (d47c4 <setup+0x158>)
   d4756:	481c      	ldr	r0, [pc, #112]	; (d47c8 <setup+0x15c>)
   d4758:	f002 fbf4 	bl	d6f44 <_ZN8particle17BleCharacteristic14onDataReceivedEPFvPKhjRKNS_13BlePeerDeviceEPvES6_>

}
   d475c:	b00b      	add	sp, #44	; 0x2c
   d475e:	bd30      	pop	{r4, r5, pc}
   d4760:	000d461d 	.word	0x000d461d
   d4764:	2003d900 	.word	0x2003d900
   d4768:	000dac58 	.word	0x000dac58
   d476c:	000d4161 	.word	0x000d4161
   d4770:	000db0da 	.word	0x000db0da
   d4774:	000db0e4 	.word	0x000db0e4
   d4778:	2003d994 	.word	0x2003d994
   d477c:	000db0f7 	.word	0x000db0f7
   d4780:	000db112 	.word	0x000db112
   d4784:	000db06b 	.word	0x000db06b
   d4788:	000db11e 	.word	0x000db11e
   d478c:	000d4179 	.word	0x000d4179
   d4790:	2003d974 	.word	0x2003d974
   d4794:	000d419d 	.word	0x000d419d
   d4798:	2003e3a8 	.word	0x2003e3a8
   d479c:	000d41fd 	.word	0x000d41fd
   d47a0:	2003d8ec 	.word	0x2003d8ec
   d47a4:	000d41b5 	.word	0x000d41b5
   d47a8:	2003d97c 	.word	0x2003d97c
   d47ac:	000d4221 	.word	0x000d4221
   d47b0:	2003e378 	.word	0x2003e378
   d47b4:	000d4239 	.word	0x000d4239
   d47b8:	2003e3b0 	.word	0x2003e3b0
   d47bc:	000d4265 	.word	0x000d4265
   d47c0:	2003e370 	.word	0x2003e370
   d47c4:	000d41d9 	.word	0x000d41d9
   d47c8:	2003d96c 	.word	0x2003d96c

000d47cc <_ZN5spark6VectorINS_17LogCategoryFilterENS_16DefaultAllocatorEED1Ev>:
inline spark::Vector<T, AllocatorT>::Vector(Vector<T, AllocatorT>&& vector) : Vector() {
    swap(*this, vector);
}

template<typename T, typename AllocatorT>
inline spark::Vector<T, AllocatorT>::~Vector() {
   d47cc:	b570      	push	{r4, r5, r6, lr}
    destruct(data_, data_ + size_);
   d47ce:	6804      	ldr	r4, [r0, #0]
   d47d0:	6843      	ldr	r3, [r0, #4]
   d47d2:	2614      	movs	r6, #20
inline spark::Vector<T, AllocatorT>::Vector(Vector<T, AllocatorT>&& vector) : Vector() {
    swap(*this, vector);
}

template<typename T, typename AllocatorT>
inline spark::Vector<T, AllocatorT>::~Vector() {
   d47d4:	4605      	mov	r5, r0
    destruct(data_, data_ + size_);
   d47d6:	fb06 4603 	mla	r6, r6, r3, r4
            new(p) T(std::forward<ArgsT>(args)...);
        }
    }

    static void destruct(T* p, const T* end) {
        for (; p != end; ++p) {
   d47da:	42a6      	cmp	r6, r4
   d47dc:	d004      	beq.n	d47e8 <_ZN5spark6VectorINS_17LogCategoryFilterENS_16DefaultAllocatorEED1Ev+0x1c>
    static int nodeIndex(const Vector<Node> &nodes, const char *name, size_t size, bool &found);
};

} // namespace spark::detail

class LogCategoryFilter {
   d47de:	4620      	mov	r0, r4
   d47e0:	f001 fed4 	bl	d658c <_ZN6StringD1Ev>
   d47e4:	3414      	adds	r4, #20
   d47e6:	e7f8      	b.n	d47da <_ZN5spark6VectorINS_17LogCategoryFilterENS_16DefaultAllocatorEED1Ev+0xe>
inline void* spark::DefaultAllocator::realloc(void* ptr, size_t size) {
    return ::realloc(ptr, size);
}

inline void spark::DefaultAllocator::free(void* ptr) {
    ::free(ptr);
   d47e8:	6828      	ldr	r0, [r5, #0]
   d47ea:	f001 fe2f 	bl	d644c <free>

template<typename T, typename AllocatorT>
inline spark::Vector<T, AllocatorT>::~Vector() {
    destruct(data_, data_ + size_);
    AllocatorT::free(data_);
}
   d47ee:	4628      	mov	r0, r5
   d47f0:	bd70      	pop	{r4, r5, r6, pc}

000d47f2 <_ZN5spark6VectorINS_17LogCategoryFilterENS_16DefaultAllocatorEE4moveIS1_Li0EEEvPS1_S5_S5_>:
        ::memmove(dest, p, (end - p) * sizeof(T));
    }

    template<PARTICLE_VECTOR_ENABLE_IF_NOT_TRIVIALLY_COPYABLE(T)>
    static void move(T* dest, T* p, T* end) {
        if (dest > p && dest < end) {
   d47f2:	4288      	cmp	r0, r1
    static void move(T* dest, const T* p, const T* end) {
        ::memmove(dest, p, (end - p) * sizeof(T));
    }

    template<PARTICLE_VECTOR_ENABLE_IF_NOT_TRIVIALLY_COPYABLE(T)>
    static void move(T* dest, T* p, T* end) {
   d47f4:	b5f8      	push	{r3, r4, r5, r6, r7, lr}
   d47f6:	4606      	mov	r6, r0
   d47f8:	460c      	mov	r4, r1
   d47fa:	4615      	mov	r5, r2
        if (dest > p && dest < end) {
   d47fc:	d916      	bls.n	d482c <_ZN5spark6VectorINS_17LogCategoryFilterENS_16DefaultAllocatorEE4moveIS1_Li0EEEvPS1_S5_S5_+0x3a>
   d47fe:	4290      	cmp	r0, r2
   d4800:	d215      	bcs.n	d482e <_ZN5spark6VectorINS_17LogCategoryFilterENS_16DefaultAllocatorEE4moveIS1_Li0EEEvPS1_S5_S5_+0x3c>
            // Move elements in reverse order
            --p;
            --end;
   d4802:	f1a2 0514 	sub.w	r5, r2, #20
            dest += end - p - 1;
   d4806:	1a6c      	subs	r4, r5, r1
   d4808:	f1a1 0714 	sub.w	r7, r1, #20
   d480c:	4404      	add	r4, r0
            for (; end != p; --end, --dest) {
   d480e:	42af      	cmp	r7, r5
   d4810:	d01c      	beq.n	d484c <_ZN5spark6VectorINS_17LogCategoryFilterENS_16DefaultAllocatorEE4moveIS1_Li0EEEvPS1_S5_S5_+0x5a>
                new(dest) T(std::move(*end));
   d4812:	b12c      	cbz	r4, d4820 <_ZN5spark6VectorINS_17LogCategoryFilterENS_16DefaultAllocatorEE4moveIS1_Li0EEEvPS1_S5_S5_+0x2e>
   d4814:	4629      	mov	r1, r5
   d4816:	4620      	mov	r0, r4
   d4818:	f001 fea8 	bl	d656c <_ZN6StringC1EOS_>
   d481c:	7c2b      	ldrb	r3, [r5, #16]
   d481e:	7423      	strb	r3, [r4, #16]
   d4820:	4628      	mov	r0, r5
   d4822:	f001 feb3 	bl	d658c <_ZN6StringD1Ev>
        if (dest > p && dest < end) {
            // Move elements in reverse order
            --p;
            --end;
            dest += end - p - 1;
            for (; end != p; --end, --dest) {
   d4826:	3d14      	subs	r5, #20
   d4828:	3c14      	subs	r4, #20
   d482a:	e7f0      	b.n	d480e <_ZN5spark6VectorINS_17LogCategoryFilterENS_16DefaultAllocatorEE4moveIS1_Li0EEEvPS1_S5_S5_+0x1c>
                new(dest) T(std::move(*end));
                end->~T();
            }
        } else if (dest != p) {
   d482c:	d00e      	beq.n	d484c <_ZN5spark6VectorINS_17LogCategoryFilterENS_16DefaultAllocatorEE4moveIS1_Li0EEEvPS1_S5_S5_+0x5a>
            for (; p != end; ++p, ++dest) {
   d482e:	42ac      	cmp	r4, r5
   d4830:	d00c      	beq.n	d484c <_ZN5spark6VectorINS_17LogCategoryFilterENS_16DefaultAllocatorEE4moveIS1_Li0EEEvPS1_S5_S5_+0x5a>
                new(dest) T(std::move(*p));
   d4832:	b12e      	cbz	r6, d4840 <_ZN5spark6VectorINS_17LogCategoryFilterENS_16DefaultAllocatorEE4moveIS1_Li0EEEvPS1_S5_S5_+0x4e>
   d4834:	4621      	mov	r1, r4
   d4836:	4630      	mov	r0, r6
   d4838:	f001 fe98 	bl	d656c <_ZN6StringC1EOS_>
   d483c:	7c23      	ldrb	r3, [r4, #16]
   d483e:	7433      	strb	r3, [r6, #16]
   d4840:	4620      	mov	r0, r4
   d4842:	f001 fea3 	bl	d658c <_ZN6StringD1Ev>
            for (; end != p; --end, --dest) {
                new(dest) T(std::move(*end));
                end->~T();
            }
        } else if (dest != p) {
            for (; p != end; ++p, ++dest) {
   d4846:	3414      	adds	r4, #20
   d4848:	3614      	adds	r6, #20
   d484a:	e7f0      	b.n	d482e <_ZN5spark6VectorINS_17LogCategoryFilterENS_16DefaultAllocatorEE4moveIS1_Li0EEEvPS1_S5_S5_+0x3c>
   d484c:	bdf8      	pop	{r3, r4, r5, r6, r7, pc}

000d484e <_ZN5spark6VectorINS_17LogCategoryFilterENS_16DefaultAllocatorEEC1ERKS3_>:
        size_ = n;
    }
}

template<typename T, typename AllocatorT>
inline spark::Vector<T, AllocatorT>::Vector(const Vector<T, AllocatorT>& vector) : Vector() {
   d484e:	e92d 41f0 	stmdb	sp!, {r4, r5, r6, r7, r8, lr}
// spark::Vector
template<typename T, typename AllocatorT>
inline spark::Vector<T, AllocatorT>::Vector() :
        data_(nullptr),
        size_(0),
        capacity_(0) {
   d4852:	2300      	movs	r3, #0
   d4854:	6003      	str	r3, [r0, #0]
   d4856:	6043      	str	r3, [r0, #4]
   d4858:	6083      	str	r3, [r0, #8]
    }
}

template<typename T, typename AllocatorT>
inline spark::Vector<T, AllocatorT>::Vector(const Vector<T, AllocatorT>& vector) : Vector() {
    if (vector.size_ > 0 && realloc(vector.size_)) {
   d485a:	684e      	ldr	r6, [r1, #4]
   d485c:	429e      	cmp	r6, r3
        size_ = n;
    }
}

template<typename T, typename AllocatorT>
inline spark::Vector<T, AllocatorT>::Vector(const Vector<T, AllocatorT>& vector) : Vector() {
   d485e:	4604      	mov	r4, r0
   d4860:	460f      	mov	r7, r1
    if (vector.size_ > 0 && realloc(vector.size_)) {
   d4862:	dd24      	ble.n	d48ae <_ZN5spark6VectorINS_17LogCategoryFilterENS_16DefaultAllocatorEEC1ERKS3_+0x60>

} // particle

// spark::DefaultAllocator
inline void* spark::DefaultAllocator::malloc(size_t size) {
    return ::malloc(size);
   d4864:	f04f 0814 	mov.w	r8, #20
   d4868:	fb08 f006 	mul.w	r0, r8, r6
   d486c:	f001 fde6 	bl	d643c <malloc>
    template<PARTICLE_VECTOR_ENABLE_IF_NOT_TRIVIALLY_COPYABLE(T)>
    bool realloc(int n) {
        T* d = nullptr;
        if (n > 0) {
            d = (T*)AllocatorT::malloc(n * sizeof(T));
            if (!d) {
   d4870:	4605      	mov	r5, r0
   d4872:	b1e0      	cbz	r0, d48ae <_ZN5spark6VectorINS_17LogCategoryFilterENS_16DefaultAllocatorEEC1ERKS3_+0x60>
                return false;
            }
            move(d, data_, data_ + size_);
   d4874:	e894 0006 	ldmia.w	r4, {r1, r2}
   d4878:	fb08 1202 	mla	r2, r8, r2, r1
   d487c:	f7ff ffb9 	bl	d47f2 <_ZN5spark6VectorINS_17LogCategoryFilterENS_16DefaultAllocatorEE4moveIS1_Li0EEEvPS1_S5_S5_>
inline void* spark::DefaultAllocator::realloc(void* ptr, size_t size) {
    return ::realloc(ptr, size);
}

inline void spark::DefaultAllocator::free(void* ptr) {
    ::free(ptr);
   d4880:	6820      	ldr	r0, [r4, #0]
   d4882:	f001 fde3 	bl	d644c <free>
                return false;
            }
            move(d, data_, data_ + size_);
        }
        AllocatorT::free(data_);
        data_ = d;
   d4886:	6025      	str	r5, [r4, #0]
        capacity_ = n;
   d4888:	60a6      	str	r6, [r4, #8]
}

template<typename T, typename AllocatorT>
inline spark::Vector<T, AllocatorT>::Vector(const Vector<T, AllocatorT>& vector) : Vector() {
    if (vector.size_ > 0 && realloc(vector.size_)) {
        copy(data_, vector.data_, vector.data_ + vector.size_);
   d488a:	683e      	ldr	r6, [r7, #0]
   d488c:	687b      	ldr	r3, [r7, #4]
   d488e:	fb08 6803 	mla	r8, r8, r3, r6
        }
    }

    template<typename IteratorT>
    static void copy(IteratorT dest, IteratorT it, IteratorT end) {
        for (; it != end; ++it, ++dest) {
   d4892:	4546      	cmp	r6, r8
   d4894:	d009      	beq.n	d48aa <_ZN5spark6VectorINS_17LogCategoryFilterENS_16DefaultAllocatorEEC1ERKS3_+0x5c>
            new(dest) T(*it);
   d4896:	b12d      	cbz	r5, d48a4 <_ZN5spark6VectorINS_17LogCategoryFilterENS_16DefaultAllocatorEEC1ERKS3_+0x56>
   d4898:	4631      	mov	r1, r6
   d489a:	4628      	mov	r0, r5
   d489c:	f001 fedf 	bl	d665e <_ZN6StringC1ERKS_>
   d48a0:	7c33      	ldrb	r3, [r6, #16]
   d48a2:	742b      	strb	r3, [r5, #16]
        }
    }

    template<typename IteratorT>
    static void copy(IteratorT dest, IteratorT it, IteratorT end) {
        for (; it != end; ++it, ++dest) {
   d48a4:	3614      	adds	r6, #20
   d48a6:	3514      	adds	r5, #20
   d48a8:	e7f3      	b.n	d4892 <_ZN5spark6VectorINS_17LogCategoryFilterENS_16DefaultAllocatorEEC1ERKS3_+0x44>

template<typename T, typename AllocatorT>
inline spark::Vector<T, AllocatorT>::Vector(const Vector<T, AllocatorT>& vector) : Vector() {
    if (vector.size_ > 0 && realloc(vector.size_)) {
        copy(data_, vector.data_, vector.data_ + vector.size_);
        size_ = vector.size_;
   d48aa:	687b      	ldr	r3, [r7, #4]
   d48ac:	6063      	str	r3, [r4, #4]
    }
}
   d48ae:	4620      	mov	r0, r4
   d48b0:	e8bd 81f0 	ldmia.w	sp!, {r4, r5, r6, r7, r8, pc}

000d48b4 <_GLOBAL__sub_I_SystemMode>:
    }
    else{
        Log.info("Sensor 2 - Invalid human detector message. Expected 0 or 1, received %u", humanSeen);
    }
    // Log.info("Transmission delay: %llu seconds", calculateTransmissionDelay(sentTime));
   d48b4:	b5f0      	push	{r4, r5, r6, r7, lr}
} // namespace particle

// particle::Flag<TagT, ValueT>
template<typename TagT, typename ValueT>
inline particle::Flag<TagT, ValueT>::Flag(ValueT val) :
        val_(val) {
   d48b6:	4b64      	ldr	r3, [pc, #400]	; (d4a48 <_GLOBAL__sub_I_SystemMode+0x194>)

class SystemSleepResult {
public:
    SystemSleepResult()
            : wakeupSource_(nullptr),
              error_(SYSTEM_ERROR_NONE) {
   d48b8:	4d64      	ldr	r5, [pc, #400]	; (d4a4c <_GLOBAL__sub_I_SystemMode+0x198>)
   d48ba:	b08d      	sub	sp, #52	; 0x34
   d48bc:	2601      	movs	r6, #1
   d48be:	2400      	movs	r4, #0
   d48c0:	701e      	strb	r6, [r3, #0]

inline void pinSetFast(pin_t _pin) __attribute__((always_inline));
inline void pinResetFast(pin_t _pin) __attribute__((always_inline));
inline int32_t pinReadFast(pin_t _pin) __attribute__((always_inline));

static Hal_Pin_Info* PIN_MAP = HAL_Pin_Map();
   d48c2:	f001 fb67 	bl	d5f94 <HAL_Pin_Map>
    WAKEUP_REASON_PIN_OR_RTC = 3,
    WAKEUP_REASON_UNKNOWN = 4
};

struct SleepResult {
    SleepResult() {}
   d48c6:	f64f 73ff 	movw	r3, #65535	; 0xffff
   d48ca:	816b      	strh	r3, [r5, #10]

class SystemClass {
public:

    SystemClass(System_Mode_TypeDef mode = DEFAULT) {
        set_system_mode(mode);
   d48cc:	4630      	mov	r0, r6

class SystemSleepResult {
public:
    SystemSleepResult()
            : wakeupSource_(nullptr),
              error_(SYSTEM_ERROR_NONE) {
   d48ce:	602c      	str	r4, [r5, #0]
   d48d0:	80ac      	strh	r4, [r5, #4]
    WAKEUP_REASON_PIN_OR_RTC = 3,
    WAKEUP_REASON_UNKNOWN = 4
};

struct SleepResult {
    SleepResult() {}
   d48d2:	71ac      	strb	r4, [r5, #6]
   d48d4:	812c      	strh	r4, [r5, #8]

class SystemClass {
public:

    SystemClass(System_Mode_TypeDef mode = DEFAULT) {
        set_system_mode(mode);
   d48d6:	f001 fd1d 	bl	d6314 <set_system_mode>
 * Date: 07/05/2020
 */

// This example does not require the cloud so you can run it in manual mode or
// normal cloud-connected mode
SYSTEM_MODE(AUTOMATIC);
   d48da:	4a5d      	ldr	r2, [pc, #372]	; (d4a50 <_GLOBAL__sub_I_SystemMode+0x19c>)
   d48dc:	495d      	ldr	r1, [pc, #372]	; (d4a54 <_GLOBAL__sub_I_SystemMode+0x1a0>)
   d48de:	4628      	mov	r0, r5
   d48e0:	f005 fea9 	bl	da636 <__aeabi_atexit>
// spark::Vector
template<typename T, typename AllocatorT>
inline spark::Vector<T, AllocatorT>::Vector() :
        data_(nullptr),
        size_(0),
        capacity_(0) {
   d48e4:	9400      	str	r4, [sp, #0]
   d48e6:	9401      	str	r4, [sp, #4]
   d48e8:	9402      	str	r4, [sp, #8]
namespace spark {

class SerialLogHandler: public StreamLogHandler {
public:
    explicit SerialLogHandler(LogLevel level = LOG_LEVEL_INFO, LogCategoryFilters filters = {}) :
            StreamLogHandler(Serial, level, filters) {
   d48ea:	f004 ffb5 	bl	d9858 <_Z16_fetch_usbserialv>
   d48ee:	4669      	mov	r1, sp
   d48f0:	4607      	mov	r7, r0
   d48f2:	a803      	add	r0, sp, #12
inline spark::LogHandler::LogHandler(LogLevel level) :
        filter_(level) {
}

inline spark::LogHandler::LogHandler(LogLevel level, LogCategoryFilters filters) :
        filter_(level, filters) {
   d48f4:	4d58      	ldr	r5, [pc, #352]	; (d4a58 <_GLOBAL__sub_I_SystemMode+0x1a4>)
   d48f6:	f7ff ffaa 	bl	d484e <_ZN5spark6VectorINS_17LogCategoryFilterENS_16DefaultAllocatorEEC1ERKS3_>
}

// spark::StreamLogHandler
inline spark::StreamLogHandler::StreamLogHandler(Print &stream, LogLevel level, LogCategoryFilters filters) :
        LogHandler(level, filters),
        stream_(&stream) {
   d48fa:	a903      	add	r1, sp, #12
   d48fc:	a806      	add	r0, sp, #24
   d48fe:	f7ff ffa6 	bl	d484e <_ZN5spark6VectorINS_17LogCategoryFilterENS_16DefaultAllocatorEEC1ERKS3_>
inline spark::LogHandler::LogHandler(LogLevel level) :
        filter_(level) {
}

inline spark::LogHandler::LogHandler(LogLevel level, LogCategoryFilters filters) :
        filter_(level, filters) {
   d4902:	4b56      	ldr	r3, [pc, #344]	; (d4a5c <_GLOBAL__sub_I_SystemMode+0x1a8>)
   d4904:	602b      	str	r3, [r5, #0]
   d4906:	a906      	add	r1, sp, #24
   d4908:	a809      	add	r0, sp, #36	; 0x24
   d490a:	f7ff ffa0 	bl	d484e <_ZN5spark6VectorINS_17LogCategoryFilterENS_16DefaultAllocatorEEC1ERKS3_>
   d490e:	aa09      	add	r2, sp, #36	; 0x24
   d4910:	4631      	mov	r1, r6
   d4912:	1d28      	adds	r0, r5, #4
   d4914:	f003 ffd1 	bl	d88ba <_ZN5spark6detail9LogFilterC1E8LogLevelNS_6VectorINS_17LogCategoryFilterENS_16DefaultAllocatorEEE>
   d4918:	a809      	add	r0, sp, #36	; 0x24
   d491a:	f7ff ff57 	bl	d47cc <_ZN5spark6VectorINS_17LogCategoryFilterENS_16DefaultAllocatorEED1Ev>
}

// spark::StreamLogHandler
inline spark::StreamLogHandler::StreamLogHandler(Print &stream, LogLevel level, LogCategoryFilters filters) :
        LogHandler(level, filters),
        stream_(&stream) {
   d491e:	a806      	add	r0, sp, #24
   d4920:	f7ff ff54 	bl	d47cc <_ZN5spark6VectorINS_17LogCategoryFilterENS_16DefaultAllocatorEED1Ev>
   d4924:	4b4e      	ldr	r3, [pc, #312]	; (d4a60 <_GLOBAL__sub_I_SystemMode+0x1ac>)
   d4926:	602b      	str	r3, [r5, #0]
   d4928:	622f      	str	r7, [r5, #32]
   d492a:	a803      	add	r0, sp, #12
   d492c:	f7ff ff4e 	bl	d47cc <_ZN5spark6VectorINS_17LogCategoryFilterENS_16DefaultAllocatorEED1Ev>
   d4930:	4b4c      	ldr	r3, [pc, #304]	; (d4a64 <_GLOBAL__sub_I_SystemMode+0x1b0>)
   d4932:	602b      	str	r3, [r5, #0]
        Serial.begin();
   d4934:	f004 ff90 	bl	d9858 <_Z16_fetch_usbserialv>
   d4938:	f44f 5116 	mov.w	r1, #9600	; 0x2580
   d493c:	f004 ff7c 	bl	d9838 <_ZN9USBSerial5beginEl>
        LogManager::instance()->addHandler(this);
   d4940:	f003 fc64 	bl	d820c <_ZN5spark10LogManager8instanceEv>
   d4944:	4629      	mov	r1, r5
   d4946:	f003 ff4b 	bl	d87e0 <_ZN5spark10LogManager10addHandlerEPNS_10LogHandlerE>

SerialLogHandler logHandler(LOG_LEVEL_TRACE);
   d494a:	4668      	mov	r0, sp
   d494c:	f7ff ff3e 	bl	d47cc <_ZN5spark6VectorINS_17LogCategoryFilterENS_16DefaultAllocatorEED1Ev>
   d4950:	4a3f      	ldr	r2, [pc, #252]	; (d4a50 <_GLOBAL__sub_I_SystemMode+0x19c>)
   d4952:	4945      	ldr	r1, [pc, #276]	; (d4a68 <_GLOBAL__sub_I_SystemMode+0x1b4>)
   d4954:	4628      	mov	r0, r5
   d4956:	f005 fe6e 	bl	da636 <__aeabi_atexit>
//true if the difference between the last two distance readings was more than 1cm
bool moving = false;

/* Bluetooth variables */
//bluetooth devices we want to connect to and their service ids
BlePeerDevice sensorNode1;
   d495a:	4844      	ldr	r0, [pc, #272]	; (d4a6c <_GLOBAL__sub_I_SystemMode+0x1b8>)
private:
    std::shared_ptr<BleServiceImpl> impl_;
};


class BleScanResult {
   d495c:	4d44      	ldr	r5, [pc, #272]	; (d4a70 <_GLOBAL__sub_I_SystemMode+0x1bc>)
   d495e:	f002 fcbf 	bl	d72e0 <_ZN8particle13BlePeerDeviceC1Ev>
   d4962:	4a3b      	ldr	r2, [pc, #236]	; (d4a50 <_GLOBAL__sub_I_SystemMode+0x19c>)
   d4964:	4943      	ldr	r1, [pc, #268]	; (d4a74 <_GLOBAL__sub_I_SystemMode+0x1c0>)
   d4966:	4841      	ldr	r0, [pc, #260]	; (d4a6c <_GLOBAL__sub_I_SystemMode+0x1b8>)
   d4968:	f005 fe65 	bl	da636 <__aeabi_atexit>
BlePeerDevice sensorNode2;
   d496c:	4842      	ldr	r0, [pc, #264]	; (d4a78 <_GLOBAL__sub_I_SystemMode+0x1c4>)
   d496e:	f002 fcb7 	bl	d72e0 <_ZN8particle13BlePeerDeviceC1Ev>
   d4972:	4a37      	ldr	r2, [pc, #220]	; (d4a50 <_GLOBAL__sub_I_SystemMode+0x19c>)
   d4974:	493f      	ldr	r1, [pc, #252]	; (d4a74 <_GLOBAL__sub_I_SystemMode+0x1c0>)
   d4976:	4840      	ldr	r0, [pc, #256]	; (d4a78 <_GLOBAL__sub_I_SystemMode+0x1c4>)
   d4978:	f005 fe5d 	bl	da636 <__aeabi_atexit>
BleUuid sensorNode1ServiceUuid("754ebf5e-ce31-4300-9fd5-a8fb4ee4a811");
   d497c:	493f      	ldr	r1, [pc, #252]	; (d4a7c <_GLOBAL__sub_I_SystemMode+0x1c8>)
   d497e:	4840      	ldr	r0, [pc, #256]	; (d4a80 <_GLOBAL__sub_I_SystemMode+0x1cc>)
   d4980:	f002 f8f6 	bl	d6b70 <_ZN8particle7BleUuidC1EPKc>
BleUuid sensorNode2ServiceUuid("97728ad9-a998-4629-b855-ee2658ca01f7");
   d4984:	493f      	ldr	r1, [pc, #252]	; (d4a84 <_GLOBAL__sub_I_SystemMode+0x1d0>)
   d4986:	4840      	ldr	r0, [pc, #256]	; (d4a88 <_GLOBAL__sub_I_SystemMode+0x1d4>)
   d4988:	f002 f8f2 	bl	d6b70 <_ZN8particle7BleUuidC1EPKc>

//characteristics we want to track
//for sensor node 1
BleCharacteristic temperatureSensorCharacteristic;
   d498c:	483f      	ldr	r0, [pc, #252]	; (d4a8c <_GLOBAL__sub_I_SystemMode+0x1d8>)
   d498e:	f003 f913 	bl	d7bb8 <_ZN8particle17BleCharacteristicC1Ev>
   d4992:	4a2f      	ldr	r2, [pc, #188]	; (d4a50 <_GLOBAL__sub_I_SystemMode+0x19c>)
   d4994:	493e      	ldr	r1, [pc, #248]	; (d4a90 <_GLOBAL__sub_I_SystemMode+0x1dc>)
   d4996:	483d      	ldr	r0, [pc, #244]	; (d4a8c <_GLOBAL__sub_I_SystemMode+0x1d8>)
   d4998:	f005 fe4d 	bl	da636 <__aeabi_atexit>
BleCharacteristic humiditySensorCharacteristic;
   d499c:	483d      	ldr	r0, [pc, #244]	; (d4a94 <_GLOBAL__sub_I_SystemMode+0x1e0>)
   d499e:	f003 f90b 	bl	d7bb8 <_ZN8particle17BleCharacteristicC1Ev>
   d49a2:	4a2b      	ldr	r2, [pc, #172]	; (d4a50 <_GLOBAL__sub_I_SystemMode+0x19c>)
   d49a4:	493a      	ldr	r1, [pc, #232]	; (d4a90 <_GLOBAL__sub_I_SystemMode+0x1dc>)
   d49a6:	483b      	ldr	r0, [pc, #236]	; (d4a94 <_GLOBAL__sub_I_SystemMode+0x1e0>)
   d49a8:	f005 fe45 	bl	da636 <__aeabi_atexit>
BleCharacteristic lightSensorCharacteristic;
   d49ac:	483a      	ldr	r0, [pc, #232]	; (d4a98 <_GLOBAL__sub_I_SystemMode+0x1e4>)
   d49ae:	f003 f903 	bl	d7bb8 <_ZN8particle17BleCharacteristicC1Ev>
   d49b2:	4a27      	ldr	r2, [pc, #156]	; (d4a50 <_GLOBAL__sub_I_SystemMode+0x19c>)
   d49b4:	4936      	ldr	r1, [pc, #216]	; (d4a90 <_GLOBAL__sub_I_SystemMode+0x1dc>)
   d49b6:	4838      	ldr	r0, [pc, #224]	; (d4a98 <_GLOBAL__sub_I_SystemMode+0x1e4>)
   d49b8:	f005 fe3d 	bl	da636 <__aeabi_atexit>
BleCharacteristic moistureSensorCharacteristic;
   d49bc:	4837      	ldr	r0, [pc, #220]	; (d4a9c <_GLOBAL__sub_I_SystemMode+0x1e8>)
   d49be:	f003 f8fb 	bl	d7bb8 <_ZN8particle17BleCharacteristicC1Ev>
   d49c2:	4a23      	ldr	r2, [pc, #140]	; (d4a50 <_GLOBAL__sub_I_SystemMode+0x19c>)
   d49c4:	4932      	ldr	r1, [pc, #200]	; (d4a90 <_GLOBAL__sub_I_SystemMode+0x1dc>)
   d49c6:	4835      	ldr	r0, [pc, #212]	; (d4a9c <_GLOBAL__sub_I_SystemMode+0x1e8>)
   d49c8:	f005 fe35 	bl	da636 <__aeabi_atexit>

//for sensor node 2
BleCharacteristic rainsteamSensorCharacteristic;
   d49cc:	4834      	ldr	r0, [pc, #208]	; (d4aa0 <_GLOBAL__sub_I_SystemMode+0x1ec>)
   d49ce:	f003 f8f3 	bl	d7bb8 <_ZN8particle17BleCharacteristicC1Ev>
   d49d2:	4a1f      	ldr	r2, [pc, #124]	; (d4a50 <_GLOBAL__sub_I_SystemMode+0x19c>)
   d49d4:	492e      	ldr	r1, [pc, #184]	; (d4a90 <_GLOBAL__sub_I_SystemMode+0x1dc>)
   d49d6:	4832      	ldr	r0, [pc, #200]	; (d4aa0 <_GLOBAL__sub_I_SystemMode+0x1ec>)
   d49d8:	f005 fe2d 	bl	da636 <__aeabi_atexit>
BleCharacteristic liquidSensorCharacteristic;
   d49dc:	4831      	ldr	r0, [pc, #196]	; (d4aa4 <_GLOBAL__sub_I_SystemMode+0x1f0>)
   d49de:	f003 f8eb 	bl	d7bb8 <_ZN8particle17BleCharacteristicC1Ev>
   d49e2:	4a1b      	ldr	r2, [pc, #108]	; (d4a50 <_GLOBAL__sub_I_SystemMode+0x19c>)
   d49e4:	492a      	ldr	r1, [pc, #168]	; (d4a90 <_GLOBAL__sub_I_SystemMode+0x1dc>)
   d49e6:	482f      	ldr	r0, [pc, #188]	; (d4aa4 <_GLOBAL__sub_I_SystemMode+0x1f0>)
   d49e8:	f005 fe25 	bl	da636 <__aeabi_atexit>
BleCharacteristic humanDetectorCharacteristic;
   d49ec:	482e      	ldr	r0, [pc, #184]	; (d4aa8 <_GLOBAL__sub_I_SystemMode+0x1f4>)
   d49ee:	f003 f8e3 	bl	d7bb8 <_ZN8particle17BleCharacteristicC1Ev>
   d49f2:	4a17      	ldr	r2, [pc, #92]	; (d4a50 <_GLOBAL__sub_I_SystemMode+0x19c>)
   d49f4:	4926      	ldr	r1, [pc, #152]	; (d4a90 <_GLOBAL__sub_I_SystemMode+0x1dc>)
   d49f6:	482c      	ldr	r0, [pc, #176]	; (d4aa8 <_GLOBAL__sub_I_SystemMode+0x1f4>)
   d49f8:	f005 fe1d 	bl	da636 <__aeabi_atexit>
BleCharacteristic solenoidVoltageCharacteristic;
   d49fc:	482b      	ldr	r0, [pc, #172]	; (d4aac <_GLOBAL__sub_I_SystemMode+0x1f8>)
   d49fe:	f003 f8db 	bl	d7bb8 <_ZN8particle17BleCharacteristicC1Ev>
   d4a02:	4a13      	ldr	r2, [pc, #76]	; (d4a50 <_GLOBAL__sub_I_SystemMode+0x19c>)
   d4a04:	4922      	ldr	r1, [pc, #136]	; (d4a90 <_GLOBAL__sub_I_SystemMode+0x1dc>)
   d4a06:	4829      	ldr	r0, [pc, #164]	; (d4aac <_GLOBAL__sub_I_SystemMode+0x1f8>)
   d4a08:	f005 fe15 	bl	da636 <__aeabi_atexit>
bool isWatering = false;    //Is the solenoid active or not?


// void onDataReceived(const uint8_t* data, size_t len, const BlePeerDevice& peer, void* context);
const size_t SCAN_RESULT_MAX = 30;
BleScanResult scanResults[SCAN_RESULT_MAX];
   d4a0c:	f640 16d8 	movw	r6, #2520	; 0x9d8
   d4a10:	1928      	adds	r0, r5, r4
   d4a12:	f001 ff17 	bl	d6844 <_ZN8particle10BleAddressC1Ev>
   d4a16:	f104 0008 	add.w	r0, r4, #8
   d4a1a:	4428      	add	r0, r5
   d4a1c:	f002 f9a1 	bl	d6d62 <_ZN8particle18BleAdvertisingDataC1Ev>
   d4a20:	f104 002c 	add.w	r0, r4, #44	; 0x2c
   d4a24:	4428      	add	r0, r5
   d4a26:	3454      	adds	r4, #84	; 0x54
   d4a28:	f002 f99b 	bl	d6d62 <_ZN8particle18BleAdvertisingDataC1Ev>
   d4a2c:	42b4      	cmp	r4, r6
   d4a2e:	d1ef      	bne.n	d4a10 <_GLOBAL__sub_I_SystemMode+0x15c>

//MQTT client used to publish MQTT messages
MQTT5 client;
   d4a30:	f44f 7180 	mov.w	r1, #256	; 0x100
   d4a34:	481e      	ldr	r0, [pc, #120]	; (d4ab0 <_GLOBAL__sub_I_SystemMode+0x1fc>)
   d4a36:	f000 f877 	bl	d4b28 <_ZN5MQTT5C1Et>
   d4a3a:	4a05      	ldr	r2, [pc, #20]	; (d4a50 <_GLOBAL__sub_I_SystemMode+0x19c>)
   d4a3c:	491d      	ldr	r1, [pc, #116]	; (d4ab4 <_GLOBAL__sub_I_SystemMode+0x200>)
   d4a3e:	481c      	ldr	r0, [pc, #112]	; (d4ab0 <_GLOBAL__sub_I_SystemMode+0x1fc>)
   d4a40:	f005 fdf9 	bl	da636 <__aeabi_atexit>
    }
    else{
        Log.info("Sensor 2 - Invalid human detector message. Expected 0 or 1, received %u", humanSeen);
    }
    // Log.info("Transmission delay: %llu seconds", calculateTransmissionDelay(sentTime));
   d4a44:	b00d      	add	sp, #52	; 0x34
   d4a46:	bdf0      	pop	{r4, r5, r6, r7, pc}
   d4a48:	2003d994 	.word	0x2003d994
   d4a4c:	2003d8f4 	.word	0x2003d8f4
   d4a50:	2003d8d4 	.word	0x2003d8d4
   d4a54:	000d40d7 	.word	0x000d40d7
   d4a58:	2003e380 	.word	0x2003e380
   d4a5c:	000dac30 	.word	0x000dac30
   d4a60:	000dbd28 	.word	0x000dbd28
   d4a64:	000dac48 	.word	0x000dac48
   d4a68:	000d40e9 	.word	0x000d40e9
   d4a6c:	2003d984 	.word	0x2003d984
   d4a70:	2003d998 	.word	0x2003d998
   d4a74:	000d722d 	.word	0x000d722d
   d4a78:	2003d98c 	.word	0x2003d98c
   d4a7c:	000db13c 	.word	0x000db13c
   d4a80:	2003d954 	.word	0x2003d954
   d4a84:	000db161 	.word	0x000db161
   d4a88:	2003d8d8 	.word	0x2003d8d8
   d4a8c:	2003d974 	.word	0x2003d974
   d4a90:	000d721f 	.word	0x000d721f
   d4a94:	2003e3a8 	.word	0x2003e3a8
   d4a98:	2003d8ec 	.word	0x2003d8ec
   d4a9c:	2003d97c 	.word	0x2003d97c
   d4aa0:	2003e378 	.word	0x2003e378
   d4aa4:	2003e3b0 	.word	0x2003e3b0
   d4aa8:	2003e370 	.word	0x2003e370
   d4aac:	2003d96c 	.word	0x2003d96c
   d4ab0:	2003d900 	.word	0x2003d900
   d4ab4:	000d5f55 	.word	0x000d5f55

000d4ab8 <_GLOBAL__sub_I__ZN13LiquidCrystalC2Ehhhhhhhhhhh>:
   d4ab8:	f001 ba6c 	b.w	d5f94 <HAL_Pin_Map>

000d4abc <_ZN5MQTT510connectingEv.part.0>:
    maxPacketSize = maxp;
    socket = new TCPClient();
    buffer = new uint8_t[maxPacketSize];
}

bool MQTT5::connected() {
   d4abc:	b508      	push	{r3, lr}
    return !connecting() && socket->connected();
   d4abe:	6840      	ldr	r0, [r0, #4]
   d4ac0:	6803      	ldr	r3, [r0, #0]
   d4ac2:	6b1b      	ldr	r3, [r3, #48]	; 0x30
   d4ac4:	4798      	blx	r3
}
   d4ac6:	3000      	adds	r0, #0
   d4ac8:	bf18      	it	ne
   d4aca:	2001      	movne	r0, #1
   d4acc:	bd08      	pop	{r3, pc}

000d4ace <_ZNK5spark6Logger3logE8LogLevelPKcSt9__va_list>:
    va_start(args, fmt);
    log(level, fmt, args);
    va_end(args);
}

inline void spark::Logger::log(LogLevel level, const char *fmt, va_list args) const {
   d4ace:	b510      	push	{r4, lr}
   d4ad0:	b08a      	sub	sp, #40	; 0x28
    LogAttributes attr;
    attr.size = sizeof(LogAttributes);
    attr.flags = 0;
    log_message_v(level, name_, &attr, nullptr, fmt, args);
   d4ad2:	e88d 000c 	stmia.w	sp, {r2, r3}
    va_start(args, fmt);
    log(level, fmt, args);
    va_end(args);
}

inline void spark::Logger::log(LogLevel level, const char *fmt, va_list args) const {
   d4ad6:	460c      	mov	r4, r1
    LogAttributes attr;
    attr.size = sizeof(LogAttributes);
   d4ad8:	2120      	movs	r1, #32
   d4ada:	9102      	str	r1, [sp, #8]
    attr.flags = 0;
   d4adc:	2100      	movs	r1, #0
   d4ade:	9103      	str	r1, [sp, #12]
    log_message_v(level, name_, &attr, nullptr, fmt, args);
   d4ae0:	460b      	mov	r3, r1
   d4ae2:	aa02      	add	r2, sp, #8
   d4ae4:	6801      	ldr	r1, [r0, #0]
   d4ae6:	4620      	mov	r0, r4
   d4ae8:	f001 fbfc 	bl	d62e4 <log_message_v>
}
   d4aec:	b00a      	add	sp, #40	; 0x28
   d4aee:	bd10      	pop	{r4, pc}

000d4af0 <_ZNK5spark6Logger5traceEPKcz>:
// spark::Logger
inline spark::Logger::Logger(const char *name) :
        name_(name) {
}

inline void spark::Logger::trace(const char *fmt, ...) const {
   d4af0:	b40e      	push	{r1, r2, r3}
   d4af2:	b503      	push	{r0, r1, lr}
   d4af4:	ab03      	add	r3, sp, #12
    va_list args;
    va_start(args, fmt);
    log(LOG_LEVEL_TRACE, fmt, args);
   d4af6:	2101      	movs	r1, #1
// spark::Logger
inline spark::Logger::Logger(const char *name) :
        name_(name) {
}

inline void spark::Logger::trace(const char *fmt, ...) const {
   d4af8:	f853 2b04 	ldr.w	r2, [r3], #4
    va_list args;
    va_start(args, fmt);
   d4afc:	9301      	str	r3, [sp, #4]
    log(LOG_LEVEL_TRACE, fmt, args);
   d4afe:	f7ff ffe6 	bl	d4ace <_ZNK5spark6Logger3logE8LogLevelPKcSt9__va_list>
    va_end(args);
}
   d4b02:	b002      	add	sp, #8
   d4b04:	f85d eb04 	ldr.w	lr, [sp], #4
   d4b08:	b003      	add	sp, #12
   d4b0a:	4770      	bx	lr

000d4b0c <_ZNK5spark6Logger4warnEPKcz>:
    va_start(args, fmt);
    log(LOG_LEVEL_INFO, fmt, args);
    va_end(args);
}

inline void spark::Logger::warn(const char *fmt, ...) const {
   d4b0c:	b40e      	push	{r1, r2, r3}
   d4b0e:	b503      	push	{r0, r1, lr}
   d4b10:	ab03      	add	r3, sp, #12
    va_list args;
    va_start(args, fmt);
    log(LOG_LEVEL_WARN, fmt, args);
   d4b12:	2128      	movs	r1, #40	; 0x28
    va_start(args, fmt);
    log(LOG_LEVEL_INFO, fmt, args);
    va_end(args);
}

inline void spark::Logger::warn(const char *fmt, ...) const {
   d4b14:	f853 2b04 	ldr.w	r2, [r3], #4
    va_list args;
    va_start(args, fmt);
   d4b18:	9301      	str	r3, [sp, #4]
    log(LOG_LEVEL_WARN, fmt, args);
   d4b1a:	f7ff ffd8 	bl	d4ace <_ZNK5spark6Logger3logE8LogLevelPKcSt9__va_list>
    va_end(args);
}
   d4b1e:	b002      	add	sp, #8
   d4b20:	f85d eb04 	ldr.w	lr, [sp], #4
   d4b24:	b003      	add	sp, #12
   d4b26:	4770      	bx	lr

000d4b28 <_ZN5MQTT5C1Et>:
/* MQTT5 library by Thomas Peroutka <thomas.peroutka@gmail.com>
 */

#include "MQTT5.h"

MQTT5::MQTT5(uint16_t maxp): logger("app.MQTT") {
   d4b28:	b538      	push	{r3, r4, r5, lr}
    // This handler doesn't support direct logging
}

// spark::Logger
inline spark::Logger::Logger(const char *name) :
        name_(name) {
   d4b2a:	4b0c      	ldr	r3, [pc, #48]	; (d4b5c <_ZN5MQTT5C1Et+0x34>)
   d4b2c:	6003      	str	r3, [r0, #0]
   d4b2e:	220a      	movs	r2, #10
   d4b30:	2300      	movs	r3, #0
   d4b32:	f880 3028 	strb.w	r3, [r0, #40]	; 0x28
   d4b36:	f880 202e 	strb.w	r2, [r0, #46]	; 0x2e
   d4b3a:	6303      	str	r3, [r0, #48]	; 0x30
    maxPacketSize = maxp;
   d4b3c:	8581      	strh	r1, [r0, #44]	; 0x2c
/* MQTT5 library by Thomas Peroutka <thomas.peroutka@gmail.com>
 */

#include "MQTT5.h"

MQTT5::MQTT5(uint16_t maxp): logger("app.MQTT") {
   d4b3e:	4604      	mov	r4, r0
    maxPacketSize = maxp;
    socket = new TCPClient();
   d4b40:	201c      	movs	r0, #28
   d4b42:	f7ff faa8 	bl	d4096 <_Znwj>
   d4b46:	4605      	mov	r5, r0
   d4b48:	b108      	cbz	r0, d4b4e <_ZN5MQTT5C1Et+0x26>
   d4b4a:	f005 faaf 	bl	da0ac <_ZN9TCPClientC1Ev>
   d4b4e:	6065      	str	r5, [r4, #4]
    buffer = new uint8_t[maxPacketSize];
   d4b50:	8da0      	ldrh	r0, [r4, #44]	; 0x2c
   d4b52:	f7ff faa2 	bl	d409a <_Znaj>
   d4b56:	60a0      	str	r0, [r4, #8]
}
   d4b58:	4620      	mov	r0, r4
   d4b5a:	bd38      	pop	{r3, r4, r5, pc}
   d4b5c:	000db19c 	.word	0x000db19c

000d4b60 <_ZN5MQTT510connectingEv>:
bool MQTT5::connected() {
    return !connecting() && socket->connected();
}

bool MQTT5::connecting() {
    return isConnecting && socket->connected();
   d4b60:	f890 3028 	ldrb.w	r3, [r0, #40]	; 0x28
   d4b64:	b10b      	cbz	r3, d4b6a <_ZN5MQTT510connectingEv+0xa>
   d4b66:	f7ff bfa9 	b.w	d4abc <_ZN5MQTT510connectingEv.part.0>
}
   d4b6a:	4618      	mov	r0, r3
   d4b6c:	4770      	bx	lr

000d4b6e <_ZN5MQTT59connectedEv>:
    maxPacketSize = maxp;
    socket = new TCPClient();
    buffer = new uint8_t[maxPacketSize];
}

bool MQTT5::connected() {
   d4b6e:	b510      	push	{r4, lr}
   d4b70:	4604      	mov	r4, r0
    return !connecting() && socket->connected();
   d4b72:	f7ff fff5 	bl	d4b60 <_ZN5MQTT510connectingEv>
   d4b76:	b920      	cbnz	r0, d4b82 <_ZN5MQTT59connectedEv+0x14>
   d4b78:	4620      	mov	r0, r4
}
   d4b7a:	e8bd 4010 	ldmia.w	sp!, {r4, lr}
   d4b7e:	f7ff bf9d 	b.w	d4abc <_ZN5MQTT510connectingEv.part.0>
   d4b82:	2000      	movs	r0, #0
   d4b84:	bd10      	pop	{r4, pc}

000d4b86 <_ZN5MQTT520topicAliasRegisteredEt>:
    registeredTopicAlias[registeredTopicAliasLen] = alias;
    registeredTopicAliasLen++;
    return true;
}

bool MQTT5::topicAliasRegistered(uint16_t alias) {
   d4b86:	b510      	push	{r4, lr}
    if (registeredTopicAliasLen <= 0 || !registeredTopicAlias)
   d4b88:	f890 4034 	ldrb.w	r4, [r0, #52]	; 0x34
   d4b8c:	b154      	cbz	r4, d4ba4 <_ZN5MQTT520topicAliasRegisteredEt+0x1e>
   d4b8e:	6b03      	ldr	r3, [r0, #48]	; 0x30
   d4b90:	b143      	cbz	r3, d4ba4 <_ZN5MQTT520topicAliasRegisteredEt+0x1e>
   d4b92:	2200      	movs	r2, #0
        return false;

    for (int i = 0; i < registeredTopicAliasLen; i++) {
   d4b94:	42a2      	cmp	r2, r4
   d4b96:	da05      	bge.n	d4ba4 <_ZN5MQTT520topicAliasRegisteredEt+0x1e>
        if (registeredTopicAlias[i] == alias) 
   d4b98:	f833 0012 	ldrh.w	r0, [r3, r2, lsl #1]
   d4b9c:	4288      	cmp	r0, r1
   d4b9e:	d003      	beq.n	d4ba8 <_ZN5MQTT520topicAliasRegisteredEt+0x22>

bool MQTT5::topicAliasRegistered(uint16_t alias) {
    if (registeredTopicAliasLen <= 0 || !registeredTopicAlias)
        return false;

    for (int i = 0; i < registeredTopicAliasLen; i++) {
   d4ba0:	3201      	adds	r2, #1
   d4ba2:	e7f7      	b.n	d4b94 <_ZN5MQTT520topicAliasRegisteredEt+0xe>
    return true;
}

bool MQTT5::topicAliasRegistered(uint16_t alias) {
    if (registeredTopicAliasLen <= 0 || !registeredTopicAlias)
        return false;
   d4ba4:	2000      	movs	r0, #0
   d4ba6:	bd10      	pop	{r4, pc}

    for (int i = 0; i < registeredTopicAliasLen; i++) {
        if (registeredTopicAlias[i] == alias) 
            return true;
   d4ba8:	2001      	movs	r0, #1
    }
    return false;
}
   d4baa:	bd10      	pop	{r4, pc}

000d4bac <_ZN5MQTT518topicAliasRegisterEt>:
    if (properties.topicAlias > 0 && topicAliasRegister(properties.topicAlias))
        logger.info("Topic %s was assigned to alias %d", topic, properties.topicAlias);
    return writeToSocket(index);
}

bool MQTT5::topicAliasRegister(uint16_t alias) {
   d4bac:	b5f8      	push	{r3, r4, r5, r6, r7, lr}
    if (registeredTopicAliasLen >= maxTopicAlias || !registeredTopicAlias)
   d4bae:	f890 6034 	ldrb.w	r6, [r0, #52]	; 0x34
   d4bb2:	f890 302e 	ldrb.w	r3, [r0, #46]	; 0x2e
   d4bb6:	42b3      	cmp	r3, r6
    if (properties.topicAlias > 0 && topicAliasRegister(properties.topicAlias))
        logger.info("Topic %s was assigned to alias %d", topic, properties.topicAlias);
    return writeToSocket(index);
}

bool MQTT5::topicAliasRegister(uint16_t alias) {
   d4bb8:	4604      	mov	r4, r0
    if (registeredTopicAliasLen >= maxTopicAlias || !registeredTopicAlias)
   d4bba:	d90d      	bls.n	d4bd8 <_ZN5MQTT518topicAliasRegisterEt+0x2c>
   d4bbc:	6b05      	ldr	r5, [r0, #48]	; 0x30
   d4bbe:	b16d      	cbz	r5, d4bdc <_ZN5MQTT518topicAliasRegisterEt+0x30>
        return false;
    if (topicAliasRegistered(alias))
   d4bc0:	f7ff ffe1 	bl	d4b86 <_ZN5MQTT520topicAliasRegisteredEt>
   d4bc4:	b958      	cbnz	r0, d4bde <_ZN5MQTT518topicAliasRegisterEt+0x32>
        return true;
    
    registeredTopicAlias[registeredTopicAliasLen] = alias;
   d4bc6:	f825 1016 	strh.w	r1, [r5, r6, lsl #1]
    registeredTopicAliasLen++;
   d4bca:	f894 3034 	ldrb.w	r3, [r4, #52]	; 0x34
   d4bce:	3301      	adds	r3, #1
   d4bd0:	f884 3034 	strb.w	r3, [r4, #52]	; 0x34
    return true;
   d4bd4:	2001      	movs	r0, #1
   d4bd6:	bdf8      	pop	{r3, r4, r5, r6, r7, pc}
    return writeToSocket(index);
}

bool MQTT5::topicAliasRegister(uint16_t alias) {
    if (registeredTopicAliasLen >= maxTopicAlias || !registeredTopicAlias)
        return false;
   d4bd8:	2000      	movs	r0, #0
   d4bda:	bdf8      	pop	{r3, r4, r5, r6, r7, pc}
   d4bdc:	4628      	mov	r0, r5
        return true;
    
    registeredTopicAlias[registeredTopicAliasLen] = alias;
    registeredTopicAliasLen++;
    return true;
}
   d4bde:	bdf8      	pop	{r3, r4, r5, r6, r7, pc}

000d4be0 <_ZN5MQTT523readVariableByteIntegerEPtS0_>:
    logger.info("Sending disconnect with reason %d", (uint8_t) reason);
    return writeToSocket(index);
}

bool MQTT5::readVariableByteInteger(uint16_t *position, uint16_t *value) {
    *value = 0;
   d4be0:	2300      	movs	r3, #0

    logger.info("Sending disconnect with reason %d", (uint8_t) reason);
    return writeToSocket(index);
}

bool MQTT5::readVariableByteInteger(uint16_t *position, uint16_t *value) {
   d4be2:	b570      	push	{r4, r5, r6, lr}
    *value = 0;
   d4be4:	8013      	strh	r3, [r2, #0]
   d4be6:	2405      	movs	r4, #5
    uint32_t multiplier = 1;
   d4be8:	2501      	movs	r5, #1
    do {
        if (multiplier != 1)
            (*position)++;
        *value += (buffer[*position] & 127) * multiplier;    
   d4bea:	6886      	ldr	r6, [r0, #8]
   d4bec:	880b      	ldrh	r3, [r1, #0]
   d4bee:	5cf3      	ldrb	r3, [r6, r3]
   d4bf0:	8816      	ldrh	r6, [r2, #0]
   d4bf2:	f003 037f 	and.w	r3, r3, #127	; 0x7f
   d4bf6:	fb13 f305 	smulbb	r3, r3, r5
   d4bfa:	4433      	add	r3, r6
        if (multiplier > 128*128*128) {
   d4bfc:	3c01      	subs	r4, #1
    *value = 0;
    uint32_t multiplier = 1;
    do {
        if (multiplier != 1)
            (*position)++;
        *value += (buffer[*position] & 127) * multiplier;    
   d4bfe:	8013      	strh	r3, [r2, #0]
        if (multiplier > 128*128*128) {
   d4c00:	d107      	bne.n	d4c12 <_ZN5MQTT523readVariableByteIntegerEPtS0_+0x32>
            (*position)++;
   d4c02:	880b      	ldrh	r3, [r1, #0]
   d4c04:	3301      	adds	r3, #1
   d4c06:	800b      	strh	r3, [r1, #0]
            logger.warn("Malformed Variable Byte Integer");
   d4c08:	4907      	ldr	r1, [pc, #28]	; (d4c28 <_ZN5MQTT523readVariableByteIntegerEPtS0_+0x48>)
   d4c0a:	f7ff ff7f 	bl	d4b0c <_ZNK5spark6Logger4warnEPKcz>
            return false;
   d4c0e:	4620      	mov	r0, r4
   d4c10:	bd70      	pop	{r4, r5, r6, pc}
        }
        multiplier *= 128;
    } while ((buffer[*position] & 128) != 0);
   d4c12:	880b      	ldrh	r3, [r1, #0]
   d4c14:	6886      	ldr	r6, [r0, #8]
   d4c16:	56f6      	ldrsb	r6, [r6, r3]
   d4c18:	3301      	adds	r3, #1
   d4c1a:	2e00      	cmp	r6, #0
        if (multiplier > 128*128*128) {
            (*position)++;
            logger.warn("Malformed Variable Byte Integer");
            return false;
        }
        multiplier *= 128;
   d4c1c:	ea4f 15c5 	mov.w	r5, r5, lsl #7
    } while ((buffer[*position] & 128) != 0);
    (*position)++;
   d4c20:	800b      	strh	r3, [r1, #0]
            (*position)++;
            logger.warn("Malformed Variable Byte Integer");
            return false;
        }
        multiplier *= 128;
    } while ((buffer[*position] & 128) != 0);
   d4c22:	dbe2      	blt.n	d4bea <_ZN5MQTT523readVariableByteIntegerEPtS0_+0xa>
    (*position)++;
    return true;
   d4c24:	2001      	movs	r0, #1
}
   d4c26:	bd70      	pop	{r4, r5, r6, pc}
   d4c28:	000db1a5 	.word	0x000db1a5

000d4c2c <_ZN5MQTT514readUTF8StringEPtPct>:

uint16_t MQTT5::readUTF8StringLength(uint16_t *position) {
    return readInt(position);
}

void MQTT5::readUTF8String(uint16_t *position, char *arr, uint16_t len) {
   d4c2c:	b570      	push	{r4, r5, r6, lr}
   d4c2e:	461d      	mov	r5, r3
   d4c30:	460c      	mov	r4, r1
    memcpy(arr, buffer + (*position), len);
   d4c32:	880b      	ldrh	r3, [r1, #0]
   d4c34:	6881      	ldr	r1, [r0, #8]

uint16_t MQTT5::readUTF8StringLength(uint16_t *position) {
    return readInt(position);
}

void MQTT5::readUTF8String(uint16_t *position, char *arr, uint16_t len) {
   d4c36:	4616      	mov	r6, r2
    memcpy(arr, buffer + (*position), len);
   d4c38:	4419      	add	r1, r3
   d4c3a:	462a      	mov	r2, r5
   d4c3c:	4630      	mov	r0, r6
   d4c3e:	f005 fe80 	bl	da942 <memcpy>
    arr[len] = 0;
   d4c42:	2300      	movs	r3, #0
   d4c44:	5573      	strb	r3, [r6, r5]
    *position += len;
   d4c46:	8822      	ldrh	r2, [r4, #0]
   d4c48:	18ab      	adds	r3, r5, r2
   d4c4a:	8023      	strh	r3, [r4, #0]
   d4c4c:	bd70      	pop	{r4, r5, r6, pc}

000d4c4e <_ZN5MQTT57readIntEPt>:
}

uint16_t MQTT5::readInt(uint16_t *position) {
    uint16_t result = buffer[*position] << 8 | buffer[*position + 1];
   d4c4e:	880b      	ldrh	r3, [r1, #0]
   d4c50:	6882      	ldr	r2, [r0, #8]
   d4c52:	5cd0      	ldrb	r0, [r2, r3]
   d4c54:	441a      	add	r2, r3
    (*position) += 2;
   d4c56:	3302      	adds	r3, #2
    arr[len] = 0;
    *position += len;
}

uint16_t MQTT5::readInt(uint16_t *position) {
    uint16_t result = buffer[*position] << 8 | buffer[*position + 1];
   d4c58:	7852      	ldrb	r2, [r2, #1]
    (*position) += 2;
   d4c5a:	800b      	strh	r3, [r1, #0]
    return result;
}
   d4c5c:	ea42 2000 	orr.w	r0, r2, r0, lsl #8
   d4c60:	4770      	bx	lr
	...

000d4c64 <_ZN5MQTT522processPacketPubAckRecEhttb>:
            logger.warn("Unknown publish property");
            break;
    }
}

void MQTT5::processPacketPubAckRec(uint8_t flags, uint16_t startIndex, uint16_t contentLength, bool isAck) {
   d4c64:	b5f0      	push	{r4, r5, r6, r7, lr}
   d4c66:	b085      	sub	sp, #20
   d4c68:	a904      	add	r1, sp, #16
   d4c6a:	461d      	mov	r5, r3
   d4c6c:	f821 2d02 	strh.w	r2, [r1, #-2]!
   d4c70:	4604      	mov	r4, r0
   d4c72:	f89d 7028 	ldrb.w	r7, [sp, #40]	; 0x28
    uint16_t packetId = readInt(&startIndex);
   d4c76:	f7ff ffea 	bl	d4c4e <_ZN5MQTT57readIntEPt>
    MQTT5_REASON_CODE reason = contentLength == 2 ? MQTT5_REASON_CODE::SUCCESS : (MQTT5_REASON_CODE) buffer[startIndex++];
   d4c7a:	2d02      	cmp	r5, #2
   d4c7c:	bf1f      	itttt	ne
   d4c7e:	f8bd 300e 	ldrhne.w	r3, [sp, #14]
   d4c82:	68a2      	ldrne	r2, [r4, #8]
   d4c84:	1c59      	addne	r1, r3, #1
   d4c86:	f8ad 100e 	strhne.w	r1, [sp, #14]
   d4c8a:	bf18      	it	ne
   d4c8c:	5cd5      	ldrbne	r5, [r2, r3]
    logger.info("Received publish %s for packet %d and response %d", isAck ? "ack" : "rec", packetId, (uint8_t) reason);
   d4c8e:	490e      	ldr	r1, [pc, #56]	; (d4cc8 <_ZN5MQTT522processPacketPubAckRecEhttb+0x64>)
   d4c90:	4a0e      	ldr	r2, [pc, #56]	; (d4ccc <_ZN5MQTT522processPacketPubAckRecEhttb+0x68>)
    }
}

void MQTT5::processPacketPubAckRec(uint8_t flags, uint16_t startIndex, uint16_t contentLength, bool isAck) {
    uint16_t packetId = readInt(&startIndex);
    MQTT5_REASON_CODE reason = contentLength == 2 ? MQTT5_REASON_CODE::SUCCESS : (MQTT5_REASON_CODE) buffer[startIndex++];
   d4c92:	bf08      	it	eq
   d4c94:	2500      	moveq	r5, #0
            break;
    }
}

void MQTT5::processPacketPubAckRec(uint8_t flags, uint16_t startIndex, uint16_t contentLength, bool isAck) {
    uint16_t packetId = readInt(&startIndex);
   d4c96:	4606      	mov	r6, r0
    MQTT5_REASON_CODE reason = contentLength == 2 ? MQTT5_REASON_CODE::SUCCESS : (MQTT5_REASON_CODE) buffer[startIndex++];
    logger.info("Received publish %s for packet %d and response %d", isAck ? "ack" : "rec", packetId, (uint8_t) reason);
   d4c98:	4603      	mov	r3, r0
   d4c9a:	2f00      	cmp	r7, #0
   d4c9c:	bf18      	it	ne
   d4c9e:	460a      	movne	r2, r1
   d4ca0:	9500      	str	r5, [sp, #0]
   d4ca2:	490b      	ldr	r1, [pc, #44]	; (d4cd0 <_ZN5MQTT522processPacketPubAckRecEhttb+0x6c>)
   d4ca4:	4620      	mov	r0, r4
   d4ca6:	f7ff fa43 	bl	d4130 <_ZNK5spark6Logger4infoEPKcz>

    if (reason != MQTT5_REASON_CODE::SUCCESS) {
   d4caa:	b125      	cbz	r5, d4cb6 <_ZN5MQTT522processPacketPubAckRecEhttb+0x52>
        if (callbackPublishFailed)
   d4cac:	6c63      	ldr	r3, [r4, #68]	; 0x44
   d4cae:	b143      	cbz	r3, d4cc2 <_ZN5MQTT522processPacketPubAckRecEhttb+0x5e>
            callbackPublishFailed(reason);
   d4cb0:	4628      	mov	r0, r5
   d4cb2:	4798      	blx	r3
   d4cb4:	e005      	b.n	d4cc2 <_ZN5MQTT522processPacketPubAckRecEhttb+0x5e>
    } else if (callbackQOS) {
   d4cb6:	6c23      	ldr	r3, [r4, #64]	; 0x40
   d4cb8:	b11b      	cbz	r3, d4cc2 <_ZN5MQTT522processPacketPubAckRecEhttb+0x5e>
        callbackQOS(packetId, !isAck);
   d4cba:	f087 0101 	eor.w	r1, r7, #1
   d4cbe:	4630      	mov	r0, r6
   d4cc0:	4798      	blx	r3
    }
}
   d4cc2:	b005      	add	sp, #20
   d4cc4:	bdf0      	pop	{r4, r5, r6, r7, pc}
   d4cc6:	bf00      	nop
   d4cc8:	000db1c5 	.word	0x000db1c5
   d4ccc:	000db1c9 	.word	0x000db1c9
   d4cd0:	000db1cd 	.word	0x000db1cd

000d4cd4 <_ZN5MQTT520processPacketPubCompEhtt>:
    if (reason == MQTT5_REASON_CODE::SUCCESS) {
        pubComp(packetId);
    }
}

void MQTT5::processPacketPubComp(uint8_t flags, uint16_t startIndex, uint16_t contentLength) {
   d4cd4:	b537      	push	{r0, r1, r2, r4, r5, lr}
   d4cd6:	a902      	add	r1, sp, #8
   d4cd8:	461d      	mov	r5, r3
   d4cda:	f821 2d02 	strh.w	r2, [r1, #-2]!
   d4cde:	4604      	mov	r4, r0
    uint16_t packetId = readInt(&startIndex);
   d4ce0:	f7ff ffb5 	bl	d4c4e <_ZN5MQTT57readIntEPt>
    MQTT5_REASON_CODE reason = contentLength == 2 ? MQTT5_REASON_CODE::SUCCESS : (MQTT5_REASON_CODE) buffer[startIndex++];
   d4ce4:	2d02      	cmp	r5, #2
   d4ce6:	bf1c      	itt	ne
   d4ce8:	f8bd 3006 	ldrhne.w	r3, [sp, #6]
   d4cec:	68a1      	ldrne	r1, [r4, #8]
        pubComp(packetId);
    }
}

void MQTT5::processPacketPubComp(uint8_t flags, uint16_t startIndex, uint16_t contentLength) {
    uint16_t packetId = readInt(&startIndex);
   d4cee:	4602      	mov	r2, r0
    MQTT5_REASON_CODE reason = contentLength == 2 ? MQTT5_REASON_CODE::SUCCESS : (MQTT5_REASON_CODE) buffer[startIndex++];
   d4cf0:	bf1e      	ittt	ne
   d4cf2:	1c58      	addne	r0, r3, #1
   d4cf4:	f8ad 0006 	strhne.w	r0, [sp, #6]
   d4cf8:	5ccb      	ldrbne	r3, [r1, r3]
    logger.info("Received publish complete for packet %d and response %d", packetId, (uint8_t) reason);
   d4cfa:	4904      	ldr	r1, [pc, #16]	; (d4d0c <_ZN5MQTT520processPacketPubCompEhtt+0x38>)
    }
}

void MQTT5::processPacketPubComp(uint8_t flags, uint16_t startIndex, uint16_t contentLength) {
    uint16_t packetId = readInt(&startIndex);
    MQTT5_REASON_CODE reason = contentLength == 2 ? MQTT5_REASON_CODE::SUCCESS : (MQTT5_REASON_CODE) buffer[startIndex++];
   d4cfc:	bf08      	it	eq
   d4cfe:	2300      	moveq	r3, #0
    logger.info("Received publish complete for packet %d and response %d", packetId, (uint8_t) reason);
   d4d00:	4620      	mov	r0, r4
   d4d02:	f7ff fa15 	bl	d4130 <_ZNK5spark6Logger4infoEPKcz>
}
   d4d06:	b003      	add	sp, #12
   d4d08:	bd30      	pop	{r4, r5, pc}
   d4d0a:	bf00      	nop
   d4d0c:	000db1ff 	.word	0x000db1ff

000d4d10 <_ZN5MQTT519processPacketSubAckEhtt>:

void MQTT5::processPacketSubAck(uint8_t flags, uint16_t startIndex, uint16_t contentLength) {
   d4d10:	e92d 41ff 	stmdb	sp!, {r0, r1, r2, r3, r4, r5, r6, r7, r8, lr}
   d4d14:	a904      	add	r1, sp, #16
   d4d16:	4604      	mov	r4, r0
   d4d18:	f821 2d02 	strh.w	r2, [r1, #-2]!
   d4d1c:	461e      	mov	r6, r3
    uint16_t packetId = readInt(&startIndex);
   d4d1e:	f7ff ff96 	bl	d4c4e <_ZN5MQTT57readIntEPt>
    MQTT5_REASON_CODE reason = (MQTT5_REASON_CODE) buffer[startIndex++];
   d4d22:	f8bd 200e 	ldrh.w	r2, [sp, #14]
   d4d26:	68a3      	ldr	r3, [r4, #8]
   d4d28:	1c51      	adds	r1, r2, #1
   d4d2a:	f8ad 100e 	strh.w	r1, [sp, #14]
    MQTT5_REASON_CODE reason = contentLength == 2 ? MQTT5_REASON_CODE::SUCCESS : (MQTT5_REASON_CODE) buffer[startIndex++];
    logger.info("Received publish complete for packet %d and response %d", packetId, (uint8_t) reason);
}

void MQTT5::processPacketSubAck(uint8_t flags, uint16_t startIndex, uint16_t contentLength) {
    uint16_t packetId = readInt(&startIndex);
   d4d2e:	4680      	mov	r8, r0
    MQTT5_REASON_CODE reason = (MQTT5_REASON_CODE) buffer[startIndex++];
   d4d30:	5c98      	ldrb	r0, [r3, r2]
    if (reason != MQTT5_REASON_CODE::SUCCESS) {
   d4d32:	b910      	cbnz	r0, d4d3a <_ZN5MQTT519processPacketSubAckEhtt+0x2a>
   d4d34:	2501      	movs	r5, #1
        if (callbackSubscribeFailed)
            callbackSubscribeFailed(reason);
    } else {
        for (int i = 1; i < contentLength - 2; i++) { // skip first packet 
   d4d36:	3e02      	subs	r6, #2
   d4d38:	e014      	b.n	d4d64 <_ZN5MQTT519processPacketSubAckEhtt+0x54>

void MQTT5::processPacketSubAck(uint8_t flags, uint16_t startIndex, uint16_t contentLength) {
    uint16_t packetId = readInt(&startIndex);
    MQTT5_REASON_CODE reason = (MQTT5_REASON_CODE) buffer[startIndex++];
    if (reason != MQTT5_REASON_CODE::SUCCESS) {
        if (callbackSubscribeFailed)
   d4d3a:	6ca3      	ldr	r3, [r4, #72]	; 0x48
   d4d3c:	b1db      	cbz	r3, d4d76 <_ZN5MQTT519processPacketSubAckEhtt+0x66>
            callbackSubscribeFailed(reason);
   d4d3e:	4798      	blx	r3
   d4d40:	e019      	b.n	d4d76 <_ZN5MQTT519processPacketSubAckEhtt+0x66>
    } else {
        for (int i = 1; i < contentLength - 2; i++) { // skip first packet 
            MQTT5_REASON_CODE reason = (MQTT5_REASON_CODE) buffer[startIndex++];
   d4d42:	f8bd 300e 	ldrh.w	r3, [sp, #14]
   d4d46:	68a2      	ldr	r2, [r4, #8]
   d4d48:	1c59      	adds	r1, r3, #1
   d4d4a:	f8ad 100e 	strh.w	r1, [sp, #14]
   d4d4e:	5cd7      	ldrb	r7, [r2, r3]
            logger.info("Received subscription ack for packet %d and subscription index %d and response %d", packetId, i, (uint8_t) reason);
   d4d50:	9700      	str	r7, [sp, #0]
   d4d52:	462b      	mov	r3, r5
   d4d54:	4642      	mov	r2, r8
   d4d56:	4909      	ldr	r1, [pc, #36]	; (d4d7c <_ZN5MQTT519processPacketSubAckEhtt+0x6c>)
   d4d58:	4620      	mov	r0, r4
   d4d5a:	f7ff f9e9 	bl	d4130 <_ZNK5spark6Logger4infoEPKcz>
            if (reason != MQTT5_REASON_CODE::GRANTED_QOS_0 &&
   d4d5e:	2f02      	cmp	r7, #2
   d4d60:	d803      	bhi.n	d4d6a <_ZN5MQTT519processPacketSubAckEhtt+0x5a>
    MQTT5_REASON_CODE reason = (MQTT5_REASON_CODE) buffer[startIndex++];
    if (reason != MQTT5_REASON_CODE::SUCCESS) {
        if (callbackSubscribeFailed)
            callbackSubscribeFailed(reason);
    } else {
        for (int i = 1; i < contentLength - 2; i++) { // skip first packet 
   d4d62:	3501      	adds	r5, #1
   d4d64:	42b5      	cmp	r5, r6
   d4d66:	dbec      	blt.n	d4d42 <_ZN5MQTT519processPacketSubAckEhtt+0x32>
   d4d68:	e005      	b.n	d4d76 <_ZN5MQTT519processPacketSubAckEhtt+0x66>
            MQTT5_REASON_CODE reason = (MQTT5_REASON_CODE) buffer[startIndex++];
            logger.info("Received subscription ack for packet %d and subscription index %d and response %d", packetId, i, (uint8_t) reason);
            if (reason != MQTT5_REASON_CODE::GRANTED_QOS_0 &&
                reason != MQTT5_REASON_CODE::GRANTED_QOS_1 &&
                reason != MQTT5_REASON_CODE::GRANTED_QOS_2)
                if (callbackSubscribeFailed)
   d4d6a:	6ca3      	ldr	r3, [r4, #72]	; 0x48
   d4d6c:	2b00      	cmp	r3, #0
   d4d6e:	d0f8      	beq.n	d4d62 <_ZN5MQTT519processPacketSubAckEhtt+0x52>
                    callbackSubscribeFailed(reason);
   d4d70:	4638      	mov	r0, r7
   d4d72:	4798      	blx	r3
   d4d74:	e7f5      	b.n	d4d62 <_ZN5MQTT519processPacketSubAckEhtt+0x52>
        }
    }
}
   d4d76:	b004      	add	sp, #16
   d4d78:	e8bd 81f0 	ldmia.w	sp!, {r4, r5, r6, r7, r8, pc}
   d4d7c:	000db237 	.word	0x000db237

000d4d80 <_ZN5MQTT518processPacketUnsubEhtt>:

void MQTT5::processPacketUnsub(uint8_t flags, uint16_t startIndex, uint16_t contentLength) {
   d4d80:	e92d 41ff 	stmdb	sp!, {r0, r1, r2, r3, r4, r5, r6, r7, r8, lr}
   d4d84:	a904      	add	r1, sp, #16
   d4d86:	4604      	mov	r4, r0
   d4d88:	f821 2d02 	strh.w	r2, [r1, #-2]!
   d4d8c:	461e      	mov	r6, r3
    uint16_t packetId = readInt(&startIndex);
   d4d8e:	f7ff ff5e 	bl	d4c4e <_ZN5MQTT57readIntEPt>
    MQTT5_REASON_CODE reason = (MQTT5_REASON_CODE) buffer[startIndex++];
   d4d92:	f8bd 200e 	ldrh.w	r2, [sp, #14]
   d4d96:	68a3      	ldr	r3, [r4, #8]
   d4d98:	1c51      	adds	r1, r2, #1
   d4d9a:	f8ad 100e 	strh.w	r1, [sp, #14]
        }
    }
}

void MQTT5::processPacketUnsub(uint8_t flags, uint16_t startIndex, uint16_t contentLength) {
    uint16_t packetId = readInt(&startIndex);
   d4d9e:	4680      	mov	r8, r0
    MQTT5_REASON_CODE reason = (MQTT5_REASON_CODE) buffer[startIndex++];
   d4da0:	5c98      	ldrb	r0, [r3, r2]
    if (reason != MQTT5_REASON_CODE::SUCCESS) {
   d4da2:	b910      	cbnz	r0, d4daa <_ZN5MQTT518processPacketUnsubEhtt+0x2a>
   d4da4:	2501      	movs	r5, #1
        if (callbackUnsubscribeFailed)
            callbackUnsubscribeFailed(reason);
    } else {
        for (int i = 1; i < contentLength - 2; i++) { // skip first packet 
   d4da6:	3e02      	subs	r6, #2
   d4da8:	e014      	b.n	d4dd4 <_ZN5MQTT518processPacketUnsubEhtt+0x54>

void MQTT5::processPacketUnsub(uint8_t flags, uint16_t startIndex, uint16_t contentLength) {
    uint16_t packetId = readInt(&startIndex);
    MQTT5_REASON_CODE reason = (MQTT5_REASON_CODE) buffer[startIndex++];
    if (reason != MQTT5_REASON_CODE::SUCCESS) {
        if (callbackUnsubscribeFailed)
   d4daa:	6ce3      	ldr	r3, [r4, #76]	; 0x4c
   d4dac:	b1db      	cbz	r3, d4de6 <_ZN5MQTT518processPacketUnsubEhtt+0x66>
            callbackUnsubscribeFailed(reason);
   d4dae:	4798      	blx	r3
   d4db0:	e019      	b.n	d4de6 <_ZN5MQTT518processPacketUnsubEhtt+0x66>
    } else {
        for (int i = 1; i < contentLength - 2; i++) { // skip first packet 
            MQTT5_REASON_CODE reason = (MQTT5_REASON_CODE) buffer[startIndex++];
   d4db2:	f8bd 300e 	ldrh.w	r3, [sp, #14]
   d4db6:	68a2      	ldr	r2, [r4, #8]
   d4db8:	1c59      	adds	r1, r3, #1
   d4dba:	f8ad 100e 	strh.w	r1, [sp, #14]
   d4dbe:	5cd7      	ldrb	r7, [r2, r3]
            logger.info("Received unsubscription ack for packet %d and subscription index %d and response %d", packetId, i, (uint8_t) reason);
   d4dc0:	9700      	str	r7, [sp, #0]
   d4dc2:	462b      	mov	r3, r5
   d4dc4:	4642      	mov	r2, r8
   d4dc6:	4909      	ldr	r1, [pc, #36]	; (d4dec <_ZN5MQTT518processPacketUnsubEhtt+0x6c>)
   d4dc8:	4620      	mov	r0, r4
   d4dca:	f7ff f9b1 	bl	d4130 <_ZNK5spark6Logger4infoEPKcz>
            if (reason != MQTT5_REASON_CODE::GRANTED_QOS_0 &&
   d4dce:	2f02      	cmp	r7, #2
   d4dd0:	d803      	bhi.n	d4dda <_ZN5MQTT518processPacketUnsubEhtt+0x5a>
    MQTT5_REASON_CODE reason = (MQTT5_REASON_CODE) buffer[startIndex++];
    if (reason != MQTT5_REASON_CODE::SUCCESS) {
        if (callbackUnsubscribeFailed)
            callbackUnsubscribeFailed(reason);
    } else {
        for (int i = 1; i < contentLength - 2; i++) { // skip first packet 
   d4dd2:	3501      	adds	r5, #1
   d4dd4:	42b5      	cmp	r5, r6
   d4dd6:	dbec      	blt.n	d4db2 <_ZN5MQTT518processPacketUnsubEhtt+0x32>
   d4dd8:	e005      	b.n	d4de6 <_ZN5MQTT518processPacketUnsubEhtt+0x66>
            MQTT5_REASON_CODE reason = (MQTT5_REASON_CODE) buffer[startIndex++];
            logger.info("Received unsubscription ack for packet %d and subscription index %d and response %d", packetId, i, (uint8_t) reason);
            if (reason != MQTT5_REASON_CODE::GRANTED_QOS_0 &&
                reason != MQTT5_REASON_CODE::GRANTED_QOS_1 &&
                reason != MQTT5_REASON_CODE::GRANTED_QOS_2)
                if (callbackUnsubscribeFailed)
   d4dda:	6ce3      	ldr	r3, [r4, #76]	; 0x4c
   d4ddc:	2b00      	cmp	r3, #0
   d4dde:	d0f8      	beq.n	d4dd2 <_ZN5MQTT518processPacketUnsubEhtt+0x52>
                    callbackUnsubscribeFailed(reason);
   d4de0:	4638      	mov	r0, r7
   d4de2:	4798      	blx	r3
   d4de4:	e7f5      	b.n	d4dd2 <_ZN5MQTT518processPacketUnsubEhtt+0x52>
        }
    }
}
   d4de6:	b004      	add	sp, #16
   d4de8:	e8bd 81f0 	ldmia.w	sp!, {r4, r5, r6, r7, r8, pc}
   d4dec:	000db289 	.word	0x000db289

000d4df0 <_ZN5MQTT58readLongEPt>:
    uint16_t result = buffer[*position] << 8 | buffer[*position + 1];
    (*position) += 2;
    return result;
}

uint32_t MQTT5::readLong(uint16_t *position) {
   d4df0:	b510      	push	{r4, lr}
    uint32_t result = buffer[*position] << 24 | buffer[*position + 1] << 16 | buffer[*position + 2] << 8 | buffer[*position + 3];
   d4df2:	880c      	ldrh	r4, [r1, #0]
   d4df4:	6883      	ldr	r3, [r0, #8]
   d4df6:	5d18      	ldrb	r0, [r3, r4]
   d4df8:	4423      	add	r3, r4
    (*position) += 4;
   d4dfa:	3404      	adds	r4, #4
    (*position) += 2;
    return result;
}

uint32_t MQTT5::readLong(uint16_t *position) {
    uint32_t result = buffer[*position] << 24 | buffer[*position + 1] << 16 | buffer[*position + 2] << 8 | buffer[*position + 3];
   d4dfc:	78da      	ldrb	r2, [r3, #3]
   d4dfe:	ea42 6200 	orr.w	r2, r2, r0, lsl #24
   d4e02:	7858      	ldrb	r0, [r3, #1]
   d4e04:	ea42 4200 	orr.w	r2, r2, r0, lsl #16
   d4e08:	7898      	ldrb	r0, [r3, #2]
    (*position) += 4;
   d4e0a:	800c      	strh	r4, [r1, #0]
    return result;
}
   d4e0c:	ea42 2000 	orr.w	r0, r2, r0, lsl #8
   d4e10:	bd10      	pop	{r4, pc}
	...

000d4e14 <_ZN5MQTT530processPacketConnAckPropertiesEhPt>:
        if (callbackConnectFailed)
            callbackConnectFailed(reasonCode);
    }
}

void MQTT5::processPacketConnAckProperties(uint8_t identifier, uint16_t *index) {
   d4e14:	b5f8      	push	{r3, r4, r5, r6, r7, lr}
    switch (identifier) {
   d4e16:	3911      	subs	r1, #17
        if (callbackConnectFailed)
            callbackConnectFailed(reasonCode);
    }
}

void MQTT5::processPacketConnAckProperties(uint8_t identifier, uint16_t *index) {
   d4e18:	af00      	add	r7, sp, #0
   d4e1a:	4604      	mov	r4, r0
   d4e1c:	4615      	mov	r5, r2
    switch (identifier) {
   d4e1e:	2919      	cmp	r1, #25
   d4e20:	f200 80c5 	bhi.w	d4fae <_ZN5MQTT530processPacketConnAckPropertiesEhPt+0x19a>
   d4e24:	e8df f001 	tbb	[pc, r1]
   d4e28:	c37a300d 	.word	0xc37a300d
   d4e2c:	c3c3bea7 	.word	0xc3c3bea7
   d4e30:	94c381c3 	.word	0x94c381c3
   d4e34:	c350c3c3 	.word	0xc350c3c3
   d4e38:	1cc34313 	.word	0x1cc34313
   d4e3c:	652a6323 	.word	0x652a6323
   d4e40:	736c      	.short	0x736c
        case PROP_SESSION_EXPIRY_INTERVAL:
            logger.trace("Session Expiry Interval: %ld", readLong(index));
   d4e42:	4611      	mov	r1, r2
   d4e44:	f7ff ffd4 	bl	d4df0 <_ZN5MQTT58readLongEPt>
   d4e48:	495b      	ldr	r1, [pc, #364]	; (d4fb8 <_ZN5MQTT530processPacketConnAckPropertiesEhPt+0x1a4>)
   d4e4a:	4602      	mov	r2, r0
   d4e4c:	e004      	b.n	d4e58 <_ZN5MQTT530processPacketConnAckPropertiesEhPt+0x44>
            break;
        case PROP_RECEIVE_MAXIMUM:
            logger.trace("Receive Maximum: %d", readInt(index));
   d4e4e:	4611      	mov	r1, r2
   d4e50:	f7ff fefd 	bl	d4c4e <_ZN5MQTT57readIntEPt>
   d4e54:	4959      	ldr	r1, [pc, #356]	; (d4fbc <_ZN5MQTT530processPacketConnAckPropertiesEhPt+0x1a8>)
   d4e56:	4602      	mov	r2, r0
   d4e58:	4620      	mov	r0, r4
   d4e5a:	f7ff fe49 	bl	d4af0 <_ZNK5spark6Logger5traceEPKcz>
            break;
   d4e5e:	e0a9      	b.n	d4fb4 <_ZN5MQTT530processPacketConnAckPropertiesEhPt+0x1a0>
        case PROP_MAXIMUM_QOS:
            logger.trace("Maximum QoS: %d", buffer[(*index)++]);
   d4e60:	882b      	ldrh	r3, [r5, #0]
   d4e62:	6882      	ldr	r2, [r0, #8]
   d4e64:	1c59      	adds	r1, r3, #1
   d4e66:	8029      	strh	r1, [r5, #0]
   d4e68:	5cd2      	ldrb	r2, [r2, r3]
   d4e6a:	4955      	ldr	r1, [pc, #340]	; (d4fc0 <_ZN5MQTT530processPacketConnAckPropertiesEhPt+0x1ac>)
   d4e6c:	e7f4      	b.n	d4e58 <_ZN5MQTT530processPacketConnAckPropertiesEhPt+0x44>
            break;
        case PROP_RETAIN_AVAILABLE:
            logger.trace("Retain Available: %d", buffer[(*index)++]);
   d4e6e:	882b      	ldrh	r3, [r5, #0]
   d4e70:	6882      	ldr	r2, [r0, #8]
   d4e72:	1c59      	adds	r1, r3, #1
   d4e74:	8029      	strh	r1, [r5, #0]
   d4e76:	5cd2      	ldrb	r2, [r2, r3]
   d4e78:	4952      	ldr	r1, [pc, #328]	; (d4fc4 <_ZN5MQTT530processPacketConnAckPropertiesEhPt+0x1b0>)
   d4e7a:	e7ed      	b.n	d4e58 <_ZN5MQTT530processPacketConnAckPropertiesEhPt+0x44>
            break;
        case PROP_MAXIMUM_PACKET_SIZE:
            logger.trace("Maximum Packet Size: %ld", readLong(index));
   d4e7c:	4611      	mov	r1, r2
   d4e7e:	f7ff ffb7 	bl	d4df0 <_ZN5MQTT58readLongEPt>
   d4e82:	4951      	ldr	r1, [pc, #324]	; (d4fc8 <_ZN5MQTT530processPacketConnAckPropertiesEhPt+0x1b4>)
   d4e84:	4602      	mov	r2, r0
   d4e86:	e7e7      	b.n	d4e58 <_ZN5MQTT530processPacketConnAckPropertiesEhPt+0x44>
    (*position)++;
    return true;
}

uint16_t MQTT5::readUTF8StringLength(uint16_t *position) {
    return readInt(position);
   d4e88:	4611      	mov	r1, r2
   d4e8a:	f7ff fee0 	bl	d4c4e <_ZN5MQTT57readIntEPt>
        case PROP_MAXIMUM_PACKET_SIZE:
            logger.trace("Maximum Packet Size: %ld", readLong(index));
            break;
        case PROP_ASSIGNED_CLIENT_IDENTIFIER: {
            uint16_t len = readUTF8StringLength(index);
            char str[len + 1];
   d4e8e:	f100 0208 	add.w	r2, r0, #8
   d4e92:	f022 0207 	bic.w	r2, r2, #7
            readUTF8String(index, str, len);
            logger.trace("Assigned Client Identifier: %s", str);
            break;
   d4e96:	466e      	mov	r6, sp
        case PROP_MAXIMUM_PACKET_SIZE:
            logger.trace("Maximum Packet Size: %ld", readLong(index));
            break;
        case PROP_ASSIGNED_CLIENT_IDENTIFIER: {
            uint16_t len = readUTF8StringLength(index);
            char str[len + 1];
   d4e98:	ebad 0d02 	sub.w	sp, sp, r2
    (*position)++;
    return true;
}

uint16_t MQTT5::readUTF8StringLength(uint16_t *position) {
    return readInt(position);
   d4e9c:	4603      	mov	r3, r0
            logger.trace("Maximum Packet Size: %ld", readLong(index));
            break;
        case PROP_ASSIGNED_CLIENT_IDENTIFIER: {
            uint16_t len = readUTF8StringLength(index);
            char str[len + 1];
            readUTF8String(index, str, len);
   d4e9e:	466a      	mov	r2, sp
   d4ea0:	4629      	mov	r1, r5
   d4ea2:	4620      	mov	r0, r4
   d4ea4:	f7ff fec2 	bl	d4c2c <_ZN5MQTT514readUTF8StringEPtPct>
            logger.trace("Assigned Client Identifier: %s", str);
   d4ea8:	466a      	mov	r2, sp
   d4eaa:	4948      	ldr	r1, [pc, #288]	; (d4fcc <_ZN5MQTT530processPacketConnAckPropertiesEhPt+0x1b8>)
   d4eac:	e075      	b.n	d4f9a <_ZN5MQTT530processPacketConnAckPropertiesEhPt+0x186>
            break;
        }
        case PROP_TOPIC_ALIAS_MAXIMUM:
            maxTopicAlias = min(maxTopicAlias , readInt(index));
   d4eae:	4611      	mov	r1, r2
   d4eb0:	f890 602e 	ldrb.w	r6, [r0, #46]	; 0x2e
   d4eb4:	f7ff fecb 	bl	d4c4e <_ZN5MQTT57readIntEPt>
max (T a, U b) { return ((a)>(b)?(a):(b)); }

template <typename T, typename U>
static inline
typename std::common_type<T, U>::type
min (T a, U b) { return static_cast<typename std::common_type<T, U>::type>((a)<(b)?(a):(b)); }
   d4eb8:	4286      	cmp	r6, r0
   d4eba:	4632      	mov	r2, r6
   d4ebc:	bf28      	it	cs
   d4ebe:	4602      	movcs	r2, r0
   d4ec0:	f884 202e 	strb.w	r2, [r4, #46]	; 0x2e
            logger.trace("Topic Alias Maximum: %d", maxTopicAlias);
   d4ec4:	4942      	ldr	r1, [pc, #264]	; (d4fd0 <_ZN5MQTT530processPacketConnAckPropertiesEhPt+0x1bc>)
   d4ec6:	e7c7      	b.n	d4e58 <_ZN5MQTT530processPacketConnAckPropertiesEhPt+0x44>
    (*position)++;
    return true;
}

uint16_t MQTT5::readUTF8StringLength(uint16_t *position) {
    return readInt(position);
   d4ec8:	4611      	mov	r1, r2
   d4eca:	f7ff fec0 	bl	d4c4e <_ZN5MQTT57readIntEPt>
            maxTopicAlias = min(maxTopicAlias , readInt(index));
            logger.trace("Topic Alias Maximum: %d", maxTopicAlias);
            break;
        case PROP_REASON_STRING: {
            uint16_t len = readUTF8StringLength(index);
            char str[len + 1];
   d4ece:	f100 0208 	add.w	r2, r0, #8
   d4ed2:	f022 0207 	bic.w	r2, r2, #7
            readUTF8String(index, str, len);
            logger.trace("Reason String: %s", str);
            break;
   d4ed6:	466e      	mov	r6, sp
            maxTopicAlias = min(maxTopicAlias , readInt(index));
            logger.trace("Topic Alias Maximum: %d", maxTopicAlias);
            break;
        case PROP_REASON_STRING: {
            uint16_t len = readUTF8StringLength(index);
            char str[len + 1];
   d4ed8:	ebad 0d02 	sub.w	sp, sp, r2
    (*position)++;
    return true;
}

uint16_t MQTT5::readUTF8StringLength(uint16_t *position) {
    return readInt(position);
   d4edc:	4603      	mov	r3, r0
            logger.trace("Topic Alias Maximum: %d", maxTopicAlias);
            break;
        case PROP_REASON_STRING: {
            uint16_t len = readUTF8StringLength(index);
            char str[len + 1];
            readUTF8String(index, str, len);
   d4ede:	466a      	mov	r2, sp
   d4ee0:	4629      	mov	r1, r5
   d4ee2:	4620      	mov	r0, r4
   d4ee4:	f7ff fea2 	bl	d4c2c <_ZN5MQTT514readUTF8StringEPtPct>
            logger.trace("Reason String: %s", str);
   d4ee8:	466a      	mov	r2, sp
   d4eea:	493a      	ldr	r1, [pc, #232]	; (d4fd4 <_ZN5MQTT530processPacketConnAckPropertiesEhPt+0x1c0>)
   d4eec:	e055      	b.n	d4f9a <_ZN5MQTT530processPacketConnAckPropertiesEhPt+0x186>
            break;
        }
        case PROP_USER_PROPERTY:
            logger.trace("User Property");
   d4eee:	493a      	ldr	r1, [pc, #232]	; (d4fd8 <_ZN5MQTT530processPacketConnAckPropertiesEhPt+0x1c4>)
   d4ef0:	e059      	b.n	d4fa6 <_ZN5MQTT530processPacketConnAckPropertiesEhPt+0x192>
            break;
        case PROP_WILDCARD_SUBSCRIPTION_AVAILABLE:
            logger.trace("Wildcard Subscription Available: %d", buffer[(*index)++]);
   d4ef2:	882b      	ldrh	r3, [r5, #0]
   d4ef4:	6882      	ldr	r2, [r0, #8]
   d4ef6:	1c59      	adds	r1, r3, #1
   d4ef8:	8029      	strh	r1, [r5, #0]
   d4efa:	5cd2      	ldrb	r2, [r2, r3]
   d4efc:	4937      	ldr	r1, [pc, #220]	; (d4fdc <_ZN5MQTT530processPacketConnAckPropertiesEhPt+0x1c8>)
   d4efe:	e7ab      	b.n	d4e58 <_ZN5MQTT530processPacketConnAckPropertiesEhPt+0x44>
            break;
        case PROP_SUBSCRIPTION_IDENTIFIER_AVAILABLE:
            logger.trace("Subscription Identifiers Available: %d", buffer[(*index)++]);
   d4f00:	882b      	ldrh	r3, [r5, #0]
   d4f02:	6882      	ldr	r2, [r0, #8]
   d4f04:	1c59      	adds	r1, r3, #1
   d4f06:	8029      	strh	r1, [r5, #0]
   d4f08:	5cd2      	ldrb	r2, [r2, r3]
   d4f0a:	4935      	ldr	r1, [pc, #212]	; (d4fe0 <_ZN5MQTT530processPacketConnAckPropertiesEhPt+0x1cc>)
   d4f0c:	e7a4      	b.n	d4e58 <_ZN5MQTT530processPacketConnAckPropertiesEhPt+0x44>
            break;
        case PROP_SHARED_SUBSCRIPTION_AVAILABLE:
            logger.trace("Shared Subscription Available: %d", buffer[(*index)++]);
   d4f0e:	882b      	ldrh	r3, [r5, #0]
   d4f10:	6882      	ldr	r2, [r0, #8]
   d4f12:	1c59      	adds	r1, r3, #1
   d4f14:	8029      	strh	r1, [r5, #0]
   d4f16:	5cd2      	ldrb	r2, [r2, r3]
   d4f18:	4932      	ldr	r1, [pc, #200]	; (d4fe4 <_ZN5MQTT530processPacketConnAckPropertiesEhPt+0x1d0>)
   d4f1a:	e79d      	b.n	d4e58 <_ZN5MQTT530processPacketConnAckPropertiesEhPt+0x44>
            break;
        case PROP_SERVER_KEEP_ALIVE:
            keepAlive = readInt(index);
   d4f1c:	4611      	mov	r1, r2
   d4f1e:	f7ff fe96 	bl	d4c4e <_ZN5MQTT57readIntEPt>
            logger.trace("Server Keep Alive: %d", keepAlive);
   d4f22:	4931      	ldr	r1, [pc, #196]	; (d4fe8 <_ZN5MQTT530processPacketConnAckPropertiesEhPt+0x1d4>)
            break;
        case PROP_SHARED_SUBSCRIPTION_AVAILABLE:
            logger.trace("Shared Subscription Available: %d", buffer[(*index)++]);
            break;
        case PROP_SERVER_KEEP_ALIVE:
            keepAlive = readInt(index);
   d4f24:	84e0      	strh	r0, [r4, #38]	; 0x26
   d4f26:	4602      	mov	r2, r0
   d4f28:	e796      	b.n	d4e58 <_ZN5MQTT530processPacketConnAckPropertiesEhPt+0x44>
    (*position)++;
    return true;
}

uint16_t MQTT5::readUTF8StringLength(uint16_t *position) {
    return readInt(position);
   d4f2a:	4611      	mov	r1, r2
   d4f2c:	f7ff fe8f 	bl	d4c4e <_ZN5MQTT57readIntEPt>
            keepAlive = readInt(index);
            logger.trace("Server Keep Alive: %d", keepAlive);
            break;
        case PROP_RESPONSE_INFORMATION: {
            uint16_t len = readUTF8StringLength(index);
            char str[len + 1];
   d4f30:	f100 0208 	add.w	r2, r0, #8
   d4f34:	f022 0207 	bic.w	r2, r2, #7
            readUTF8String(index, str, len);
            logger.trace("Response Information: %s", str);
            break;
   d4f38:	466e      	mov	r6, sp
            keepAlive = readInt(index);
            logger.trace("Server Keep Alive: %d", keepAlive);
            break;
        case PROP_RESPONSE_INFORMATION: {
            uint16_t len = readUTF8StringLength(index);
            char str[len + 1];
   d4f3a:	ebad 0d02 	sub.w	sp, sp, r2
    (*position)++;
    return true;
}

uint16_t MQTT5::readUTF8StringLength(uint16_t *position) {
    return readInt(position);
   d4f3e:	4603      	mov	r3, r0
            logger.trace("Server Keep Alive: %d", keepAlive);
            break;
        case PROP_RESPONSE_INFORMATION: {
            uint16_t len = readUTF8StringLength(index);
            char str[len + 1];
            readUTF8String(index, str, len);
   d4f40:	466a      	mov	r2, sp
   d4f42:	4629      	mov	r1, r5
   d4f44:	4620      	mov	r0, r4
   d4f46:	f7ff fe71 	bl	d4c2c <_ZN5MQTT514readUTF8StringEPtPct>
            logger.trace("Response Information: %s", str);
   d4f4a:	466a      	mov	r2, sp
   d4f4c:	4927      	ldr	r1, [pc, #156]	; (d4fec <_ZN5MQTT530processPacketConnAckPropertiesEhPt+0x1d8>)
   d4f4e:	e024      	b.n	d4f9a <_ZN5MQTT530processPacketConnAckPropertiesEhPt+0x186>
    (*position)++;
    return true;
}

uint16_t MQTT5::readUTF8StringLength(uint16_t *position) {
    return readInt(position);
   d4f50:	4611      	mov	r1, r2
   d4f52:	f7ff fe7c 	bl	d4c4e <_ZN5MQTT57readIntEPt>
            logger.trace("Response Information: %s", str);
            break;
        }
        case PROP_SERVER_REFERENCE: {
            uint16_t len = readUTF8StringLength(index);
            char str[len + 1];
   d4f56:	f100 0208 	add.w	r2, r0, #8
   d4f5a:	f022 0207 	bic.w	r2, r2, #7
            readUTF8String(index, str, len);
            logger.trace("Server Reference: %s", str);
            break;
   d4f5e:	466e      	mov	r6, sp
            logger.trace("Response Information: %s", str);
            break;
        }
        case PROP_SERVER_REFERENCE: {
            uint16_t len = readUTF8StringLength(index);
            char str[len + 1];
   d4f60:	ebad 0d02 	sub.w	sp, sp, r2
    (*position)++;
    return true;
}

uint16_t MQTT5::readUTF8StringLength(uint16_t *position) {
    return readInt(position);
   d4f64:	4603      	mov	r3, r0
            break;
        }
        case PROP_SERVER_REFERENCE: {
            uint16_t len = readUTF8StringLength(index);
            char str[len + 1];
            readUTF8String(index, str, len);
   d4f66:	466a      	mov	r2, sp
   d4f68:	4629      	mov	r1, r5
   d4f6a:	4620      	mov	r0, r4
   d4f6c:	f7ff fe5e 	bl	d4c2c <_ZN5MQTT514readUTF8StringEPtPct>
            logger.trace("Server Reference: %s", str);
   d4f70:	466a      	mov	r2, sp
   d4f72:	491f      	ldr	r1, [pc, #124]	; (d4ff0 <_ZN5MQTT530processPacketConnAckPropertiesEhPt+0x1dc>)
   d4f74:	e011      	b.n	d4f9a <_ZN5MQTT530processPacketConnAckPropertiesEhPt+0x186>
    (*position)++;
    return true;
}

uint16_t MQTT5::readUTF8StringLength(uint16_t *position) {
    return readInt(position);
   d4f76:	4611      	mov	r1, r2
   d4f78:	f7ff fe69 	bl	d4c4e <_ZN5MQTT57readIntEPt>
            logger.trace("Server Reference: %s", str);
            break;
        }
        case PROP_AUTHENTICATION_METHOD: {
            uint16_t len = readUTF8StringLength(index);
            char str[len + 1];
   d4f7c:	f100 0208 	add.w	r2, r0, #8
   d4f80:	f022 0207 	bic.w	r2, r2, #7
            readUTF8String(index, str, len);
            logger.trace("Authentication Method: %s", str);
            break;
   d4f84:	466e      	mov	r6, sp
            logger.trace("Server Reference: %s", str);
            break;
        }
        case PROP_AUTHENTICATION_METHOD: {
            uint16_t len = readUTF8StringLength(index);
            char str[len + 1];
   d4f86:	ebad 0d02 	sub.w	sp, sp, r2
    (*position)++;
    return true;
}

uint16_t MQTT5::readUTF8StringLength(uint16_t *position) {
    return readInt(position);
   d4f8a:	4603      	mov	r3, r0
            break;
        }
        case PROP_AUTHENTICATION_METHOD: {
            uint16_t len = readUTF8StringLength(index);
            char str[len + 1];
            readUTF8String(index, str, len);
   d4f8c:	466a      	mov	r2, sp
   d4f8e:	4629      	mov	r1, r5
   d4f90:	4620      	mov	r0, r4
   d4f92:	f7ff fe4b 	bl	d4c2c <_ZN5MQTT514readUTF8StringEPtPct>
            logger.trace("Authentication Method: %s", str);
   d4f96:	4917      	ldr	r1, [pc, #92]	; (d4ff4 <_ZN5MQTT530processPacketConnAckPropertiesEhPt+0x1e0>)
   d4f98:	466a      	mov	r2, sp
   d4f9a:	4620      	mov	r0, r4
   d4f9c:	f7ff fda8 	bl	d4af0 <_ZNK5spark6Logger5traceEPKcz>
   d4fa0:	46b5      	mov	sp, r6
   d4fa2:	e007      	b.n	d4fb4 <_ZN5MQTT530processPacketConnAckPropertiesEhPt+0x1a0>
            break;
        }
        case PROP_AUTHENTICATION_DATA:
            logger.trace("Authentication Data");
   d4fa4:	4914      	ldr	r1, [pc, #80]	; (d4ff8 <_ZN5MQTT530processPacketConnAckPropertiesEhPt+0x1e4>)
   d4fa6:	4620      	mov	r0, r4
   d4fa8:	f7ff fda2 	bl	d4af0 <_ZNK5spark6Logger5traceEPKcz>
            break;
   d4fac:	e002      	b.n	d4fb4 <_ZN5MQTT530processPacketConnAckPropertiesEhPt+0x1a0>
        default:
            logger.warn("Unknown connect property");
   d4fae:	4913      	ldr	r1, [pc, #76]	; (d4ffc <_ZN5MQTT530processPacketConnAckPropertiesEhPt+0x1e8>)
   d4fb0:	f7ff fdac 	bl	d4b0c <_ZNK5spark6Logger4warnEPKcz>
            break;
    }
}
   d4fb4:	46bd      	mov	sp, r7
   d4fb6:	bdf8      	pop	{r3, r4, r5, r6, r7, pc}
   d4fb8:	000db2dd 	.word	0x000db2dd
   d4fbc:	000db2fa 	.word	0x000db2fa
   d4fc0:	000db30e 	.word	0x000db30e
   d4fc4:	000db31e 	.word	0x000db31e
   d4fc8:	000db333 	.word	0x000db333
   d4fcc:	000db34c 	.word	0x000db34c
   d4fd0:	000db36b 	.word	0x000db36b
   d4fd4:	000db383 	.word	0x000db383
   d4fd8:	000db395 	.word	0x000db395
   d4fdc:	000db3a3 	.word	0x000db3a3
   d4fe0:	000db3c7 	.word	0x000db3c7
   d4fe4:	000db3ee 	.word	0x000db3ee
   d4fe8:	000db410 	.word	0x000db410
   d4fec:	000db426 	.word	0x000db426
   d4ff0:	000db43f 	.word	0x000db43f
   d4ff4:	000db454 	.word	0x000db454
   d4ff8:	000db46e 	.word	0x000db46e
   d4ffc:	000db482 	.word	0x000db482

000d5000 <_ZN5MQTT526processPacketPubPropertiesEhPt>:
        pubAck(packetId);
    else if (qos == MQTT5_QOS::QOS2)
        pubRec(packetId);
}

void MQTT5::processPacketPubProperties(uint8_t identifier, uint16_t *index) {
   d5000:	b5f8      	push	{r3, r4, r5, r6, r7, lr}
    switch (identifier) {
   d5002:	2908      	cmp	r1, #8
        pubAck(packetId);
    else if (qos == MQTT5_QOS::QOS2)
        pubRec(packetId);
}

void MQTT5::processPacketPubProperties(uint8_t identifier, uint16_t *index) {
   d5004:	af00      	add	r7, sp, #0
   d5006:	4604      	mov	r4, r0
   d5008:	4615      	mov	r5, r2
    switch (identifier) {
   d500a:	d029      	beq.n	d5060 <_ZN5MQTT526processPacketPubPropertiesEhPt+0x60>
   d500c:	d80c      	bhi.n	d5028 <_ZN5MQTT526processPacketPubPropertiesEhPt+0x28>
   d500e:	2902      	cmp	r1, #2
   d5010:	d017      	beq.n	d5042 <_ZN5MQTT526processPacketPubPropertiesEhPt+0x42>
   d5012:	2903      	cmp	r1, #3
   d5014:	d03b      	beq.n	d508e <_ZN5MQTT526processPacketPubPropertiesEhPt+0x8e>
   d5016:	2901      	cmp	r1, #1
   d5018:	d150      	bne.n	d50bc <_ZN5MQTT526processPacketPubPropertiesEhPt+0xbc>
        case PROP_PAYLOAD_FORMAT_INDICATOR:
            logger.trace("Payload Format Indicator: %d", buffer[(*index)++]);
   d501a:	882b      	ldrh	r3, [r5, #0]
   d501c:	6882      	ldr	r2, [r0, #8]
   d501e:	1c59      	adds	r1, r3, #1
   d5020:	8029      	strh	r1, [r5, #0]
   d5022:	5cd2      	ldrb	r2, [r2, r3]
   d5024:	4928      	ldr	r1, [pc, #160]	; (d50c8 <_ZN5MQTT526processPacketPubPropertiesEhPt+0xc8>)
   d5026:	e012      	b.n	d504e <_ZN5MQTT526processPacketPubPropertiesEhPt+0x4e>
    else if (qos == MQTT5_QOS::QOS2)
        pubRec(packetId);
}

void MQTT5::processPacketPubProperties(uint8_t identifier, uint16_t *index) {
    switch (identifier) {
   d5028:	290b      	cmp	r1, #11
   d502a:	d02c      	beq.n	d5086 <_ZN5MQTT526processPacketPubPropertiesEhPt+0x86>
   d502c:	d803      	bhi.n	d5036 <_ZN5MQTT526processPacketPubPropertiesEhPt+0x36>
   d502e:	2909      	cmp	r1, #9
   d5030:	d144      	bne.n	d50bc <_ZN5MQTT526processPacketPubPropertiesEhPt+0xbc>
            readUTF8String(index, str, len);
            logger.trace("Response Topic: %s", str);
            break;
        }
        case PROP_CORRELATION_DATA:
            logger.trace("Correlation Data");
   d5032:	4926      	ldr	r1, [pc, #152]	; (d50cc <_ZN5MQTT526processPacketPubPropertiesEhPt+0xcc>)
   d5034:	e028      	b.n	d5088 <_ZN5MQTT526processPacketPubPropertiesEhPt+0x88>
    else if (qos == MQTT5_QOS::QOS2)
        pubRec(packetId);
}

void MQTT5::processPacketPubProperties(uint8_t identifier, uint16_t *index) {
    switch (identifier) {
   d5036:	2923      	cmp	r1, #35	; 0x23
   d5038:	d00c      	beq.n	d5054 <_ZN5MQTT526processPacketPubPropertiesEhPt+0x54>
   d503a:	2926      	cmp	r1, #38	; 0x26
   d503c:	d13e      	bne.n	d50bc <_ZN5MQTT526processPacketPubPropertiesEhPt+0xbc>
        }
        case PROP_CORRELATION_DATA:
            logger.trace("Correlation Data");
            break;
        case PROP_USER_PROPERTY:
            logger.trace("User Property");
   d503e:	4924      	ldr	r1, [pc, #144]	; (d50d0 <_ZN5MQTT526processPacketPubPropertiesEhPt+0xd0>)
   d5040:	e022      	b.n	d5088 <_ZN5MQTT526processPacketPubPropertiesEhPt+0x88>
    switch (identifier) {
        case PROP_PAYLOAD_FORMAT_INDICATOR:
            logger.trace("Payload Format Indicator: %d", buffer[(*index)++]);
            break;
        case PROP_MESSAGE_EXPIRY_INTERVAL:
            logger.trace("Message Expiry Interval: %ld", readLong(index));
   d5042:	4611      	mov	r1, r2
   d5044:	f7ff fed4 	bl	d4df0 <_ZN5MQTT58readLongEPt>
   d5048:	4922      	ldr	r1, [pc, #136]	; (d50d4 <_ZN5MQTT526processPacketPubPropertiesEhPt+0xd4>)
   d504a:	4602      	mov	r2, r0
   d504c:	4620      	mov	r0, r4
   d504e:	f7ff fd4f 	bl	d4af0 <_ZNK5spark6Logger5traceEPKcz>
            break;
   d5052:	e037      	b.n	d50c4 <_ZN5MQTT526processPacketPubPropertiesEhPt+0xc4>
        case PROP_TOPIC_ALIAS:
            logger.trace("Topic Alias: %d", readInt(index));
   d5054:	4611      	mov	r1, r2
   d5056:	f7ff fdfa 	bl	d4c4e <_ZN5MQTT57readIntEPt>
   d505a:	491f      	ldr	r1, [pc, #124]	; (d50d8 <_ZN5MQTT526processPacketPubPropertiesEhPt+0xd8>)
   d505c:	4602      	mov	r2, r0
   d505e:	e7f5      	b.n	d504c <_ZN5MQTT526processPacketPubPropertiesEhPt+0x4c>
    (*position)++;
    return true;
}

uint16_t MQTT5::readUTF8StringLength(uint16_t *position) {
    return readInt(position);
   d5060:	4611      	mov	r1, r2
   d5062:	f7ff fdf4 	bl	d4c4e <_ZN5MQTT57readIntEPt>
        case PROP_TOPIC_ALIAS:
            logger.trace("Topic Alias: %d", readInt(index));
            break;
        case PROP_RESPONSE_TOPIC: {
            uint16_t len = readUTF8StringLength(index);
            char str[len + 1];
   d5066:	f100 0208 	add.w	r2, r0, #8
   d506a:	f022 0207 	bic.w	r2, r2, #7
            readUTF8String(index, str, len);
            logger.trace("Response Topic: %s", str);
            break;
   d506e:	466e      	mov	r6, sp
        case PROP_TOPIC_ALIAS:
            logger.trace("Topic Alias: %d", readInt(index));
            break;
        case PROP_RESPONSE_TOPIC: {
            uint16_t len = readUTF8StringLength(index);
            char str[len + 1];
   d5070:	ebad 0d02 	sub.w	sp, sp, r2
    (*position)++;
    return true;
}

uint16_t MQTT5::readUTF8StringLength(uint16_t *position) {
    return readInt(position);
   d5074:	4603      	mov	r3, r0
            logger.trace("Topic Alias: %d", readInt(index));
            break;
        case PROP_RESPONSE_TOPIC: {
            uint16_t len = readUTF8StringLength(index);
            char str[len + 1];
            readUTF8String(index, str, len);
   d5076:	466a      	mov	r2, sp
   d5078:	4629      	mov	r1, r5
   d507a:	4620      	mov	r0, r4
   d507c:	f7ff fdd6 	bl	d4c2c <_ZN5MQTT514readUTF8StringEPtPct>
            logger.trace("Response Topic: %s", str);
   d5080:	466a      	mov	r2, sp
   d5082:	4916      	ldr	r1, [pc, #88]	; (d50dc <_ZN5MQTT526processPacketPubPropertiesEhPt+0xdc>)
   d5084:	e015      	b.n	d50b2 <_ZN5MQTT526processPacketPubPropertiesEhPt+0xb2>
            break;
        case PROP_USER_PROPERTY:
            logger.trace("User Property");
            break;
        case PROP_SUBSCRIPTION_IDENTIFIER:
            logger.trace("Subscription Identifier");
   d5086:	4916      	ldr	r1, [pc, #88]	; (d50e0 <_ZN5MQTT526processPacketPubPropertiesEhPt+0xe0>)
   d5088:	f7ff fd32 	bl	d4af0 <_ZNK5spark6Logger5traceEPKcz>
            break;
   d508c:	e01a      	b.n	d50c4 <_ZN5MQTT526processPacketPubPropertiesEhPt+0xc4>
    (*position)++;
    return true;
}

uint16_t MQTT5::readUTF8StringLength(uint16_t *position) {
    return readInt(position);
   d508e:	4611      	mov	r1, r2
   d5090:	f7ff fddd 	bl	d4c4e <_ZN5MQTT57readIntEPt>
        case PROP_SUBSCRIPTION_IDENTIFIER:
            logger.trace("Subscription Identifier");
            break;
        case PROP_CONTENT_TYPE: {
            uint16_t len = readUTF8StringLength(index);
            char str[len + 1];
   d5094:	f100 0208 	add.w	r2, r0, #8
   d5098:	f022 0207 	bic.w	r2, r2, #7
            readUTF8String(index, str, len);
            logger.trace("Content Type: %s", str);
            break;
   d509c:	466e      	mov	r6, sp
        case PROP_SUBSCRIPTION_IDENTIFIER:
            logger.trace("Subscription Identifier");
            break;
        case PROP_CONTENT_TYPE: {
            uint16_t len = readUTF8StringLength(index);
            char str[len + 1];
   d509e:	ebad 0d02 	sub.w	sp, sp, r2
    (*position)++;
    return true;
}

uint16_t MQTT5::readUTF8StringLength(uint16_t *position) {
    return readInt(position);
   d50a2:	4603      	mov	r3, r0
            logger.trace("Subscription Identifier");
            break;
        case PROP_CONTENT_TYPE: {
            uint16_t len = readUTF8StringLength(index);
            char str[len + 1];
            readUTF8String(index, str, len);
   d50a4:	466a      	mov	r2, sp
   d50a6:	4629      	mov	r1, r5
   d50a8:	4620      	mov	r0, r4
   d50aa:	f7ff fdbf 	bl	d4c2c <_ZN5MQTT514readUTF8StringEPtPct>
            logger.trace("Content Type: %s", str);
   d50ae:	490d      	ldr	r1, [pc, #52]	; (d50e4 <_ZN5MQTT526processPacketPubPropertiesEhPt+0xe4>)
   d50b0:	466a      	mov	r2, sp
   d50b2:	4620      	mov	r0, r4
   d50b4:	f7ff fd1c 	bl	d4af0 <_ZNK5spark6Logger5traceEPKcz>
   d50b8:	46b5      	mov	sp, r6
   d50ba:	e003      	b.n	d50c4 <_ZN5MQTT526processPacketPubPropertiesEhPt+0xc4>
            break;
        }
        default:
            logger.warn("Unknown publish property");
   d50bc:	490a      	ldr	r1, [pc, #40]	; (d50e8 <_ZN5MQTT526processPacketPubPropertiesEhPt+0xe8>)
   d50be:	4620      	mov	r0, r4
   d50c0:	f7ff fd24 	bl	d4b0c <_ZNK5spark6Logger4warnEPKcz>
            break;
    }
}
   d50c4:	46bd      	mov	sp, r7
   d50c6:	bdf8      	pop	{r3, r4, r5, r6, r7, pc}
   d50c8:	000db49b 	.word	0x000db49b
   d50cc:	000db4f8 	.word	0x000db4f8
   d50d0:	000db395 	.word	0x000db395
   d50d4:	000db4b8 	.word	0x000db4b8
   d50d8:	000db4d5 	.word	0x000db4d5
   d50dc:	000db4e5 	.word	0x000db4e5
   d50e0:	000db509 	.word	0x000db509
   d50e4:	000db521 	.word	0x000db521
   d50e8:	000db532 	.word	0x000db532

000d50ec <_ZN5MQTT513writeToSocketEtb>:
    uint32_t result = buffer[*position] << 24 | buffer[*position + 1] << 16 | buffer[*position + 2] << 8 | buffer[*position + 3];
    (*position) += 4;
    return result;
}

bool MQTT5::writeToSocket(uint16_t length, bool increasePacketsInFlight) {
   d50ec:	b5f8      	push	{r3, r4, r5, r6, r7, lr}
   d50ee:	4604      	mov	r4, r0
#ifdef MQTT5_DEBUG
    logger.trace("Write %d bytes:", length);
    logger.dump(buffer, length);
    logger.print("\n");
#endif
    uint16_t bytesWritten = socket->write(buffer, length);
   d50f0:	6840      	ldr	r0, [r0, #4]
   d50f2:	6803      	ldr	r3, [r0, #0]
    uint32_t result = buffer[*position] << 24 | buffer[*position + 1] << 16 | buffer[*position + 2] << 8 | buffer[*position + 3];
    (*position) += 4;
    return result;
}

bool MQTT5::writeToSocket(uint16_t length, bool increasePacketsInFlight) {
   d50f4:	460d      	mov	r5, r1
#ifdef MQTT5_DEBUG
    logger.trace("Write %d bytes:", length);
    logger.dump(buffer, length);
    logger.print("\n");
#endif
    uint16_t bytesWritten = socket->write(buffer, length);
   d50f6:	68db      	ldr	r3, [r3, #12]
    uint32_t result = buffer[*position] << 24 | buffer[*position + 1] << 16 | buffer[*position + 2] << 8 | buffer[*position + 3];
    (*position) += 4;
    return result;
}

bool MQTT5::writeToSocket(uint16_t length, bool increasePacketsInFlight) {
   d50f8:	4617      	mov	r7, r2
#ifdef MQTT5_DEBUG
    logger.trace("Write %d bytes:", length);
    logger.dump(buffer, length);
    logger.print("\n");
#endif
    uint16_t bytesWritten = socket->write(buffer, length);
   d50fa:	460a      	mov	r2, r1
   d50fc:	68a1      	ldr	r1, [r4, #8]
   d50fe:	4798      	blx	r3
   d5100:	b286      	uxth	r6, r0
    socket->flush();
   d5102:	6860      	ldr	r0, [r4, #4]
   d5104:	6803      	ldr	r3, [r0, #0]
   d5106:	69db      	ldr	r3, [r3, #28]
   d5108:	4798      	blx	r3
   d510a:	f000 ff63 	bl	d5fd4 <HAL_Timer_Get_Milli_Seconds>
    lastOutbound = millis();
   d510e:	61a0      	str	r0, [r4, #24]
    if (increasePacketsInFlight)
   d5110:	b127      	cbz	r7, d511c <_ZN5MQTT513writeToSocketEtb+0x30>
        packetsInFlight++;
   d5112:	f894 3035 	ldrb.w	r3, [r4, #53]	; 0x35
   d5116:	3301      	adds	r3, #1
   d5118:	f884 3035 	strb.w	r3, [r4, #53]	; 0x35
    return (bytesWritten == length);
}
   d511c:	1bab      	subs	r3, r5, r6
   d511e:	4258      	negs	r0, r3
   d5120:	4158      	adcs	r0, r3
   d5122:	bdf8      	pop	{r3, r4, r5, r6, r7, pc}

000d5124 <_ZN5MQTT524writeVariableByteIntegerEPtt>:

bool MQTT5::writeVariableByteInteger(uint16_t *position, uint16_t length) {
   d5124:	b5f7      	push	{r0, r1, r2, r4, r5, r6, r7, lr}
    uint8_t lenBuf[4] = {0};
   d5126:	2300      	movs	r3, #0
    if (increasePacketsInFlight)
        packetsInFlight++;
    return (bytesWritten == length);
}

bool MQTT5::writeVariableByteInteger(uint16_t *position, uint16_t length) {
   d5128:	4607      	mov	r7, r0
   d512a:	460d      	mov	r5, r1
   d512c:	4616      	mov	r6, r2
    uint8_t lenBuf[4] = {0};
   d512e:	9301      	str	r3, [sp, #4]
    uint8_t llen = 0;
    uint8_t digit;
    uint8_t pos = 0;
    uint16_t len = length;
   d5130:	4614      	mov	r4, r2
        digit = len % 128;
        len = len / 128;
        if (len > 0) {
            digit |= 0x80;
        }
        lenBuf[pos++] = digit;
   d5132:	a902      	add	r1, sp, #8
    uint8_t digit;
    uint8_t pos = 0;
    uint16_t len = length;
    // Calculate variable byte integer (see 1.5.5)
    do {
        digit = len % 128;
   d5134:	f004 027f 	and.w	r2, r4, #127	; 0x7f
        len = len / 128;
        if (len > 0) {
            digit |= 0x80;
        }
        lenBuf[pos++] = digit;
   d5138:	fa51 f183 	uxtab	r1, r1, r3
    uint16_t len = length;
    // Calculate variable byte integer (see 1.5.5)
    do {
        digit = len % 128;
        len = len / 128;
        if (len > 0) {
   d513c:	09e4      	lsrs	r4, r4, #7
            digit |= 0x80;
   d513e:	bf18      	it	ne
   d5140:	f042 0280 	orrne.w	r2, r2, #128	; 0x80
        }
        lenBuf[pos++] = digit;
   d5144:	f801 2c04 	strb.w	r2, [r1, #-4]
   d5148:	3301      	adds	r3, #1
        llen++;
    } while(len > 0);
   d514a:	2c00      	cmp	r4, #0
   d514c:	d1f1      	bne.n	d5132 <_ZN5MQTT524writeVariableByteIntegerEPtt+0xe>
    // Add integer with zero
    if (len == 0) 
        llen = 1;

    // Check if content fits in buffer
    if ((*position) + llen + length > maxPacketSize) {
   d514e:	8829      	ldrh	r1, [r5, #0]
   d5150:	8dba      	ldrh	r2, [r7, #44]	; 0x2c
   d5152:	1c4b      	adds	r3, r1, #1
   d5154:	1998      	adds	r0, r3, r6
   d5156:	4290      	cmp	r0, r2
   d5158:	dd05      	ble.n	d5166 <_ZN5MQTT524writeVariableByteIntegerEPtt+0x42>
        logger.warn("Packet exceeds max packet size %d", maxPacketSize);
   d515a:	4638      	mov	r0, r7
   d515c:	490b      	ldr	r1, [pc, #44]	; (d518c <_ZN5MQTT524writeVariableByteIntegerEPtt+0x68>)
   d515e:	f7ff fcd5 	bl	d4b0c <_ZNK5spark6Logger4warnEPKcz>
        return false;
   d5162:	4620      	mov	r0, r4
   d5164:	e00f      	b.n	d5186 <_ZN5MQTT524writeVariableByteIntegerEPtt+0x62>
    }

    // Move current contents of the buffer to make space for the integer
    memmove(buffer + (*position) + llen, buffer + (*position), length);
   d5166:	68b8      	ldr	r0, [r7, #8]
   d5168:	4632      	mov	r2, r6
   d516a:	4401      	add	r1, r0
   d516c:	4418      	add	r0, r3
   d516e:	f005 fbf3 	bl	da958 <memmove>
    memcpy(buffer + (*position), lenBuf, llen); // set remaining length
   d5172:	68ba      	ldr	r2, [r7, #8]
   d5174:	882b      	ldrh	r3, [r5, #0]
   d5176:	f89d 1004 	ldrb.w	r1, [sp, #4]
   d517a:	54d1      	strb	r1, [r2, r3]
    *position += llen + length;
   d517c:	882a      	ldrh	r2, [r5, #0]
   d517e:	4432      	add	r2, r6
   d5180:	3201      	adds	r2, #1
   d5182:	802a      	strh	r2, [r5, #0]
    return true;
   d5184:	2001      	movs	r0, #1
}
   d5186:	b003      	add	sp, #12
   d5188:	bdf0      	pop	{r4, r5, r6, r7, pc}
   d518a:	bf00      	nop
   d518c:	000db54b 	.word	0x000db54b

000d5190 <_ZN5MQTT515writeUTF8StringEPtPKct>:

bool MQTT5::writeUTF8String(uint16_t *position, const char* str, uint16_t length) {
   d5190:	b5f8      	push	{r3, r4, r5, r6, r7, lr}
   d5192:	460c      	mov	r4, r1
   d5194:	461d      	mov	r5, r3
    if ((*position) + length + 2 > maxPacketSize) {
   d5196:	8823      	ldrh	r3, [r4, #0]
    memcpy(buffer + (*position), lenBuf, llen); // set remaining length
    *position += llen + length;
    return true;
}

bool MQTT5::writeUTF8String(uint16_t *position, const char* str, uint16_t length) {
   d5198:	4611      	mov	r1, r2
    if ((*position) + length + 2 > maxPacketSize) {
   d519a:	195f      	adds	r7, r3, r5
   d519c:	8d82      	ldrh	r2, [r0, #44]	; 0x2c
   d519e:	3701      	adds	r7, #1
   d51a0:	4297      	cmp	r7, r2
    memcpy(buffer + (*position), lenBuf, llen); // set remaining length
    *position += llen + length;
    return true;
}

bool MQTT5::writeUTF8String(uint16_t *position, const char* str, uint16_t length) {
   d51a2:	4606      	mov	r6, r0
    if ((*position) + length + 2 > maxPacketSize) {
   d51a4:	db04      	blt.n	d51b0 <_ZN5MQTT515writeUTF8StringEPtPKct+0x20>
        logger.warn("Packet exceeds max packet size %d", maxPacketSize);
   d51a6:	490d      	ldr	r1, [pc, #52]	; (d51dc <_ZN5MQTT515writeUTF8StringEPtPKct+0x4c>)
   d51a8:	f7ff fcb0 	bl	d4b0c <_ZNK5spark6Logger4warnEPKcz>
        return false;
   d51ac:	2000      	movs	r0, #0
   d51ae:	bdf8      	pop	{r3, r4, r5, r6, r7, pc}
    }

    buffer[(*position)++] = length >> 8;
   d51b0:	6882      	ldr	r2, [r0, #8]
   d51b2:	1c58      	adds	r0, r3, #1
   d51b4:	8020      	strh	r0, [r4, #0]
   d51b6:	1228      	asrs	r0, r5, #8
   d51b8:	54d0      	strb	r0, [r2, r3]
    buffer[(*position)++] = length & 0xFF;
   d51ba:	8823      	ldrh	r3, [r4, #0]
   d51bc:	68b2      	ldr	r2, [r6, #8]
   d51be:	1c58      	adds	r0, r3, #1
   d51c0:	8020      	strh	r0, [r4, #0]
   d51c2:	54d5      	strb	r5, [r2, r3]
    memcpy(buffer + (*position), str, length);
   d51c4:	8823      	ldrh	r3, [r4, #0]
   d51c6:	68b0      	ldr	r0, [r6, #8]
   d51c8:	462a      	mov	r2, r5
   d51ca:	4418      	add	r0, r3
   d51cc:	f005 fbb9 	bl	da942 <memcpy>
    *position += length;
   d51d0:	8823      	ldrh	r3, [r4, #0]
   d51d2:	441d      	add	r5, r3
   d51d4:	8025      	strh	r5, [r4, #0]
    return true;
   d51d6:	2001      	movs	r0, #1
}
   d51d8:	bdf8      	pop	{r3, r4, r5, r6, r7, pc}
   d51da:	bf00      	nop
   d51dc:	000db54b 	.word	0x000db54b

000d51e0 <_ZN5MQTT59writeByteEPth>:

bool MQTT5::writeByte(uint16_t *position, uint8_t content) {
   d51e0:	b538      	push	{r3, r4, r5, lr}
   d51e2:	4615      	mov	r5, r2
    if ((*position) + 1 > maxPacketSize) {
   d51e4:	880b      	ldrh	r3, [r1, #0]
   d51e6:	8d82      	ldrh	r2, [r0, #44]	; 0x2c
   d51e8:	4293      	cmp	r3, r2
   d51ea:	db04      	blt.n	d51f6 <_ZN5MQTT59writeByteEPth+0x16>
        logger.warn("Packet exceeds max packet size %d", maxPacketSize);
   d51ec:	4905      	ldr	r1, [pc, #20]	; (d5204 <_ZN5MQTT59writeByteEPth+0x24>)
   d51ee:	f7ff fc8d 	bl	d4b0c <_ZNK5spark6Logger4warnEPKcz>
        return false;
   d51f2:	2000      	movs	r0, #0
   d51f4:	bd38      	pop	{r3, r4, r5, pc}
    }
    buffer[(*position)++] = content;
   d51f6:	6880      	ldr	r0, [r0, #8]
   d51f8:	1c5a      	adds	r2, r3, #1
   d51fa:	800a      	strh	r2, [r1, #0]
   d51fc:	54c5      	strb	r5, [r0, r3]
    return true;
   d51fe:	2001      	movs	r0, #1
}
   d5200:	bd38      	pop	{r3, r4, r5, pc}
   d5202:	bf00      	nop
   d5204:	000db54b 	.word	0x000db54b

000d5208 <_ZN5MQTT54pingEv>:

    logger.info("Unsubscribe was issued for %d topics with packet id %d", topicLength, nextPacketId - 1);
    return writeToSocket(index);
}

bool MQTT5::ping() {
   d5208:	b573      	push	{r0, r1, r4, r5, r6, lr}
    uint16_t index = 0;
   d520a:	ad02      	add	r5, sp, #8
   d520c:	2600      	movs	r6, #0
   d520e:	f825 6d02 	strh.w	r6, [r5, #-2]!
    // 3.12.1 PINGREQ Fixed Header
    if (!writeByte(&index, (uint8_t) (CTRL_PINGREQ << 4)))
   d5212:	22c0      	movs	r2, #192	; 0xc0
   d5214:	4629      	mov	r1, r5

    logger.info("Unsubscribe was issued for %d topics with packet id %d", topicLength, nextPacketId - 1);
    return writeToSocket(index);
}

bool MQTT5::ping() {
   d5216:	4604      	mov	r4, r0
    uint16_t index = 0;
    // 3.12.1 PINGREQ Fixed Header
    if (!writeByte(&index, (uint8_t) (CTRL_PINGREQ << 4)))
   d5218:	f7ff ffe2 	bl	d51e0 <_ZN5MQTT59writeByteEPth>
   d521c:	b908      	cbnz	r0, d5222 <_ZN5MQTT54pingEv+0x1a>
        return false;
   d521e:	2000      	movs	r0, #0
   d5220:	e013      	b.n	d524a <_ZN5MQTT54pingEv+0x42>

    if (!writeByte(&index, 0))
   d5222:	4632      	mov	r2, r6
   d5224:	4629      	mov	r1, r5
   d5226:	4620      	mov	r0, r4
   d5228:	f7ff ffda 	bl	d51e0 <_ZN5MQTT59writeByteEPth>
   d522c:	2800      	cmp	r0, #0
   d522e:	d0f6      	beq.n	d521e <_ZN5MQTT54pingEv+0x16>
        return false;

    logger.info("Sending ping request");
   d5230:	4907      	ldr	r1, [pc, #28]	; (d5250 <_ZN5MQTT54pingEv+0x48>)
   d5232:	4620      	mov	r0, r4
   d5234:	f7fe ff7c 	bl	d4130 <_ZNK5spark6Logger4infoEPKcz>
   d5238:	f000 fecc 	bl	d5fd4 <HAL_Timer_Get_Milli_Seconds>
    lastPingSent = millis();
    return writeToSocket(index, false);
   d523c:	4632      	mov	r2, r6

    if (!writeByte(&index, 0))
        return false;

    logger.info("Sending ping request");
    lastPingSent = millis();
   d523e:	6220      	str	r0, [r4, #32]
    return writeToSocket(index, false);
   d5240:	f8bd 1006 	ldrh.w	r1, [sp, #6]
   d5244:	4620      	mov	r0, r4
   d5246:	f7ff ff51 	bl	d50ec <_ZN5MQTT513writeToSocketEtb>
}
   d524a:	b002      	add	sp, #8
   d524c:	bd70      	pop	{r4, r5, r6, pc}
   d524e:	bf00      	nop
   d5250:	000db56d 	.word	0x000db56d

000d5254 <_ZN5MQTT520disconnectWithReasonE17MQTT5_REASON_CODE>:
        disconnectWithReason(MQTT5_REASON_CODE::NORMAL_DISCONNECTION); 
    }
    close();
}

bool MQTT5::disconnectWithReason(MQTT5_REASON_CODE reason) {
   d5254:	b5f7      	push	{r0, r1, r2, r4, r5, r6, r7, lr}
    uint16_t index = 0;
   d5256:	ac02      	add	r4, sp, #8
   d5258:	2600      	movs	r6, #0
   d525a:	f824 6d02 	strh.w	r6, [r4, #-2]!
        disconnectWithReason(MQTT5_REASON_CODE::NORMAL_DISCONNECTION); 
    }
    close();
}

bool MQTT5::disconnectWithReason(MQTT5_REASON_CODE reason) {
   d525e:	460f      	mov	r7, r1
    uint16_t index = 0;
    // 3.14.1 DISCONNECT Fixed Header
    if (!writeByte(&index, CTRL_DISCONNECT << 4))
   d5260:	22e0      	movs	r2, #224	; 0xe0
   d5262:	4621      	mov	r1, r4
        disconnectWithReason(MQTT5_REASON_CODE::NORMAL_DISCONNECTION); 
    }
    close();
}

bool MQTT5::disconnectWithReason(MQTT5_REASON_CODE reason) {
   d5264:	4605      	mov	r5, r0
    uint16_t index = 0;
    // 3.14.1 DISCONNECT Fixed Header
    if (!writeByte(&index, CTRL_DISCONNECT << 4))
   d5266:	f7ff ffbb 	bl	d51e0 <_ZN5MQTT59writeByteEPth>
   d526a:	b908      	cbnz	r0, d5270 <_ZN5MQTT520disconnectWithReasonE17MQTT5_REASON_CODE+0x1c>
        return false;
   d526c:	2000      	movs	r0, #0
   d526e:	e025      	b.n	d52bc <_ZN5MQTT520disconnectWithReasonE17MQTT5_REASON_CODE+0x68>

    // 3.14.2.1 Disconnect Reason Code
    if (!writeByte(&index, (uint8_t) reason))
   d5270:	463a      	mov	r2, r7
   d5272:	4621      	mov	r1, r4
   d5274:	4628      	mov	r0, r5
   d5276:	f7ff ffb3 	bl	d51e0 <_ZN5MQTT59writeByteEPth>
   d527a:	2800      	cmp	r0, #0
   d527c:	d0f6      	beq.n	d526c <_ZN5MQTT520disconnectWithReasonE17MQTT5_REASON_CODE+0x18>
        return false;
        
    // 3.14.2.2 DISCONNECT Properties
    if (!writeVariableByteInteger(&index, 0))
   d527e:	4632      	mov	r2, r6
   d5280:	4621      	mov	r1, r4
   d5282:	4628      	mov	r0, r5
   d5284:	f7ff ff4e 	bl	d5124 <_ZN5MQTT524writeVariableByteIntegerEPtt>
   d5288:	2800      	cmp	r0, #0
   d528a:	d0ef      	beq.n	d526c <_ZN5MQTT520disconnectWithReasonE17MQTT5_REASON_CODE+0x18>
        return false;

    // 3.14.1 DISCONNECT Fixed Header Remaining Length
    uint16_t len = index - 1;
   d528c:	f8bd 2006 	ldrh.w	r2, [sp, #6]
   d5290:	3a01      	subs	r2, #1
    index = 1;
   d5292:	2601      	movs	r6, #1
    if (!writeVariableByteInteger(&index, len))
   d5294:	b292      	uxth	r2, r2
   d5296:	4621      	mov	r1, r4
   d5298:	4628      	mov	r0, r5
    if (!writeVariableByteInteger(&index, 0))
        return false;

    // 3.14.1 DISCONNECT Fixed Header Remaining Length
    uint16_t len = index - 1;
    index = 1;
   d529a:	f8ad 6006 	strh.w	r6, [sp, #6]
    if (!writeVariableByteInteger(&index, len))
   d529e:	f7ff ff41 	bl	d5124 <_ZN5MQTT524writeVariableByteIntegerEPtt>
   d52a2:	2800      	cmp	r0, #0
   d52a4:	d0e2      	beq.n	d526c <_ZN5MQTT520disconnectWithReasonE17MQTT5_REASON_CODE+0x18>
        return false;

    logger.info("Sending disconnect with reason %d", (uint8_t) reason);
   d52a6:	463a      	mov	r2, r7
   d52a8:	4905      	ldr	r1, [pc, #20]	; (d52c0 <_ZN5MQTT520disconnectWithReasonE17MQTT5_REASON_CODE+0x6c>)
   d52aa:	4628      	mov	r0, r5
   d52ac:	f7fe ff40 	bl	d4130 <_ZNK5spark6Logger4infoEPKcz>
    return writeToSocket(index);
   d52b0:	4632      	mov	r2, r6
   d52b2:	f8bd 1006 	ldrh.w	r1, [sp, #6]
   d52b6:	4628      	mov	r0, r5
   d52b8:	f7ff ff18 	bl	d50ec <_ZN5MQTT513writeToSocketEtb>
}
   d52bc:	b003      	add	sp, #12
   d52be:	bdf0      	pop	{r4, r5, r6, r7, pc}
   d52c0:	000db582 	.word	0x000db582

000d52c4 <_ZN5MQTT510writeBytesEPtPKht>:
    }
    buffer[(*position)++] = content;
    return true;
}

bool MQTT5::writeBytes(uint16_t *position, const uint8_t *payload, uint16_t payloadLength) {
   d52c4:	b5f8      	push	{r3, r4, r5, r6, r7, lr}
   d52c6:	460c      	mov	r4, r1
   d52c8:	461d      	mov	r5, r3
    if ((*position) + payloadLength > maxPacketSize) {
   d52ca:	8823      	ldrh	r3, [r4, #0]
    }
    buffer[(*position)++] = content;
    return true;
}

bool MQTT5::writeBytes(uint16_t *position, const uint8_t *payload, uint16_t payloadLength) {
   d52cc:	4611      	mov	r1, r2
    if ((*position) + payloadLength > maxPacketSize) {
   d52ce:	8d82      	ldrh	r2, [r0, #44]	; 0x2c
   d52d0:	195f      	adds	r7, r3, r5
   d52d2:	4297      	cmp	r7, r2
   d52d4:	dd04      	ble.n	d52e0 <_ZN5MQTT510writeBytesEPtPKht+0x1c>
        logger.warn("Packet exceeds max packet size %d", maxPacketSize);
   d52d6:	4907      	ldr	r1, [pc, #28]	; (d52f4 <_ZN5MQTT510writeBytesEPtPKht+0x30>)
   d52d8:	f7ff fc18 	bl	d4b0c <_ZNK5spark6Logger4warnEPKcz>
        return false;
   d52dc:	2000      	movs	r0, #0
   d52de:	bdf8      	pop	{r3, r4, r5, r6, r7, pc}
    }
    memcpy(buffer + (*position), payload, payloadLength);
   d52e0:	6880      	ldr	r0, [r0, #8]
   d52e2:	462a      	mov	r2, r5
   d52e4:	4418      	add	r0, r3
   d52e6:	f005 fb2c 	bl	da942 <memcpy>
    *position += payloadLength;
   d52ea:	8822      	ldrh	r2, [r4, #0]
   d52ec:	18ab      	adds	r3, r5, r2
   d52ee:	8023      	strh	r3, [r4, #0]
    return true;
   d52f0:	2001      	movs	r0, #1
}
   d52f2:	bdf8      	pop	{r3, r4, r5, r6, r7, pc}
   d52f4:	000db54b 	.word	0x000db54b

000d52f8 <_ZN5MQTT58writeIntEPtt>:

bool MQTT5::writeInt(uint16_t *position, uint16_t content) {
   d52f8:	b570      	push	{r4, r5, r6, lr}
    if ((*position) + 2 > maxPacketSize) {
   d52fa:	880c      	ldrh	r4, [r1, #0]
   d52fc:	8d86      	ldrh	r6, [r0, #44]	; 0x2c
   d52fe:	1c65      	adds	r5, r4, #1
   d5300:	42b5      	cmp	r5, r6
    memcpy(buffer + (*position), payload, payloadLength);
    *position += payloadLength;
    return true;
}

bool MQTT5::writeInt(uint16_t *position, uint16_t content) {
   d5302:	4603      	mov	r3, r0
    if ((*position) + 2 > maxPacketSize) {
   d5304:	db05      	blt.n	d5312 <_ZN5MQTT58writeIntEPtt+0x1a>
        logger.warn("Packet exceeds max packet size %d", maxPacketSize);
   d5306:	4632      	mov	r2, r6
   d5308:	4907      	ldr	r1, [pc, #28]	; (d5328 <_ZN5MQTT58writeIntEPtt+0x30>)
   d530a:	f7ff fbff 	bl	d4b0c <_ZNK5spark6Logger4warnEPKcz>
        return false;
   d530e:	2000      	movs	r0, #0
   d5310:	bd70      	pop	{r4, r5, r6, pc}
    }
    buffer[(*position)++] = content >> 8;
   d5312:	6880      	ldr	r0, [r0, #8]
   d5314:	800d      	strh	r5, [r1, #0]
   d5316:	1215      	asrs	r5, r2, #8
   d5318:	5505      	strb	r5, [r0, r4]
    buffer[(*position)++] = content & 0xFF;
   d531a:	6898      	ldr	r0, [r3, #8]
   d531c:	880b      	ldrh	r3, [r1, #0]
   d531e:	1c5c      	adds	r4, r3, #1
   d5320:	800c      	strh	r4, [r1, #0]
   d5322:	54c2      	strb	r2, [r0, r3]
    return position;
   d5324:	2001      	movs	r0, #1
}
   d5326:	bd70      	pop	{r4, r5, r6, pc}
   d5328:	000db54b 	.word	0x000db54b

000d532c <_ZN5MQTT56pubAckEt>:
        logger.info("Already connected to server");
        return false;
    }
}

bool MQTT5::pubAck(uint16_t packetId) {
   d532c:	b573      	push	{r0, r1, r4, r5, r6, lr}
    uint16_t index = 0;
   d532e:	ac02      	add	r4, sp, #8
   d5330:	2300      	movs	r3, #0
   d5332:	f824 3d02 	strh.w	r3, [r4, #-2]!
        logger.info("Already connected to server");
        return false;
    }
}

bool MQTT5::pubAck(uint16_t packetId) {
   d5336:	460e      	mov	r6, r1
    uint16_t index = 0;
    // 3.4.1 PUBACK Fixed Header
    if (!writeByte(&index, (uint8_t) (CTRL_PUBACK << 4)))
   d5338:	2240      	movs	r2, #64	; 0x40
   d533a:	4621      	mov	r1, r4
        logger.info("Already connected to server");
        return false;
    }
}

bool MQTT5::pubAck(uint16_t packetId) {
   d533c:	4605      	mov	r5, r0
    uint16_t index = 0;
    // 3.4.1 PUBACK Fixed Header
    if (!writeByte(&index, (uint8_t) (CTRL_PUBACK << 4)))
   d533e:	f7ff ff4f 	bl	d51e0 <_ZN5MQTT59writeByteEPth>
   d5342:	b908      	cbnz	r0, d5348 <_ZN5MQTT56pubAckEt+0x1c>
        return false;
   d5344:	2000      	movs	r0, #0
   d5346:	e01d      	b.n	d5384 <_ZN5MQTT56pubAckEt+0x58>

    // 3.4.2 PUBACK Variable Header
    if (!writeInt(&index, packetId))
   d5348:	4632      	mov	r2, r6
   d534a:	4621      	mov	r1, r4
   d534c:	4628      	mov	r0, r5
   d534e:	f7ff ffd3 	bl	d52f8 <_ZN5MQTT58writeIntEPtt>
   d5352:	2800      	cmp	r0, #0
   d5354:	d0f6      	beq.n	d5344 <_ZN5MQTT56pubAckEt+0x18>
        return false;

    // 3.4.1 PUBACK Fixed Header remaining length
    uint16_t len = index - 1;
   d5356:	f8bd 2006 	ldrh.w	r2, [sp, #6]
   d535a:	3a01      	subs	r2, #1
    index = 1;
   d535c:	2301      	movs	r3, #1
    if (!writeVariableByteInteger(&index, len))
   d535e:	b292      	uxth	r2, r2
   d5360:	4621      	mov	r1, r4
   d5362:	4628      	mov	r0, r5
    if (!writeInt(&index, packetId))
        return false;

    // 3.4.1 PUBACK Fixed Header remaining length
    uint16_t len = index - 1;
    index = 1;
   d5364:	f8ad 3006 	strh.w	r3, [sp, #6]
    if (!writeVariableByteInteger(&index, len))
   d5368:	f7ff fedc 	bl	d5124 <_ZN5MQTT524writeVariableByteIntegerEPtt>
   d536c:	b920      	cbnz	r0, d5378 <_ZN5MQTT56pubAckEt+0x4c>

    logger.info("Sending publish ack for packet %d", packetId);
   d536e:	4632      	mov	r2, r6
   d5370:	4905      	ldr	r1, [pc, #20]	; (d5388 <_ZN5MQTT56pubAckEt+0x5c>)
   d5372:	4628      	mov	r0, r5
   d5374:	f7fe fedc 	bl	d4130 <_ZNK5spark6Logger4infoEPKcz>
    return writeToSocket(index, false);
   d5378:	2200      	movs	r2, #0
   d537a:	f8bd 1006 	ldrh.w	r1, [sp, #6]
   d537e:	4628      	mov	r0, r5
   d5380:	f7ff feb4 	bl	d50ec <_ZN5MQTT513writeToSocketEtb>
}
   d5384:	b002      	add	sp, #8
   d5386:	bd70      	pop	{r4, r5, r6, pc}
   d5388:	000db5a4 	.word	0x000db5a4

000d538c <_ZN5MQTT56pubRecEt>:
bool MQTT5::pubRec(uint16_t packetId) {
   d538c:	b573      	push	{r0, r1, r4, r5, r6, lr}
    uint16_t index = 0;
   d538e:	ac02      	add	r4, sp, #8
   d5390:	2300      	movs	r3, #0
   d5392:	f824 3d02 	strh.w	r3, [r4, #-2]!
    if (!writeVariableByteInteger(&index, len))

    logger.info("Sending publish ack for packet %d", packetId);
    return writeToSocket(index, false);
}
bool MQTT5::pubRec(uint16_t packetId) {
   d5396:	460e      	mov	r6, r1
    uint16_t index = 0;
    // 3.5.1 PUBREC Fixed Header
    if (!writeByte(&index, (uint8_t) (CTRL_PUBREC << 4)))
   d5398:	2250      	movs	r2, #80	; 0x50
   d539a:	4621      	mov	r1, r4
    if (!writeVariableByteInteger(&index, len))

    logger.info("Sending publish ack for packet %d", packetId);
    return writeToSocket(index, false);
}
bool MQTT5::pubRec(uint16_t packetId) {
   d539c:	4605      	mov	r5, r0
    uint16_t index = 0;
    // 3.5.1 PUBREC Fixed Header
    if (!writeByte(&index, (uint8_t) (CTRL_PUBREC << 4)))
   d539e:	f7ff ff1f 	bl	d51e0 <_ZN5MQTT59writeByteEPth>
   d53a2:	b908      	cbnz	r0, d53a8 <_ZN5MQTT56pubRecEt+0x1c>
        return false;
   d53a4:	2000      	movs	r0, #0
   d53a6:	e01d      	b.n	d53e4 <_ZN5MQTT56pubRecEt+0x58>

    // 3.5.2 PUBREC Variable Header
    if (!writeInt(&index, packetId))
   d53a8:	4632      	mov	r2, r6
   d53aa:	4621      	mov	r1, r4
   d53ac:	4628      	mov	r0, r5
   d53ae:	f7ff ffa3 	bl	d52f8 <_ZN5MQTT58writeIntEPtt>
   d53b2:	2800      	cmp	r0, #0
   d53b4:	d0f6      	beq.n	d53a4 <_ZN5MQTT56pubRecEt+0x18>
        return false;

    // 3.5.1 PUBREC Fixed Header remaining length
    uint16_t len = index - 1;
   d53b6:	f8bd 2006 	ldrh.w	r2, [sp, #6]
   d53ba:	3a01      	subs	r2, #1
    index = 1;
   d53bc:	2301      	movs	r3, #1
    if (!writeVariableByteInteger(&index, len))
   d53be:	b292      	uxth	r2, r2
   d53c0:	4621      	mov	r1, r4
   d53c2:	4628      	mov	r0, r5
    if (!writeInt(&index, packetId))
        return false;

    // 3.5.1 PUBREC Fixed Header remaining length
    uint16_t len = index - 1;
    index = 1;
   d53c4:	f8ad 3006 	strh.w	r3, [sp, #6]
    if (!writeVariableByteInteger(&index, len))
   d53c8:	f7ff feac 	bl	d5124 <_ZN5MQTT524writeVariableByteIntegerEPtt>
   d53cc:	b920      	cbnz	r0, d53d8 <_ZN5MQTT56pubRecEt+0x4c>

    logger.info("Sending publish rec for packet %d", packetId);
   d53ce:	4632      	mov	r2, r6
   d53d0:	4905      	ldr	r1, [pc, #20]	; (d53e8 <_ZN5MQTT56pubRecEt+0x5c>)
   d53d2:	4628      	mov	r0, r5
   d53d4:	f7fe feac 	bl	d4130 <_ZNK5spark6Logger4infoEPKcz>
    return writeToSocket(index, false);
   d53d8:	2200      	movs	r2, #0
   d53da:	f8bd 1006 	ldrh.w	r1, [sp, #6]
   d53de:	4628      	mov	r0, r5
   d53e0:	f7ff fe84 	bl	d50ec <_ZN5MQTT513writeToSocketEtb>
}
   d53e4:	b002      	add	sp, #8
   d53e6:	bd70      	pop	{r4, r5, r6, pc}
   d53e8:	000db5c6 	.word	0x000db5c6

000d53ec <_ZN5MQTT516processPacketPubEhtt>:
            logger.warn("Unknown connect property");
            break;
    }
}

void MQTT5::processPacketPub(uint8_t flags, uint16_t startIndex, uint16_t contentLength) {
   d53ec:	e92d 4ff0 	stmdb	sp!, {r4, r5, r6, r7, r8, r9, sl, fp, lr}
   d53f0:	b089      	sub	sp, #36	; 0x24
   d53f2:	af02      	add	r7, sp, #8
   d53f4:	f107 0518 	add.w	r5, r7, #24
    // 3.3.1 PUBLISH Fixed Header
    bool dup = (flags & 0x8) > 0;
    MQTT5_QOS qos = (MQTT5_QOS) ((flags & 0x6) >> 1);
   d53f8:	f3c1 0641 	ubfx	r6, r1, #1, #2
            logger.warn("Unknown connect property");
            break;
    }
}

void MQTT5::processPacketPub(uint8_t flags, uint16_t startIndex, uint16_t contentLength) {
   d53fc:	f825 2d0a 	strh.w	r2, [r5, #-10]!
   d5400:	468a      	mov	sl, r1
    (*position)++;
    return true;
}

uint16_t MQTT5::readUTF8StringLength(uint16_t *position) {
    return readInt(position);
   d5402:	4629      	mov	r1, r5
            logger.warn("Unknown connect property");
            break;
    }
}

void MQTT5::processPacketPub(uint8_t flags, uint16_t startIndex, uint16_t contentLength) {
   d5404:	4604      	mov	r4, r0
   d5406:	469b      	mov	fp, r3
    // 3.3.1 PUBLISH Fixed Header
    bool dup = (flags & 0x8) > 0;
    MQTT5_QOS qos = (MQTT5_QOS) ((flags & 0x6) >> 1);
    bool retain = (flags & 0x1) > 0;
    uint16_t indexContentStart = startIndex;
   d5408:	60ba      	str	r2, [r7, #8]
    (*position)++;
    return true;
}

uint16_t MQTT5::readUTF8StringLength(uint16_t *position) {
    return readInt(position);
   d540a:	f7ff fc20 	bl	d4c4e <_ZN5MQTT57readIntEPt>
    bool retain = (flags & 0x1) > 0;
    uint16_t indexContentStart = startIndex;

    // 3.3.2.1 Topic Name
    uint16_t len = readUTF8StringLength(&startIndex);
    char topic[len + 1];
   d540e:	f100 0208 	add.w	r2, r0, #8
   d5412:	f022 0207 	bic.w	r2, r2, #7
   d5416:	ebad 0d02 	sub.w	sp, sp, r2
   d541a:	f10d 0908 	add.w	r9, sp, #8
    (*position)++;
    return true;
}

uint16_t MQTT5::readUTF8StringLength(uint16_t *position) {
    return readInt(position);
   d541e:	4603      	mov	r3, r0
    uint16_t indexContentStart = startIndex;

    // 3.3.2.1 Topic Name
    uint16_t len = readUTF8StringLength(&startIndex);
    char topic[len + 1];
    readUTF8String(&startIndex, topic, len);
   d5420:	464a      	mov	r2, r9
   d5422:	4629      	mov	r1, r5
   d5424:	4620      	mov	r0, r4
   d5426:	f7ff fc01 	bl	d4c2c <_ZN5MQTT514readUTF8StringEPtPct>
    
    // 3.3.2.2 Packet Identifier
    uint16_t packetId = 0;
    if (qos != MQTT5_QOS::QOS0)
   d542a:	b12e      	cbz	r6, d5438 <_ZN5MQTT516processPacketPubEhtt+0x4c>
        packetId = readInt(&startIndex);
   d542c:	4629      	mov	r1, r5
   d542e:	4620      	mov	r0, r4
   d5430:	f7ff fc0d 	bl	d4c4e <_ZN5MQTT57readIntEPt>
   d5434:	4680      	mov	r8, r0
   d5436:	e000      	b.n	d543a <_ZN5MQTT516processPacketPubEhtt+0x4e>
    uint16_t len = readUTF8StringLength(&startIndex);
    char topic[len + 1];
    readUTF8String(&startIndex, topic, len);
    
    // 3.3.2.2 Packet Identifier
    uint16_t packetId = 0;
   d5438:	46b0      	mov	r8, r6
    if (qos != MQTT5_QOS::QOS0)
        packetId = readInt(&startIndex);

    // 3.3.2.3.1 Property Length
    uint16_t propertiesLength;
    if (readVariableByteInteger(&startIndex, &propertiesLength) && propertiesLength > 0) {
   d543a:	f107 0216 	add.w	r2, r7, #22
   d543e:	4629      	mov	r1, r5
   d5440:	4620      	mov	r0, r4
   d5442:	f7ff fbcd 	bl	d4be0 <_ZN5MQTT523readVariableByteIntegerEPtS0_>
   d5446:	b108      	cbz	r0, d544c <_ZN5MQTT516processPacketPubEhtt+0x60>
   d5448:	8afb      	ldrh	r3, [r7, #22]
   d544a:	bb83      	cbnz	r3, d54ae <_ZN5MQTT516processPacketPubEhtt+0xc2>
   d544c:	68bb      	ldr	r3, [r7, #8]
   d544e:	89fa      	ldrh	r2, [r7, #14]
   d5450:	445b      	add	r3, fp
            processPacketPubProperties(buffer[startIndex++], &startIndex);
        }
    }

    if (qos != MQTT5_QOS::QOS0)
        logger.info("Received packet for topic %s with id %d and length %d", topic, packetId, (contentLength + indexContentStart) - startIndex);
   d5452:	1a9b      	subs	r3, r3, r2
        while (startIndex - propertiesStartIndex < propertiesLength) {
            processPacketPubProperties(buffer[startIndex++], &startIndex);
        }
    }

    if (qos != MQTT5_QOS::QOS0)
   d5454:	b13e      	cbz	r6, d5466 <_ZN5MQTT516processPacketPubEhtt+0x7a>
        logger.info("Received packet for topic %s with id %d and length %d", topic, packetId, (contentLength + indexContentStart) - startIndex);
   d5456:	9300      	str	r3, [sp, #0]
   d5458:	464a      	mov	r2, r9
   d545a:	4643      	mov	r3, r8
   d545c:	491e      	ldr	r1, [pc, #120]	; (d54d8 <_ZN5MQTT516processPacketPubEhtt+0xec>)
   d545e:	4620      	mov	r0, r4
   d5460:	f7fe fe66 	bl	d4130 <_ZNK5spark6Logger4infoEPKcz>
   d5464:	e004      	b.n	d5470 <_ZN5MQTT516processPacketPubEhtt+0x84>
    else
        logger.info("Received packet for topic %s with length %d", topic, (contentLength + indexContentStart) - startIndex);
   d5466:	464a      	mov	r2, r9
   d5468:	491c      	ldr	r1, [pc, #112]	; (d54dc <_ZN5MQTT516processPacketPubEhtt+0xf0>)
   d546a:	4620      	mov	r0, r4
   d546c:	f7fe fe60 	bl	d4130 <_ZNK5spark6Logger4infoEPKcz>
    
    if (callbackPacketReceived)
   d5470:	6d25      	ldr	r5, [r4, #80]	; 0x50
   d5472:	b175      	cbz	r5, d5492 <_ZN5MQTT516processPacketPubEhtt+0xa6>
        callbackPacketReceived(topic, buffer + startIndex, (contentLength + indexContentStart) - startIndex, dup, qos, retain);
   d5474:	89f8      	ldrh	r0, [r7, #14]
   d5476:	68bb      	ldr	r3, [r7, #8]
   d5478:	68a1      	ldr	r1, [r4, #8]
   d547a:	9600      	str	r6, [sp, #0]
   d547c:	1a1a      	subs	r2, r3, r0
   d547e:	445a      	add	r2, fp
   d5480:	f00a 0301 	and.w	r3, sl, #1
   d5484:	9301      	str	r3, [sp, #4]
   d5486:	4401      	add	r1, r0
   d5488:	f3ca 03c0 	ubfx	r3, sl, #3, #1
   d548c:	b292      	uxth	r2, r2
   d548e:	4648      	mov	r0, r9
   d5490:	47a8      	blx	r5

    // Send acknowledge
    if (qos == MQTT5_QOS::QOS1)
   d5492:	2e01      	cmp	r6, #1
   d5494:	d104      	bne.n	d54a0 <_ZN5MQTT516processPacketPubEhtt+0xb4>
        pubAck(packetId);
   d5496:	4641      	mov	r1, r8
   d5498:	4620      	mov	r0, r4
   d549a:	f7ff ff47 	bl	d532c <_ZN5MQTT56pubAckEt>
   d549e:	e017      	b.n	d54d0 <_ZN5MQTT516processPacketPubEhtt+0xe4>
    else if (qos == MQTT5_QOS::QOS2)
   d54a0:	2e02      	cmp	r6, #2
   d54a2:	d115      	bne.n	d54d0 <_ZN5MQTT516processPacketPubEhtt+0xe4>
        pubRec(packetId);
   d54a4:	4641      	mov	r1, r8
   d54a6:	4620      	mov	r0, r4
   d54a8:	f7ff ff70 	bl	d538c <_ZN5MQTT56pubRecEt>
}
   d54ac:	e010      	b.n	d54d0 <_ZN5MQTT516processPacketPubEhtt+0xe4>
        packetId = readInt(&startIndex);

    // 3.3.2.3.1 Property Length
    uint16_t propertiesLength;
    if (readVariableByteInteger(&startIndex, &propertiesLength) && propertiesLength > 0) {
        uint16_t propertiesStartIndex = startIndex;
   d54ae:	89fb      	ldrh	r3, [r7, #14]
        while (startIndex - propertiesStartIndex < propertiesLength) {
   d54b0:	89f9      	ldrh	r1, [r7, #14]
   d54b2:	8afa      	ldrh	r2, [r7, #22]
   d54b4:	607b      	str	r3, [r7, #4]
   d54b6:	1ac8      	subs	r0, r1, r3
   d54b8:	4290      	cmp	r0, r2
   d54ba:	dac7      	bge.n	d544c <_ZN5MQTT516processPacketPubEhtt+0x60>
            processPacketPubProperties(buffer[startIndex++], &startIndex);
   d54bc:	68a0      	ldr	r0, [r4, #8]
   d54be:	1c4a      	adds	r2, r1, #1
   d54c0:	81fa      	strh	r2, [r7, #14]
   d54c2:	5c41      	ldrb	r1, [r0, r1]
   d54c4:	462a      	mov	r2, r5
   d54c6:	4620      	mov	r0, r4
   d54c8:	f7ff fd9a 	bl	d5000 <_ZN5MQTT526processPacketPubPropertiesEhPt>

    // 3.3.2.3.1 Property Length
    uint16_t propertiesLength;
    if (readVariableByteInteger(&startIndex, &propertiesLength) && propertiesLength > 0) {
        uint16_t propertiesStartIndex = startIndex;
        while (startIndex - propertiesStartIndex < propertiesLength) {
   d54cc:	687b      	ldr	r3, [r7, #4]
   d54ce:	e7ef      	b.n	d54b0 <_ZN5MQTT516processPacketPubEhtt+0xc4>
    // Send acknowledge
    if (qos == MQTT5_QOS::QOS1)
        pubAck(packetId);
    else if (qos == MQTT5_QOS::QOS2)
        pubRec(packetId);
}
   d54d0:	371c      	adds	r7, #28
   d54d2:	46bd      	mov	sp, r7
   d54d4:	e8bd 8ff0 	ldmia.w	sp!, {r4, r5, r6, r7, r8, r9, sl, fp, pc}
   d54d8:	000db5e8 	.word	0x000db5e8
   d54dc:	000db61e 	.word	0x000db61e

000d54e0 <_ZN5MQTT57pubCompEt>:
    if (!writeVariableByteInteger(&index, len))

    logger.info("Sending publish rec for packet %d", packetId);
    return writeToSocket(index, false);
}
bool MQTT5::pubComp(uint16_t packetId) {
   d54e0:	b573      	push	{r0, r1, r4, r5, r6, lr}
    uint16_t index = 0;
   d54e2:	ac02      	add	r4, sp, #8
   d54e4:	2300      	movs	r3, #0
   d54e6:	f824 3d02 	strh.w	r3, [r4, #-2]!
    if (!writeVariableByteInteger(&index, len))

    logger.info("Sending publish rec for packet %d", packetId);
    return writeToSocket(index, false);
}
bool MQTT5::pubComp(uint16_t packetId) {
   d54ea:	460e      	mov	r6, r1
    uint16_t index = 0;
    // 3.7.1 PUBCOMP Fixed Header
    if (!writeByte(&index, (uint8_t) (CTRL_PUBCOMP << 4)))
   d54ec:	2270      	movs	r2, #112	; 0x70
   d54ee:	4621      	mov	r1, r4
    if (!writeVariableByteInteger(&index, len))

    logger.info("Sending publish rec for packet %d", packetId);
    return writeToSocket(index, false);
}
bool MQTT5::pubComp(uint16_t packetId) {
   d54f0:	4605      	mov	r5, r0
    uint16_t index = 0;
    // 3.7.1 PUBCOMP Fixed Header
    if (!writeByte(&index, (uint8_t) (CTRL_PUBCOMP << 4)))
   d54f2:	f7ff fe75 	bl	d51e0 <_ZN5MQTT59writeByteEPth>
   d54f6:	b908      	cbnz	r0, d54fc <_ZN5MQTT57pubCompEt+0x1c>
        return false;
   d54f8:	2000      	movs	r0, #0
   d54fa:	e01d      	b.n	d5538 <_ZN5MQTT57pubCompEt+0x58>

    // 3.7.2 PUBCOMP Variable Header
    if (!writeInt(&index, packetId))
   d54fc:	4632      	mov	r2, r6
   d54fe:	4621      	mov	r1, r4
   d5500:	4628      	mov	r0, r5
   d5502:	f7ff fef9 	bl	d52f8 <_ZN5MQTT58writeIntEPtt>
   d5506:	2800      	cmp	r0, #0
   d5508:	d0f6      	beq.n	d54f8 <_ZN5MQTT57pubCompEt+0x18>
        return false;

    // 3.7.1 PUBCOMP Fixed Header remaining length
    uint16_t len = index - 1;
   d550a:	f8bd 2006 	ldrh.w	r2, [sp, #6]
   d550e:	3a01      	subs	r2, #1
    index = 1;
   d5510:	2301      	movs	r3, #1
    if (!writeVariableByteInteger(&index, len))
   d5512:	b292      	uxth	r2, r2
   d5514:	4621      	mov	r1, r4
   d5516:	4628      	mov	r0, r5
    if (!writeInt(&index, packetId))
        return false;

    // 3.7.1 PUBCOMP Fixed Header remaining length
    uint16_t len = index - 1;
    index = 1;
   d5518:	f8ad 3006 	strh.w	r3, [sp, #6]
    if (!writeVariableByteInteger(&index, len))
   d551c:	f7ff fe02 	bl	d5124 <_ZN5MQTT524writeVariableByteIntegerEPtt>
   d5520:	b920      	cbnz	r0, d552c <_ZN5MQTT57pubCompEt+0x4c>

    logger.info("Sending publish comp for packet %d", packetId);
   d5522:	4632      	mov	r2, r6
   d5524:	4905      	ldr	r1, [pc, #20]	; (d553c <_ZN5MQTT57pubCompEt+0x5c>)
   d5526:	4628      	mov	r0, r5
   d5528:	f7fe fe02 	bl	d4130 <_ZNK5spark6Logger4infoEPKcz>
    return writeToSocket(index, false);
   d552c:	2200      	movs	r2, #0
   d552e:	f8bd 1006 	ldrh.w	r1, [sp, #6]
   d5532:	4628      	mov	r0, r5
   d5534:	f7ff fdda 	bl	d50ec <_ZN5MQTT513writeToSocketEtb>
}
   d5538:	b002      	add	sp, #8
   d553a:	bd70      	pop	{r4, r5, r6, pc}
   d553c:	000db64a 	.word	0x000db64a

000d5540 <_ZN5MQTT519processPacketPubRelEhtt>:
    } else if (callbackQOS) {
        callbackQOS(packetId, !isAck);
    }
}

void MQTT5::processPacketPubRel(uint8_t flags, uint16_t startIndex, uint16_t contentLength) {
   d5540:	b573      	push	{r0, r1, r4, r5, r6, lr}
   d5542:	a902      	add	r1, sp, #8
   d5544:	461d      	mov	r5, r3
   d5546:	f821 2d02 	strh.w	r2, [r1, #-2]!
   d554a:	4604      	mov	r4, r0
    uint16_t packetId = readInt(&startIndex);
   d554c:	f7ff fb7f 	bl	d4c4e <_ZN5MQTT57readIntEPt>
    MQTT5_REASON_CODE reason = contentLength == 2 ? MQTT5_REASON_CODE::SUCCESS : (MQTT5_REASON_CODE) buffer[startIndex++];
   d5550:	2d02      	cmp	r5, #2
   d5552:	bf1f      	itttt	ne
   d5554:	f8bd 3006 	ldrhne.w	r3, [sp, #6]
   d5558:	68a2      	ldrne	r2, [r4, #8]
   d555a:	1c59      	addne	r1, r3, #1
   d555c:	f8ad 1006 	strhne.w	r1, [sp, #6]
   d5560:	bf18      	it	ne
   d5562:	5cd5      	ldrbne	r5, [r2, r3]
    logger.info("Received publish rel for packet %d and response %d", packetId, (uint8_t) reason);
   d5564:	4907      	ldr	r1, [pc, #28]	; (d5584 <_ZN5MQTT519processPacketPubRelEhtt+0x44>)
    }
}

void MQTT5::processPacketPubRel(uint8_t flags, uint16_t startIndex, uint16_t contentLength) {
    uint16_t packetId = readInt(&startIndex);
    MQTT5_REASON_CODE reason = contentLength == 2 ? MQTT5_REASON_CODE::SUCCESS : (MQTT5_REASON_CODE) buffer[startIndex++];
   d5566:	bf08      	it	eq
   d5568:	2500      	moveq	r5, #0
        callbackQOS(packetId, !isAck);
    }
}

void MQTT5::processPacketPubRel(uint8_t flags, uint16_t startIndex, uint16_t contentLength) {
    uint16_t packetId = readInt(&startIndex);
   d556a:	4606      	mov	r6, r0
    MQTT5_REASON_CODE reason = contentLength == 2 ? MQTT5_REASON_CODE::SUCCESS : (MQTT5_REASON_CODE) buffer[startIndex++];
    logger.info("Received publish rel for packet %d and response %d", packetId, (uint8_t) reason);
   d556c:	4602      	mov	r2, r0
   d556e:	462b      	mov	r3, r5
   d5570:	4620      	mov	r0, r4
   d5572:	f7fe fddd 	bl	d4130 <_ZNK5spark6Logger4infoEPKcz>
    if (reason == MQTT5_REASON_CODE::SUCCESS) {
   d5576:	b91d      	cbnz	r5, d5580 <_ZN5MQTT519processPacketPubRelEhtt+0x40>
        pubComp(packetId);
   d5578:	4631      	mov	r1, r6
   d557a:	4620      	mov	r0, r4
   d557c:	f7ff ffb0 	bl	d54e0 <_ZN5MQTT57pubCompEt>
    }
}
   d5580:	b002      	add	sp, #8
   d5582:	bd70      	pop	{r4, r5, r6, pc}
   d5584:	000db66d 	.word	0x000db66d

000d5588 <_ZN5MQTT58writeIntEPtm>:
    buffer[(*position)++] = content >> 8;
    buffer[(*position)++] = content & 0xFF;
    return position;
}

bool MQTT5::writeInt(uint16_t *position, uint32_t content) {
   d5588:	b570      	push	{r4, r5, r6, lr}
    if ((*position) + 4 > maxPacketSize) {
   d558a:	880c      	ldrh	r4, [r1, #0]
   d558c:	8d85      	ldrh	r5, [r0, #44]	; 0x2c
   d558e:	1ce6      	adds	r6, r4, #3
   d5590:	42ae      	cmp	r6, r5
    buffer[(*position)++] = content >> 8;
    buffer[(*position)++] = content & 0xFF;
    return position;
}

bool MQTT5::writeInt(uint16_t *position, uint32_t content) {
   d5592:	4603      	mov	r3, r0
    if ((*position) + 4 > maxPacketSize) {
   d5594:	db05      	blt.n	d55a2 <_ZN5MQTT58writeIntEPtm+0x1a>
        logger.warn("Packet exceeds max packet size %d", maxPacketSize);
   d5596:	462a      	mov	r2, r5
   d5598:	490e      	ldr	r1, [pc, #56]	; (d55d4 <_ZN5MQTT58writeIntEPtm+0x4c>)
   d559a:	f7ff fab7 	bl	d4b0c <_ZNK5spark6Logger4warnEPKcz>
        return false;
   d559e:	2000      	movs	r0, #0
   d55a0:	bd70      	pop	{r4, r5, r6, pc}
    }
    buffer[(*position)++] = content >> 24;
   d55a2:	6880      	ldr	r0, [r0, #8]
   d55a4:	1c65      	adds	r5, r4, #1
   d55a6:	800d      	strh	r5, [r1, #0]
   d55a8:	0e15      	lsrs	r5, r2, #24
   d55aa:	5505      	strb	r5, [r0, r4]
    buffer[(*position)++] = content >> 16;
   d55ac:	8808      	ldrh	r0, [r1, #0]
   d55ae:	689c      	ldr	r4, [r3, #8]
   d55b0:	1c45      	adds	r5, r0, #1
   d55b2:	800d      	strh	r5, [r1, #0]
   d55b4:	0c15      	lsrs	r5, r2, #16
   d55b6:	5425      	strb	r5, [r4, r0]
    buffer[(*position)++] = content >> 8;
   d55b8:	8808      	ldrh	r0, [r1, #0]
   d55ba:	689c      	ldr	r4, [r3, #8]
   d55bc:	1c45      	adds	r5, r0, #1
   d55be:	800d      	strh	r5, [r1, #0]
   d55c0:	0a15      	lsrs	r5, r2, #8
   d55c2:	5425      	strb	r5, [r4, r0]
    buffer[(*position)++] = content & 0xFF;
   d55c4:	6898      	ldr	r0, [r3, #8]
   d55c6:	880b      	ldrh	r3, [r1, #0]
   d55c8:	1c5c      	adds	r4, r3, #1
   d55ca:	800c      	strh	r4, [r1, #0]
   d55cc:	54c2      	strb	r2, [r0, r3]
    return true;
   d55ce:	2001      	movs	r0, #1
}
   d55d0:	bd70      	pop	{r4, r5, r6, pc}
   d55d2:	bf00      	nop
   d55d4:	000db54b 	.word	0x000db54b

000d55d8 <_ZN5MQTT57publishEPKcPKhtb9MQTT5_QOSbPt22MQTT5PublishProperties>:

bool MQTT5::publish(const char *topic, const char *payload, bool retain, MQTT5_QOS qos, bool dup, uint16_t *packetId, MQTT5PublishProperties properties) {
    return publish(topic, (const uint8_t*) payload, strlen(payload), retain, qos, dup, packetId, properties);
}

bool MQTT5::publish(const char *topic, const uint8_t *payload, uint16_t payloadLength, bool retain, MQTT5_QOS qos, bool dup, uint16_t *packetId, MQTT5PublishProperties properties) {
   d55d8:	e92d 4ff0 	stmdb	sp!, {r4, r5, r6, r7, r8, r9, sl, fp, lr}
   d55dc:	b089      	sub	sp, #36	; 0x24
   d55de:	4699      	mov	r9, r3
   d55e0:	f89d 3058 	ldrb.w	r3, [sp, #88]	; 0x58
   d55e4:	9304      	str	r3, [sp, #16]
   d55e6:	9b1a      	ldr	r3, [sp, #104]	; 0x68
   d55e8:	9205      	str	r2, [sp, #20]
   d55ea:	4604      	mov	r4, r0
   d55ec:	460e      	mov	r6, r1
   d55ee:	f89d a04c 	ldrb.w	sl, [sp, #76]	; 0x4c
   d55f2:	f8bd 5060 	ldrh.w	r5, [sp, #96]	; 0x60
   d55f6:	f8dd 8064 	ldr.w	r8, [sp, #100]	; 0x64
   d55fa:	9303      	str	r3, [sp, #12]
    if (!connected())
   d55fc:	f7ff fab7 	bl	d4b6e <_ZN5MQTT59connectedEv>
   d5600:	b908      	cbnz	r0, d5606 <_ZN5MQTT57publishEPKcPKhtb9MQTT5_QOSbPt22MQTT5PublishProperties+0x2e>
        return false;
   d5602:	2000      	movs	r0, #0
   d5604:	e0f6      	b.n	d57f4 <_ZN5MQTT57publishEPKcPKhtb9MQTT5_QOSbPt22MQTT5PublishProperties+0x21c>

    uint16_t index = 0;
    // 3.3.1 PUBLISH Fixed Header
    if (!writeByte(&index, (uint8_t) (CTRL_PUBLISH << 4) |
   d5606:	f89d 2048 	ldrb.w	r2, [sp, #72]	; 0x48
   d560a:	f89d 3050 	ldrb.w	r3, [sp, #80]	; 0x50

bool MQTT5::publish(const char *topic, const uint8_t *payload, uint16_t payloadLength, bool retain, MQTT5_QOS qos, bool dup, uint16_t *packetId, MQTT5PublishProperties properties) {
    if (!connected())
        return false;

    uint16_t index = 0;
   d560e:	af08      	add	r7, sp, #32
   d5610:	f04f 0b00 	mov.w	fp, #0
    // 3.3.1 PUBLISH Fixed Header
    if (!writeByte(&index, (uint8_t) (CTRL_PUBLISH << 4) |
   d5614:	f042 0230 	orr.w	r2, r2, #48	; 0x30

bool MQTT5::publish(const char *topic, const uint8_t *payload, uint16_t payloadLength, bool retain, MQTT5_QOS qos, bool dup, uint16_t *packetId, MQTT5PublishProperties properties) {
    if (!connected())
        return false;

    uint16_t index = 0;
   d5618:	f827 bd04 	strh.w	fp, [r7, #-4]!
    // 3.3.1 PUBLISH Fixed Header
    if (!writeByte(&index, (uint8_t) (CTRL_PUBLISH << 4) |
   d561c:	ea42 024a 	orr.w	r2, r2, sl, lsl #1
   d5620:	ea42 02c3 	orr.w	r2, r2, r3, lsl #3
   d5624:	b2d2      	uxtb	r2, r2
   d5626:	4639      	mov	r1, r7
   d5628:	4620      	mov	r0, r4
   d562a:	f7ff fdd9 	bl	d51e0 <_ZN5MQTT59writeByteEPth>
   d562e:	2800      	cmp	r0, #0
   d5630:	d0e7      	beq.n	d5602 <_ZN5MQTT57publishEPKcPKhtb9MQTT5_QOSbPt22MQTT5PublishProperties+0x2a>
                             (((uint8_t) qos) << 1) |
                             retain))
        return false;

    // 3.3.2.1 Topic Name
    if (properties.topicAlias > 0 && topicAliasRegistered(properties.topicAlias)) {
   d5632:	b17d      	cbz	r5, d5654 <_ZN5MQTT57publishEPKcPKhtb9MQTT5_QOSbPt22MQTT5PublishProperties+0x7c>
   d5634:	4629      	mov	r1, r5
   d5636:	4620      	mov	r0, r4
   d5638:	f7ff faa5 	bl	d4b86 <_ZN5MQTT520topicAliasRegisteredEt>
   d563c:	b150      	cbz	r0, d5654 <_ZN5MQTT57publishEPKcPKhtb9MQTT5_QOSbPt22MQTT5PublishProperties+0x7c>
        logger.info("Using topic alias %d", properties.topicAlias);
   d563e:	462a      	mov	r2, r5
   d5640:	4620      	mov	r0, r4
   d5642:	496e      	ldr	r1, [pc, #440]	; (d57fc <_ZN5MQTT57publishEPKcPKhtb9MQTT5_QOSbPt22MQTT5PublishProperties+0x224>)
   d5644:	f7fe fd74 	bl	d4130 <_ZNK5spark6Logger4infoEPKcz>
        if (!writeInt(&index, (uint16_t) 0))
   d5648:	465a      	mov	r2, fp
   d564a:	4639      	mov	r1, r7
   d564c:	4620      	mov	r0, r4
   d564e:	f7ff fe53 	bl	d52f8 <_ZN5MQTT58writeIntEPtt>
   d5652:	e008      	b.n	d5666 <_ZN5MQTT57publishEPKcPKhtb9MQTT5_QOSbPt22MQTT5PublishProperties+0x8e>
            return false;
    } else {
        if (!writeUTF8String(&index, topic, strlen(topic)))
   d5654:	4630      	mov	r0, r6
   d5656:	f005 fa10 	bl	daa7a <strlen>
   d565a:	4632      	mov	r2, r6
   d565c:	b283      	uxth	r3, r0
   d565e:	a907      	add	r1, sp, #28
   d5660:	4620      	mov	r0, r4
   d5662:	f7ff fd95 	bl	d5190 <_ZN5MQTT515writeUTF8StringEPtPKct>
   d5666:	2800      	cmp	r0, #0
   d5668:	d0cb      	beq.n	d5602 <_ZN5MQTT57publishEPKcPKhtb9MQTT5_QOSbPt22MQTT5PublishProperties+0x2a>
            return false;
    }
    
    if ((uint8_t) qos > 0) {
   d566a:	f1ba 0f00 	cmp.w	sl, #0
   d566e:	d106      	bne.n	d567e <_ZN5MQTT57publishEPKcPKhtb9MQTT5_QOSbPt22MQTT5PublishProperties+0xa6>
        if (!writeInt(&index, nextPacketId++))
            return false;
    }

    // 3.3.2.3 PUBLISH Properties
    uint16_t indexProp = index;
   d5670:	f8bd 301c 	ldrh.w	r3, [sp, #28]
   d5674:	f8ad 301e 	strh.w	r3, [sp, #30]

    // 3.3.2.3.2 Payload Format Indicator
    if (properties.payloadFormatIndicator > 0) {
   d5678:	9b04      	ldr	r3, [sp, #16]
   d567a:	b97b      	cbnz	r3, d569c <_ZN5MQTT57publishEPKcPKhtb9MQTT5_QOSbPt22MQTT5PublishProperties+0xc4>
   d567c:	e02e      	b.n	d56dc <_ZN5MQTT57publishEPKcPKhtb9MQTT5_QOSbPt22MQTT5PublishProperties+0x104>
            return false;
    }
    
    if ((uint8_t) qos > 0) {
        // 3.3.2.2 Packet Identifier
        if (packetId)
   d567e:	9b15      	ldr	r3, [sp, #84]	; 0x54
   d5680:	b113      	cbz	r3, d5688 <_ZN5MQTT57publishEPKcPKhtb9MQTT5_QOSbPt22MQTT5PublishProperties+0xb0>
            *packetId = nextPacketId;
   d5682:	9a15      	ldr	r2, [sp, #84]	; 0x54
   d5684:	8d63      	ldrh	r3, [r4, #42]	; 0x2a
   d5686:	8013      	strh	r3, [r2, #0]
        if (!writeInt(&index, nextPacketId++))
   d5688:	8d62      	ldrh	r2, [r4, #42]	; 0x2a
   d568a:	1c53      	adds	r3, r2, #1
   d568c:	8563      	strh	r3, [r4, #42]	; 0x2a
   d568e:	a907      	add	r1, sp, #28
   d5690:	4620      	mov	r0, r4
   d5692:	f7ff fe31 	bl	d52f8 <_ZN5MQTT58writeIntEPtt>
   d5696:	2800      	cmp	r0, #0
   d5698:	d1ea      	bne.n	d5670 <_ZN5MQTT57publishEPKcPKhtb9MQTT5_QOSbPt22MQTT5PublishProperties+0x98>
   d569a:	e7b2      	b.n	d5602 <_ZN5MQTT57publishEPKcPKhtb9MQTT5_QOSbPt22MQTT5PublishProperties+0x2a>
    // 3.3.2.3 PUBLISH Properties
    uint16_t indexProp = index;

    // 3.3.2.3.2 Payload Format Indicator
    if (properties.payloadFormatIndicator > 0) {
        if (!writeByte(&indexProp, PROP_PAYLOAD_FORMAT_INDICATOR))
   d569c:	2201      	movs	r2, #1
   d569e:	f10d 011e 	add.w	r1, sp, #30
   d56a2:	4620      	mov	r0, r4
   d56a4:	f7ff fd9c 	bl	d51e0 <_ZN5MQTT59writeByteEPth>
   d56a8:	2800      	cmp	r0, #0
   d56aa:	d0aa      	beq.n	d5602 <_ZN5MQTT57publishEPKcPKhtb9MQTT5_QOSbPt22MQTT5PublishProperties+0x2a>
            return false;

        if (!writeByte(&indexProp, properties.payloadFormatIndicator))
   d56ac:	2201      	movs	r2, #1
   d56ae:	f10d 011e 	add.w	r1, sp, #30
   d56b2:	4620      	mov	r0, r4
   d56b4:	f7ff fd94 	bl	d51e0 <_ZN5MQTT59writeByteEPth>
   d56b8:	2800      	cmp	r0, #0
   d56ba:	d0a2      	beq.n	d5602 <_ZN5MQTT57publishEPKcPKhtb9MQTT5_QOSbPt22MQTT5PublishProperties+0x2a>
            return false;
    }

    // 3.3.2.3.3 Message Expiry Interval
    if (properties.payloadFormatIndicator > 0) {
        if (!writeByte(&indexProp, PROP_MESSAGE_EXPIRY_INTERVAL))
   d56bc:	2202      	movs	r2, #2
   d56be:	f10d 011e 	add.w	r1, sp, #30
   d56c2:	4620      	mov	r0, r4
   d56c4:	f7ff fd8c 	bl	d51e0 <_ZN5MQTT59writeByteEPth>
   d56c8:	2800      	cmp	r0, #0
   d56ca:	d09a      	beq.n	d5602 <_ZN5MQTT57publishEPKcPKhtb9MQTT5_QOSbPt22MQTT5PublishProperties+0x2a>
            return false;

        if (!writeInt(&indexProp, properties.messsageExpiryInterval))
   d56cc:	9a17      	ldr	r2, [sp, #92]	; 0x5c
   d56ce:	f10d 011e 	add.w	r1, sp, #30
   d56d2:	4620      	mov	r0, r4
   d56d4:	f7ff ff58 	bl	d5588 <_ZN5MQTT58writeIntEPtm>
   d56d8:	2800      	cmp	r0, #0
   d56da:	d092      	beq.n	d5602 <_ZN5MQTT57publishEPKcPKhtb9MQTT5_QOSbPt22MQTT5PublishProperties+0x2a>
            return false;
    }

    // 3.3.2.3.4 Topic Alias
    if (properties.topicAlias > 0) {
   d56dc:	b17d      	cbz	r5, d56fe <_ZN5MQTT57publishEPKcPKhtb9MQTT5_QOSbPt22MQTT5PublishProperties+0x126>
        if (!writeByte(&indexProp, PROP_TOPIC_ALIAS))
   d56de:	2223      	movs	r2, #35	; 0x23
   d56e0:	f10d 011e 	add.w	r1, sp, #30
   d56e4:	4620      	mov	r0, r4
   d56e6:	f7ff fd7b 	bl	d51e0 <_ZN5MQTT59writeByteEPth>
   d56ea:	2800      	cmp	r0, #0
   d56ec:	d089      	beq.n	d5602 <_ZN5MQTT57publishEPKcPKhtb9MQTT5_QOSbPt22MQTT5PublishProperties+0x2a>
            return false;

        if (!writeInt(&indexProp, properties.topicAlias))
   d56ee:	462a      	mov	r2, r5
   d56f0:	f10d 011e 	add.w	r1, sp, #30
   d56f4:	4620      	mov	r0, r4
   d56f6:	f7ff fdff 	bl	d52f8 <_ZN5MQTT58writeIntEPtt>
   d56fa:	2800      	cmp	r0, #0
   d56fc:	d081      	beq.n	d5602 <_ZN5MQTT57publishEPKcPKhtb9MQTT5_QOSbPt22MQTT5PublishProperties+0x2a>
            return false;
    }

    // 3.3.2.3.5 Response Topic
    if (properties.responseTopic) {
   d56fe:	f1b8 0f00 	cmp.w	r8, #0
   d5702:	d015      	beq.n	d5730 <_ZN5MQTT57publishEPKcPKhtb9MQTT5_QOSbPt22MQTT5PublishProperties+0x158>
        if (!writeByte(&indexProp, PROP_RESPONSE_TOPIC))
   d5704:	2208      	movs	r2, #8
   d5706:	f10d 011e 	add.w	r1, sp, #30
   d570a:	4620      	mov	r0, r4
   d570c:	f7ff fd68 	bl	d51e0 <_ZN5MQTT59writeByteEPth>
   d5710:	2800      	cmp	r0, #0
   d5712:	f43f af76 	beq.w	d5602 <_ZN5MQTT57publishEPKcPKhtb9MQTT5_QOSbPt22MQTT5PublishProperties+0x2a>
            return false;

        if (!writeUTF8String(&indexProp, properties.responseTopic, strlen(properties.responseTopic)))
   d5716:	4640      	mov	r0, r8
   d5718:	f005 f9af 	bl	daa7a <strlen>
   d571c:	4642      	mov	r2, r8
   d571e:	b283      	uxth	r3, r0
   d5720:	f10d 011e 	add.w	r1, sp, #30
   d5724:	4620      	mov	r0, r4
   d5726:	f7ff fd33 	bl	d5190 <_ZN5MQTT515writeUTF8StringEPtPKct>
   d572a:	2800      	cmp	r0, #0
   d572c:	f43f af69 	beq.w	d5602 <_ZN5MQTT57publishEPKcPKhtb9MQTT5_QOSbPt22MQTT5PublishProperties+0x2a>
            return false;
    }

    // 3.3.2.3.6 Correlation Data
    if (properties.correlationData) {
   d5730:	9b03      	ldr	r3, [sp, #12]
   d5732:	b19b      	cbz	r3, d575c <_ZN5MQTT57publishEPKcPKhtb9MQTT5_QOSbPt22MQTT5PublishProperties+0x184>
        if (!writeByte(&indexProp, PROP_CORRELATION_DATA))
   d5734:	2209      	movs	r2, #9
   d5736:	f10d 011e 	add.w	r1, sp, #30
   d573a:	4620      	mov	r0, r4
   d573c:	f7ff fd50 	bl	d51e0 <_ZN5MQTT59writeByteEPth>
   d5740:	2800      	cmp	r0, #0
   d5742:	f43f af5e 	beq.w	d5602 <_ZN5MQTT57publishEPKcPKhtb9MQTT5_QOSbPt22MQTT5PublishProperties+0x2a>
            return false;

        if (!writeBytes(&indexProp, properties.correlationData, properties.correlationDataLength))
   d5746:	f8bd 306c 	ldrh.w	r3, [sp, #108]	; 0x6c
   d574a:	9a03      	ldr	r2, [sp, #12]
   d574c:	f10d 011e 	add.w	r1, sp, #30
   d5750:	4620      	mov	r0, r4
   d5752:	f7ff fdb7 	bl	d52c4 <_ZN5MQTT510writeBytesEPtPKht>
   d5756:	2800      	cmp	r0, #0
   d5758:	f43f af53 	beq.w	d5602 <_ZN5MQTT57publishEPKcPKhtb9MQTT5_QOSbPt22MQTT5PublishProperties+0x2a>
            return false;
    }

    // 3.3.2.3.1 Property Length
    if (!writeVariableByteInteger(&index, indexProp - index))
   d575c:	af08      	add	r7, sp, #32
   d575e:	f8bd 301e 	ldrh.w	r3, [sp, #30]
   d5762:	f837 2d04 	ldrh.w	r2, [r7, #-4]!
   d5766:	1a9a      	subs	r2, r3, r2
   d5768:	b292      	uxth	r2, r2
   d576a:	4639      	mov	r1, r7
   d576c:	4620      	mov	r0, r4
   d576e:	f7ff fcd9 	bl	d5124 <_ZN5MQTT524writeVariableByteIntegerEPtt>
   d5772:	2800      	cmp	r0, #0
   d5774:	f43f af45 	beq.w	d5602 <_ZN5MQTT57publishEPKcPKhtb9MQTT5_QOSbPt22MQTT5PublishProperties+0x2a>
        return false;

    // 3.3.3 PUBLISH Payload
    if (!writeBytes(&index, payload, payloadLength))
   d5778:	464b      	mov	r3, r9
   d577a:	9a05      	ldr	r2, [sp, #20]
   d577c:	4639      	mov	r1, r7
   d577e:	4620      	mov	r0, r4
   d5780:	f7ff fda0 	bl	d52c4 <_ZN5MQTT510writeBytesEPtPKht>
   d5784:	2800      	cmp	r0, #0
   d5786:	f43f af3c 	beq.w	d5602 <_ZN5MQTT57publishEPKcPKhtb9MQTT5_QOSbPt22MQTT5PublishProperties+0x2a>
        return false;

    // 3.3.1.4 Remaining Length
    uint16_t len = index - 1;
   d578a:	f8bd 201c 	ldrh.w	r2, [sp, #28]
   d578e:	3a01      	subs	r2, #1
    index = 1;
   d5790:	2301      	movs	r3, #1
    if (!writeVariableByteInteger(&index, len))
   d5792:	b292      	uxth	r2, r2
   d5794:	4639      	mov	r1, r7
   d5796:	4620      	mov	r0, r4
    if (!writeBytes(&index, payload, payloadLength))
        return false;

    // 3.3.1.4 Remaining Length
    uint16_t len = index - 1;
    index = 1;
   d5798:	f8ad 301c 	strh.w	r3, [sp, #28]
    if (!writeVariableByteInteger(&index, len))
   d579c:	f7ff fcc2 	bl	d5124 <_ZN5MQTT524writeVariableByteIntegerEPtt>
   d57a0:	2800      	cmp	r0, #0
   d57a2:	f43f af2e 	beq.w	d5602 <_ZN5MQTT57publishEPKcPKhtb9MQTT5_QOSbPt22MQTT5PublishProperties+0x2a>
        return false;

    if ((uint8_t) qos > 0)
   d57a6:	f1ba 0f00 	cmp.w	sl, #0
   d57aa:	d009      	beq.n	d57c0 <_ZN5MQTT57publishEPKcPKhtb9MQTT5_QOSbPt22MQTT5PublishProperties+0x1e8>
        logger.info("Publishing packet with id %d in topic %s with length %d", nextPacketId - 1, topic, payloadLength);
   d57ac:	8d62      	ldrh	r2, [r4, #42]	; 0x2a
   d57ae:	f8cd 9000 	str.w	r9, [sp]
   d57b2:	4633      	mov	r3, r6
   d57b4:	3a01      	subs	r2, #1
   d57b6:	4912      	ldr	r1, [pc, #72]	; (d5800 <_ZN5MQTT57publishEPKcPKhtb9MQTT5_QOSbPt22MQTT5PublishProperties+0x228>)
   d57b8:	4620      	mov	r0, r4
   d57ba:	f7fe fcb9 	bl	d4130 <_ZNK5spark6Logger4infoEPKcz>
   d57be:	e005      	b.n	d57cc <_ZN5MQTT57publishEPKcPKhtb9MQTT5_QOSbPt22MQTT5PublishProperties+0x1f4>
    else
        logger.info("Publishing packet in topic %s with length %d", topic, payloadLength); 
   d57c0:	464b      	mov	r3, r9
   d57c2:	4632      	mov	r2, r6
   d57c4:	490f      	ldr	r1, [pc, #60]	; (d5804 <_ZN5MQTT57publishEPKcPKhtb9MQTT5_QOSbPt22MQTT5PublishProperties+0x22c>)
   d57c6:	4620      	mov	r0, r4
   d57c8:	f7fe fcb2 	bl	d4130 <_ZNK5spark6Logger4infoEPKcz>
    
    // Save topic alias
    if (properties.topicAlias > 0 && topicAliasRegister(properties.topicAlias))
   d57cc:	b125      	cbz	r5, d57d8 <_ZN5MQTT57publishEPKcPKhtb9MQTT5_QOSbPt22MQTT5PublishProperties+0x200>
   d57ce:	4629      	mov	r1, r5
   d57d0:	4620      	mov	r0, r4
   d57d2:	f7ff f9eb 	bl	d4bac <_ZN5MQTT518topicAliasRegisterEt>
   d57d6:	b930      	cbnz	r0, d57e6 <_ZN5MQTT57publishEPKcPKhtb9MQTT5_QOSbPt22MQTT5PublishProperties+0x20e>
        logger.info("Topic %s was assigned to alias %d", topic, properties.topicAlias);
    return writeToSocket(index);
   d57d8:	2201      	movs	r2, #1
   d57da:	f8bd 101c 	ldrh.w	r1, [sp, #28]
   d57de:	4620      	mov	r0, r4
   d57e0:	f7ff fc84 	bl	d50ec <_ZN5MQTT513writeToSocketEtb>
   d57e4:	e006      	b.n	d57f4 <_ZN5MQTT57publishEPKcPKhtb9MQTT5_QOSbPt22MQTT5PublishProperties+0x21c>
    else
        logger.info("Publishing packet in topic %s with length %d", topic, payloadLength); 
    
    // Save topic alias
    if (properties.topicAlias > 0 && topicAliasRegister(properties.topicAlias))
        logger.info("Topic %s was assigned to alias %d", topic, properties.topicAlias);
   d57e6:	462b      	mov	r3, r5
   d57e8:	4632      	mov	r2, r6
   d57ea:	4907      	ldr	r1, [pc, #28]	; (d5808 <_ZN5MQTT57publishEPKcPKhtb9MQTT5_QOSbPt22MQTT5PublishProperties+0x230>)
   d57ec:	4620      	mov	r0, r4
   d57ee:	f7fe fc9f 	bl	d4130 <_ZNK5spark6Logger4infoEPKcz>
   d57f2:	e7f1      	b.n	d57d8 <_ZN5MQTT57publishEPKcPKhtb9MQTT5_QOSbPt22MQTT5PublishProperties+0x200>
    return writeToSocket(index);
}
   d57f4:	b009      	add	sp, #36	; 0x24
   d57f6:	e8bd 8ff0 	ldmia.w	sp!, {r4, r5, r6, r7, r8, r9, sl, fp, pc}
   d57fa:	bf00      	nop
   d57fc:	000db78f 	.word	0x000db78f
   d5800:	000db72a 	.word	0x000db72a
   d5804:	000db762 	.word	0x000db762
   d5808:	000db7a4 	.word	0x000db7a4

000d580c <_ZN5MQTT57publishEPKcS1_b9MQTT5_QOSbPt22MQTT5PublishProperties>:

bool MQTT5::publish(const char *topic, const char *payload, MQTT5_QOS qos, uint16_t *packetId) {
    return publish(topic, payload, false, qos, false, packetId);
}

bool MQTT5::publish(const char *topic, const char *payload, bool retain, MQTT5_QOS qos, bool dup, uint16_t *packetId, MQTT5PublishProperties properties) {
   d580c:	e92d 43f0 	stmdb	sp!, {r4, r5, r6, r7, r8, r9, lr}
   d5810:	4607      	mov	r7, r0
   d5812:	b08b      	sub	sp, #44	; 0x2c
    return publish(topic, (const uint8_t*) payload, strlen(payload), retain, qos, dup, packetId, properties);
   d5814:	4610      	mov	r0, r2

bool MQTT5::publish(const char *topic, const char *payload, MQTT5_QOS qos, uint16_t *packetId) {
    return publish(topic, payload, false, qos, false, packetId);
}

bool MQTT5::publish(const char *topic, const char *payload, bool retain, MQTT5_QOS qos, bool dup, uint16_t *packetId, MQTT5PublishProperties properties) {
   d5816:	4688      	mov	r8, r1
   d5818:	4616      	mov	r6, r2
   d581a:	4699      	mov	r9, r3
    return publish(topic, (const uint8_t*) payload, strlen(payload), retain, qos, dup, packetId, properties);
   d581c:	f005 f92d 	bl	daa7a <strlen>
   d5820:	ad15      	add	r5, sp, #84	; 0x54
   d5822:	fa1f fe80 	uxth.w	lr, r0
   d5826:	cd0f      	ldmia	r5!, {r0, r1, r2, r3}
   d5828:	ac04      	add	r4, sp, #16
   d582a:	c40f      	stmia	r4!, {r0, r1, r2, r3}
   d582c:	e895 0003 	ldmia.w	r5, {r0, r1}
   d5830:	e884 0003 	stmia.w	r4, {r0, r1}
   d5834:	9b14      	ldr	r3, [sp, #80]	; 0x50
   d5836:	9303      	str	r3, [sp, #12]
   d5838:	f89d 304c 	ldrb.w	r3, [sp, #76]	; 0x4c
   d583c:	9302      	str	r3, [sp, #8]
   d583e:	f89d 3048 	ldrb.w	r3, [sp, #72]	; 0x48
   d5842:	9301      	str	r3, [sp, #4]
   d5844:	f8cd 9000 	str.w	r9, [sp]
   d5848:	4673      	mov	r3, lr
   d584a:	4632      	mov	r2, r6
   d584c:	4641      	mov	r1, r8
   d584e:	4638      	mov	r0, r7
   d5850:	f7ff fec2 	bl	d55d8 <_ZN5MQTT57publishEPKcPKhtb9MQTT5_QOSbPt22MQTT5PublishProperties>
}
   d5854:	b00b      	add	sp, #44	; 0x2c
   d5856:	e8bd 83f0 	ldmia.w	sp!, {r4, r5, r6, r7, r8, r9, pc}
	...

000d585c <_ZN5MQTT57publishEPKcS1_9MQTT5_QOSPt>:

    logger.info("Sending publish comp for packet %d", packetId);
    return writeToSocket(index, false);
}

bool MQTT5::publish(const char *topic, const char *payload, MQTT5_QOS qos, uint16_t *packetId) {
   d585c:	b5f0      	push	{r4, r5, r6, r7, lr}
    return publish(topic, payload, false, qos, false, packetId);
   d585e:	4d0d      	ldr	r5, [pc, #52]	; (d5894 <_ZN5MQTT57publishEPKcS1_9MQTT5_QOSPt+0x38>)

    logger.info("Sending publish comp for packet %d", packetId);
    return writeToSocket(index, false);
}

bool MQTT5::publish(const char *topic, const char *payload, MQTT5_QOS qos, uint16_t *packetId) {
   d5860:	4696      	mov	lr, r2
   d5862:	469c      	mov	ip, r3
   d5864:	4606      	mov	r6, r0
   d5866:	460f      	mov	r7, r1
    return publish(topic, payload, false, qos, false, packetId);
   d5868:	cd0f      	ldmia	r5!, {r0, r1, r2, r3}

    logger.info("Sending publish comp for packet %d", packetId);
    return writeToSocket(index, false);
}

bool MQTT5::publish(const char *topic, const char *payload, MQTT5_QOS qos, uint16_t *packetId) {
   d586a:	b08b      	sub	sp, #44	; 0x2c
    return publish(topic, payload, false, qos, false, packetId);
   d586c:	ac03      	add	r4, sp, #12
   d586e:	c40f      	stmia	r4!, {r0, r1, r2, r3}
   d5870:	e895 0003 	ldmia.w	r5, {r0, r1}
   d5874:	e884 0003 	stmia.w	r4, {r0, r1}
   d5878:	9b10      	ldr	r3, [sp, #64]	; 0x40
   d587a:	9302      	str	r3, [sp, #8]
   d587c:	2300      	movs	r3, #0
   d587e:	9301      	str	r3, [sp, #4]
   d5880:	f8cd c000 	str.w	ip, [sp]
   d5884:	4672      	mov	r2, lr
   d5886:	4639      	mov	r1, r7
   d5888:	4630      	mov	r0, r6
   d588a:	f7ff ffbf 	bl	d580c <_ZN5MQTT57publishEPKcS1_b9MQTT5_QOSbPt22MQTT5PublishProperties>
}
   d588e:	b00b      	add	sp, #44	; 0x2c
   d5890:	bdf0      	pop	{r4, r5, r6, r7, pc}
   d5892:	bf00      	nop
   d5894:	000db9c4 	.word	0x000db9c4

000d5898 <_ZN5MQTT55closeEv>:
    buffer[(*position)++] = content >> 8;
    buffer[(*position)++] = content & 0xFF;
    return true;
}

void MQTT5::close() {
   d5898:	b510      	push	{r4, lr}
   d589a:	4604      	mov	r4, r0
    free(registeredTopicAlias);
   d589c:	6b00      	ldr	r0, [r0, #48]	; 0x30
   d589e:	f000 fdd5 	bl	d644c <free>
    registeredTopicAlias = NULL;
   d58a2:	2300      	movs	r3, #0
    registeredTopicAliasLen = 0;
    isConnecting = false;
    packetsInFlight = 0;
    socket->stop();
   d58a4:	6860      	ldr	r0, [r4, #4]
    return true;
}

void MQTT5::close() {
    free(registeredTopicAlias);
    registeredTopicAlias = NULL;
   d58a6:	6323      	str	r3, [r4, #48]	; 0x30
    registeredTopicAliasLen = 0;
   d58a8:	f884 3034 	strb.w	r3, [r4, #52]	; 0x34
    isConnecting = false;
   d58ac:	f884 3028 	strb.w	r3, [r4, #40]	; 0x28
    packetsInFlight = 0;
   d58b0:	f884 3035 	strb.w	r3, [r4, #53]	; 0x35
    socket->stop();
   d58b4:	6803      	ldr	r3, [r0, #0]
}
   d58b6:	e8bd 4010 	ldmia.w	sp!, {r4, lr}
    free(registeredTopicAlias);
    registeredTopicAlias = NULL;
    registeredTopicAliasLen = 0;
    isConnecting = false;
    packetsInFlight = 0;
    socket->stop();
   d58ba:	6adb      	ldr	r3, [r3, #44]	; 0x2c
   d58bc:	4718      	bx	r3
	...

000d58c0 <_ZN5MQTT520processPacketConnAckEhtt>:
            logger.info("Unkown control packet type %d", packetType);   
            break;
    }
}

void MQTT5::processPacketConnAck(uint8_t flags, uint16_t index, uint16_t contentLength) {
   d58c0:	b57f      	push	{r0, r1, r2, r3, r4, r5, r6, lr}
    isConnecting = false;
   d58c2:	2300      	movs	r3, #0
   d58c4:	f880 3028 	strb.w	r3, [r0, #40]	; 0x28
    bool sessionPresent = buffer[index++] & 0x1;
   d58c8:	1c53      	adds	r3, r2, #1
   d58ca:	6881      	ldr	r1, [r0, #8]
   d58cc:	b29b      	uxth	r3, r3
   d58ce:	f8ad 3006 	strh.w	r3, [sp, #6]
   d58d2:	5c8e      	ldrb	r6, [r1, r2]
    MQTT5_REASON_CODE reasonCode = (MQTT5_REASON_CODE) buffer[index++];
   d58d4:	3202      	adds	r2, #2
   d58d6:	f8ad 2006 	strh.w	r2, [sp, #6]
   d58da:	5ccd      	ldrb	r5, [r1, r3]
            logger.info("Unkown control packet type %d", packetType);   
            break;
    }
}

void MQTT5::processPacketConnAck(uint8_t flags, uint16_t index, uint16_t contentLength) {
   d58dc:	4604      	mov	r4, r0
    isConnecting = false;
    bool sessionPresent = buffer[index++] & 0x1;
    MQTT5_REASON_CODE reasonCode = (MQTT5_REASON_CODE) buffer[index++];
    if (reasonCode == MQTT5_REASON_CODE::SUCCESS) {
   d58de:	bb05      	cbnz	r5, d5922 <_ZN5MQTT520processPacketConnAckEhtt+0x62>
        uint16_t propertiesLength;
        if (readVariableByteInteger(&index, &propertiesLength) && propertiesLength > 0) {
   d58e0:	f10d 020e 	add.w	r2, sp, #14
   d58e4:	f10d 0106 	add.w	r1, sp, #6
   d58e8:	f7ff f97a 	bl	d4be0 <_ZN5MQTT523readVariableByteIntegerEPtS0_>
   d58ec:	b110      	cbz	r0, d58f4 <_ZN5MQTT520processPacketConnAckEhtt+0x34>
   d58ee:	f8bd 300e 	ldrh.w	r3, [sp, #14]
   d58f2:	bb13      	cbnz	r3, d593a <_ZN5MQTT520processPacketConnAckEhtt+0x7a>
        }
        lastPingSent = 0;
        pingRetries = 0;
        nextPacketId = 1;
        // init topic alias array
        registeredTopicAlias = (uint16_t*) malloc(maxTopicAlias * sizeof(uint16_t));
   d58f4:	f894 002e 	ldrb.w	r0, [r4, #46]	; 0x2e
                processPacketConnAckProperties(buffer[index++], &index);
            }
        }
        lastPingSent = 0;
        pingRetries = 0;
        nextPacketId = 1;
   d58f8:	2301      	movs	r3, #1
            uint16_t propertiesStartIndex = index;
            while (index - propertiesStartIndex < propertiesLength) {
                processPacketConnAckProperties(buffer[index++], &index);
            }
        }
        lastPingSent = 0;
   d58fa:	2500      	movs	r5, #0
        pingRetries = 0;
        nextPacketId = 1;
   d58fc:	8563      	strh	r3, [r4, #42]	; 0x2a
        // init topic alias array
        registeredTopicAlias = (uint16_t*) malloc(maxTopicAlias * sizeof(uint16_t));
   d58fe:	4098      	lsls	r0, r3
            uint16_t propertiesStartIndex = index;
            while (index - propertiesStartIndex < propertiesLength) {
                processPacketConnAckProperties(buffer[index++], &index);
            }
        }
        lastPingSent = 0;
   d5900:	6225      	str	r5, [r4, #32]
        pingRetries = 0;
   d5902:	f884 5024 	strb.w	r5, [r4, #36]	; 0x24
        nextPacketId = 1;
        // init topic alias array
        registeredTopicAlias = (uint16_t*) malloc(maxTopicAlias * sizeof(uint16_t));
   d5906:	f000 fd99 	bl	d643c <malloc>
        registeredTopicAliasLen = 0;
   d590a:	f884 5034 	strb.w	r5, [r4, #52]	; 0x34
        }
        lastPingSent = 0;
        pingRetries = 0;
        nextPacketId = 1;
        // init topic alias array
        registeredTopicAlias = (uint16_t*) malloc(maxTopicAlias * sizeof(uint16_t));
   d590e:	6320      	str	r0, [r4, #48]	; 0x30
        registeredTopicAliasLen = 0;
        logger.info("Successfully connected");
   d5910:	4915      	ldr	r1, [pc, #84]	; (d5968 <_ZN5MQTT520processPacketConnAckEhtt+0xa8>)
   d5912:	4620      	mov	r0, r4
   d5914:	f7fe fc0c 	bl	d4130 <_ZNK5spark6Logger4infoEPKcz>
        if (callbackConnectSuccess)
   d5918:	6ba3      	ldr	r3, [r4, #56]	; 0x38
   d591a:	b313      	cbz	r3, d5962 <_ZN5MQTT520processPacketConnAckEhtt+0xa2>
            callbackConnectSuccess(sessionPresent);
   d591c:	f006 0001 	and.w	r0, r6, #1
   d5920:	e009      	b.n	d5936 <_ZN5MQTT520processPacketConnAckEhtt+0x76>
    } else {
        close();
   d5922:	f7ff ffb9 	bl	d5898 <_ZN5MQTT55closeEv>
        logger.info("Failed to connect. Reason: %d", (uint8_t) reasonCode);   
   d5926:	462a      	mov	r2, r5
   d5928:	4910      	ldr	r1, [pc, #64]	; (d596c <_ZN5MQTT520processPacketConnAckEhtt+0xac>)
   d592a:	4620      	mov	r0, r4
   d592c:	f7fe fc00 	bl	d4130 <_ZNK5spark6Logger4infoEPKcz>
        if (callbackConnectFailed)
   d5930:	6be3      	ldr	r3, [r4, #60]	; 0x3c
   d5932:	b1b3      	cbz	r3, d5962 <_ZN5MQTT520processPacketConnAckEhtt+0xa2>
            callbackConnectFailed(reasonCode);
   d5934:	4628      	mov	r0, r5
   d5936:	4798      	blx	r3
    }
}
   d5938:	e013      	b.n	d5962 <_ZN5MQTT520processPacketConnAckEhtt+0xa2>
    bool sessionPresent = buffer[index++] & 0x1;
    MQTT5_REASON_CODE reasonCode = (MQTT5_REASON_CODE) buffer[index++];
    if (reasonCode == MQTT5_REASON_CODE::SUCCESS) {
        uint16_t propertiesLength;
        if (readVariableByteInteger(&index, &propertiesLength) && propertiesLength > 0) {
            uint16_t propertiesStartIndex = index;
   d593a:	f8bd 5006 	ldrh.w	r5, [sp, #6]
            while (index - propertiesStartIndex < propertiesLength) {
   d593e:	f8bd 3006 	ldrh.w	r3, [sp, #6]
   d5942:	f8bd 200e 	ldrh.w	r2, [sp, #14]
   d5946:	1b59      	subs	r1, r3, r5
   d5948:	4291      	cmp	r1, r2
   d594a:	dad3      	bge.n	d58f4 <_ZN5MQTT520processPacketConnAckEhtt+0x34>
                processPacketConnAckProperties(buffer[index++], &index);
   d594c:	1c5a      	adds	r2, r3, #1
   d594e:	68a1      	ldr	r1, [r4, #8]
   d5950:	f8ad 2006 	strh.w	r2, [sp, #6]
   d5954:	5cc9      	ldrb	r1, [r1, r3]
   d5956:	f10d 0206 	add.w	r2, sp, #6
   d595a:	4620      	mov	r0, r4
   d595c:	f7ff fa5a 	bl	d4e14 <_ZN5MQTT530processPacketConnAckPropertiesEhPt>
    MQTT5_REASON_CODE reasonCode = (MQTT5_REASON_CODE) buffer[index++];
    if (reasonCode == MQTT5_REASON_CODE::SUCCESS) {
        uint16_t propertiesLength;
        if (readVariableByteInteger(&index, &propertiesLength) && propertiesLength > 0) {
            uint16_t propertiesStartIndex = index;
            while (index - propertiesStartIndex < propertiesLength) {
   d5960:	e7ed      	b.n	d593e <_ZN5MQTT520processPacketConnAckEhtt+0x7e>
        close();
        logger.info("Failed to connect. Reason: %d", (uint8_t) reasonCode);   
        if (callbackConnectFailed)
            callbackConnectFailed(reasonCode);
    }
}
   d5962:	b004      	add	sp, #16
   d5964:	bd70      	pop	{r4, r5, r6, pc}
   d5966:	bf00      	nop
   d5968:	000db7c6 	.word	0x000db7c6
   d596c:	000db7dd 	.word	0x000db7dd

000d5970 <_ZN5MQTT523processPacketDisconnectEhtt>:
void MQTT5::processPacketPingResp(uint8_t flags, uint16_t startIndex, uint16_t contentLength) {
    lastPingSent = 0;
    pingRetries = 0;
}

void MQTT5::processPacketDisconnect(uint8_t flags, uint16_t startIndex, uint16_t contentLength) {
   d5970:	b510      	push	{r4, lr}
   d5972:	4604      	mov	r4, r0
    MQTT5_REASON_CODE reason = contentLength == 0 ? MQTT5_REASON_CODE::SUCCESS : (MQTT5_REASON_CODE) buffer[startIndex++];
   d5974:	b113      	cbz	r3, d597c <_ZN5MQTT523processPacketDisconnectEhtt+0xc>
   d5976:	6883      	ldr	r3, [r0, #8]
   d5978:	5c9a      	ldrb	r2, [r3, r2]
   d597a:	e000      	b.n	d597e <_ZN5MQTT523processPacketDisconnectEhtt+0xe>
   d597c:	461a      	mov	r2, r3
    logger.info("Received disconnect from server due to reason %d", (uint8_t) reason);
   d597e:	4620      	mov	r0, r4
   d5980:	4903      	ldr	r1, [pc, #12]	; (d5990 <_ZN5MQTT523processPacketDisconnectEhtt+0x20>)
   d5982:	f7fe fbd5 	bl	d4130 <_ZNK5spark6Logger4infoEPKcz>
    close();
   d5986:	4620      	mov	r0, r4
}
   d5988:	e8bd 4010 	ldmia.w	sp!, {r4, lr}
}

void MQTT5::processPacketDisconnect(uint8_t flags, uint16_t startIndex, uint16_t contentLength) {
    MQTT5_REASON_CODE reason = contentLength == 0 ? MQTT5_REASON_CODE::SUCCESS : (MQTT5_REASON_CODE) buffer[startIndex++];
    logger.info("Received disconnect from server due to reason %d", (uint8_t) reason);
    close();
   d598c:	f7ff bf84 	b.w	d5898 <_ZN5MQTT55closeEv>
   d5990:	000db7fb 	.word	0x000db7fb

000d5994 <_ZN5MQTT513processPacketEhhtt>:
        }
    }
    return 0;
}

void MQTT5::processPacket(uint8_t packetType, uint8_t flags, uint16_t index, uint16_t contentLength) {
   d5994:	b570      	push	{r4, r5, r6, lr}
   d5996:	460c      	mov	r4, r1
    switch (packetType) {
   d5998:	1ea5      	subs	r5, r4, #2
        }
    }
    return 0;
}

void MQTT5::processPacket(uint8_t packetType, uint8_t flags, uint16_t index, uint16_t contentLength) {
   d599a:	4611      	mov	r1, r2
   d599c:	461a      	mov	r2, r3
   d599e:	f8bd 3010 	ldrh.w	r3, [sp, #16]
    switch (packetType) {
   d59a2:	2d0c      	cmp	r5, #12
   d59a4:	d831      	bhi.n	d5a0a <_ZN5MQTT513processPacketEhhtt+0x76>
   d59a6:	e8df f005 	tbb	[pc, r5]
   d59aa:	0b07      	.short	0x0b07
   d59ac:	1b170f0f 	.word	0x1b170f0f
   d59b0:	23301f30 	.word	0x23301f30
   d59b4:	2730      	.short	0x2730
   d59b6:	2c          	.byte	0x2c
   d59b7:	00          	.byte	0x00
            break;
        default: 
            logger.info("Unkown control packet type %d", packetType);   
            break;
    }
}
   d59b8:	e8bd 4070 	ldmia.w	sp!, {r4, r5, r6, lr}
}

void MQTT5::processPacket(uint8_t packetType, uint8_t flags, uint16_t index, uint16_t contentLength) {
    switch (packetType) {
        case CTRL_CONNACK:
            processPacketConnAck(flags, index, contentLength);
   d59bc:	f7ff bf80 	b.w	d58c0 <_ZN5MQTT520processPacketConnAckEhtt>
            break;
        default: 
            logger.info("Unkown control packet type %d", packetType);   
            break;
    }
}
   d59c0:	e8bd 4070 	ldmia.w	sp!, {r4, r5, r6, lr}
    switch (packetType) {
        case CTRL_CONNACK:
            processPacketConnAck(flags, index, contentLength);
            break;
        case CTRL_PUBLISH:
            processPacketPub(flags, index, contentLength);
   d59c4:	f7ff bd12 	b.w	d53ec <_ZN5MQTT516processPacketPubEhtt>
            break;
        case CTRL_PUBACK:
        case CTRL_PUBREC:
            processPacketPubAckRec(flags, index, contentLength, packetType == CTRL_PUBACK);
   d59c8:	1f25      	subs	r5, r4, #4
   d59ca:	426c      	negs	r4, r5
   d59cc:	416c      	adcs	r4, r5
   d59ce:	9404      	str	r4, [sp, #16]
            break;
        default: 
            logger.info("Unkown control packet type %d", packetType);   
            break;
    }
}
   d59d0:	e8bd 4070 	ldmia.w	sp!, {r4, r5, r6, lr}
        case CTRL_PUBLISH:
            processPacketPub(flags, index, contentLength);
            break;
        case CTRL_PUBACK:
        case CTRL_PUBREC:
            processPacketPubAckRec(flags, index, contentLength, packetType == CTRL_PUBACK);
   d59d4:	f7ff b946 	b.w	d4c64 <_ZN5MQTT522processPacketPubAckRecEhttb>
            break;
        default: 
            logger.info("Unkown control packet type %d", packetType);   
            break;
    }
}
   d59d8:	e8bd 4070 	ldmia.w	sp!, {r4, r5, r6, lr}
        case CTRL_PUBACK:
        case CTRL_PUBREC:
            processPacketPubAckRec(flags, index, contentLength, packetType == CTRL_PUBACK);
            break;
        case CTRL_PUBREL:
            processPacketPubRel(flags, index, contentLength);
   d59dc:	f7ff bdb0 	b.w	d5540 <_ZN5MQTT519processPacketPubRelEhtt>
            break;
        default: 
            logger.info("Unkown control packet type %d", packetType);   
            break;
    }
}
   d59e0:	e8bd 4070 	ldmia.w	sp!, {r4, r5, r6, lr}
            break;
        case CTRL_PUBREL:
            processPacketPubRel(flags, index, contentLength);
            break;
        case CTRL_PUBCOMP:
            processPacketPubComp(flags, index, contentLength);
   d59e4:	f7ff b976 	b.w	d4cd4 <_ZN5MQTT520processPacketPubCompEhtt>
            break;
        default: 
            logger.info("Unkown control packet type %d", packetType);   
            break;
    }
}
   d59e8:	e8bd 4070 	ldmia.w	sp!, {r4, r5, r6, lr}
            break;
        case CTRL_PUBCOMP:
            processPacketPubComp(flags, index, contentLength);
            break;
        case CTRL_SUBACK:
            processPacketSubAck(flags, index, contentLength);
   d59ec:	f7ff b990 	b.w	d4d10 <_ZN5MQTT519processPacketSubAckEhtt>
            break;
        default: 
            logger.info("Unkown control packet type %d", packetType);   
            break;
    }
}
   d59f0:	e8bd 4070 	ldmia.w	sp!, {r4, r5, r6, lr}
            break;
        case CTRL_SUBACK:
            processPacketSubAck(flags, index, contentLength);
            break;
        case CTRL_UNSUBACK:
            processPacketUnsub(flags, index, contentLength);
   d59f4:	f7ff b9c4 	b.w	d4d80 <_ZN5MQTT518processPacketUnsubEhtt>
        }
    }
}

void MQTT5::processPacketPingResp(uint8_t flags, uint16_t startIndex, uint16_t contentLength) {
    lastPingSent = 0;
   d59f8:	2300      	movs	r3, #0
   d59fa:	6203      	str	r3, [r0, #32]
    pingRetries = 0;
   d59fc:	f880 3024 	strb.w	r3, [r0, #36]	; 0x24
   d5a00:	bd70      	pop	{r4, r5, r6, pc}
            break;
        default: 
            logger.info("Unkown control packet type %d", packetType);   
            break;
    }
}
   d5a02:	e8bd 4070 	ldmia.w	sp!, {r4, r5, r6, lr}
            break;
        case CTRL_PINGRESP:
            processPacketPingResp(flags, index, contentLength);
            break;
        case CTRL_DISCONNECT:
            processPacketDisconnect(flags, index, contentLength);
   d5a06:	f7ff bfb3 	b.w	d5970 <_ZN5MQTT523processPacketDisconnectEhtt>
            break;
        default: 
            logger.info("Unkown control packet type %d", packetType);   
   d5a0a:	4622      	mov	r2, r4
   d5a0c:	4901      	ldr	r1, [pc, #4]	; (d5a14 <_ZN5MQTT513processPacketEhhtt+0x80>)
   d5a0e:	f7fe fb8f 	bl	d4130 <_ZNK5spark6Logger4infoEPKcz>
   d5a12:	bd70      	pop	{r4, r5, r6, pc}
   d5a14:	000db82c 	.word	0x000db82c

000d5a18 <_ZN5MQTT54loopEv>:
    }
    logger.trace("Await timed out");
    return false;
}

uint8_t MQTT5::loop() {
   d5a18:	b57f      	push	{r0, r1, r2, r3, r4, r5, r6, lr}
   d5a1a:	4604      	mov	r4, r0
    // Check if connecting takes too long
    if (connecting()) {
   d5a1c:	f7ff f8a0 	bl	d4b60 <_ZN5MQTT510connectingEv>
   d5a20:	b328      	cbz	r0, d5a6e <_ZN5MQTT54loopEv+0x56>
        if (!socket->connected()) {
   d5a22:	6860      	ldr	r0, [r4, #4]
   d5a24:	6803      	ldr	r3, [r0, #0]
   d5a26:	6b1b      	ldr	r3, [r3, #48]	; 0x30
   d5a28:	4798      	blx	r3
   d5a2a:	4605      	mov	r5, r0
   d5a2c:	b938      	cbnz	r0, d5a3e <_ZN5MQTT54loopEv+0x26>
            close();
   d5a2e:	4620      	mov	r0, r4
   d5a30:	f7ff ff32 	bl	d5898 <_ZN5MQTT55closeEv>
            logger.info("Socked closed");
   d5a34:	4955      	ldr	r1, [pc, #340]	; (d5b8c <_ZN5MQTT54loopEv+0x174>)
   d5a36:	4620      	mov	r0, r4
   d5a38:	f7fe fb7a 	bl	d4130 <_ZNK5spark6Logger4infoEPKcz>
            return 0;
   d5a3c:	e0a2      	b.n	d5b84 <_ZN5MQTT54loopEv+0x16c>
   d5a3e:	f000 fac9 	bl	d5fd4 <HAL_Timer_Get_Milli_Seconds>
        } else if (millis() - lastOutbound > keepAlive*1000UL) {
   d5a42:	69a3      	ldr	r3, [r4, #24]
   d5a44:	8ce2      	ldrh	r2, [r4, #38]	; 0x26
   d5a46:	1ac0      	subs	r0, r0, r3
   d5a48:	f44f 737a 	mov.w	r3, #1000	; 0x3e8
   d5a4c:	4353      	muls	r3, r2
   d5a4e:	4298      	cmp	r0, r3
   d5a50:	d90d      	bls.n	d5a6e <_ZN5MQTT54loopEv+0x56>
            close();
   d5a52:	4620      	mov	r0, r4
   d5a54:	f7ff ff20 	bl	d5898 <_ZN5MQTT55closeEv>
            logger.info("Connect timed out");
   d5a58:	494d      	ldr	r1, [pc, #308]	; (d5b90 <_ZN5MQTT54loopEv+0x178>)
   d5a5a:	4620      	mov	r0, r4
   d5a5c:	f7fe fb68 	bl	d4130 <_ZNK5spark6Logger4infoEPKcz>
            if (callbackConnectFailed)
   d5a60:	6be3      	ldr	r3, [r4, #60]	; 0x3c
   d5a62:	2b00      	cmp	r3, #0
   d5a64:	f000 808d 	beq.w	d5b82 <_ZN5MQTT54loopEv+0x16a>
                callbackConnectFailed(MQTT5_REASON_CODE::UNSPECIFIED_ERROR);
   d5a68:	2080      	movs	r0, #128	; 0x80
   d5a6a:	4798      	blx	r3
   d5a6c:	e089      	b.n	d5b82 <_ZN5MQTT54loopEv+0x16a>
            return 0;
        }
    }

    // Read data from socket
    if (socket->available()) {
   d5a6e:	6860      	ldr	r0, [r4, #4]
   d5a70:	6803      	ldr	r3, [r0, #0]
   d5a72:	691b      	ldr	r3, [r3, #16]
   d5a74:	4798      	blx	r3
   d5a76:	2800      	cmp	r0, #0
   d5a78:	d043      	beq.n	d5b02 <_ZN5MQTT54loopEv+0xea>
   d5a7a:	f000 faab 	bl	d5fd4 <HAL_Timer_Get_Milli_Seconds>
        lastInbound = millis();
   d5a7e:	61e0      	str	r0, [r4, #28]
        uint16_t readLength = socket->read(buffer, maxPacketSize);
   d5a80:	6860      	ldr	r0, [r4, #4]
   d5a82:	8da2      	ldrh	r2, [r4, #44]	; 0x2c
   d5a84:	6803      	ldr	r3, [r0, #0]
   d5a86:	68a1      	ldr	r1, [r4, #8]
   d5a88:	6a9b      	ldr	r3, [r3, #40]	; 0x28
   d5a8a:	4798      	blx	r3
        logger.dump(buffer, readLength);
        logger.print("\n");
#endif

        uint16_t index = 1;
        uint16_t contentLength = 0;
   d5a8c:	aa04      	add	r2, sp, #16
   d5a8e:	2500      	movs	r5, #0
    }

    // Read data from socket
    if (socket->available()) {
        lastInbound = millis();
        uint16_t readLength = socket->read(buffer, maxPacketSize);
   d5a90:	4606      	mov	r6, r0
        logger.trace("Read %d bytes:", readLength);
        logger.dump(buffer, readLength);
        logger.print("\n");
#endif

        uint16_t index = 1;
   d5a92:	2301      	movs	r3, #1
        uint16_t contentLength = 0;
   d5a94:	f822 5d02 	strh.w	r5, [r2, #-2]!
        
        if (!readVariableByteInteger(&index, &contentLength)) {
   d5a98:	a903      	add	r1, sp, #12
   d5a9a:	4620      	mov	r0, r4
        logger.trace("Read %d bytes:", readLength);
        logger.dump(buffer, readLength);
        logger.print("\n");
#endif

        uint16_t index = 1;
   d5a9c:	f8ad 300c 	strh.w	r3, [sp, #12]
        uint16_t contentLength = 0;
        
        if (!readVariableByteInteger(&index, &contentLength)) {
   d5aa0:	f7ff f89e 	bl	d4be0 <_ZN5MQTT523readVariableByteIntegerEPtS0_>
   d5aa4:	b358      	cbz	r0, d5afe <_ZN5MQTT54loopEv+0xe6>
            return 0;
        } else if (readLength != contentLength + index) {
   d5aa6:	f8bd 300e 	ldrh.w	r3, [sp, #14]
   d5aaa:	f8bd 200c 	ldrh.w	r2, [sp, #12]
   d5aae:	b2b6      	uxth	r6, r6
   d5ab0:	441a      	add	r2, r3
   d5ab2:	4296      	cmp	r6, r2
   d5ab4:	d001      	beq.n	d5aba <_ZN5MQTT54loopEv+0xa2>
            logger.warn("Packet not complete");
   d5ab6:	4937      	ldr	r1, [pc, #220]	; (d5b94 <_ZN5MQTT54loopEv+0x17c>)
   d5ab8:	e05f      	b.n	d5b7a <_ZN5MQTT54loopEv+0x162>
            return 0;
        }

        uint8_t packetType = (buffer[0] >> 4);
   d5aba:	68a2      	ldr	r2, [r4, #8]
   d5abc:	7812      	ldrb	r2, [r2, #0]
   d5abe:	1112      	asrs	r2, r2, #4
        if (packetType != CTRL_PINGRESP && 
   d5ac0:	2a0d      	cmp	r2, #13
        } else if (readLength != contentLength + index) {
            logger.warn("Packet not complete");
            return 0;
        }

        uint8_t packetType = (buffer[0] >> 4);
   d5ac2:	b2d5      	uxtb	r5, r2
        if (packetType != CTRL_PINGRESP && 
   d5ac4:	d009      	beq.n	d5ada <_ZN5MQTT54loopEv+0xc2>
   d5ac6:	2a03      	cmp	r2, #3
   d5ac8:	d007      	beq.n	d5ada <_ZN5MQTT54loopEv+0xc2>
            packetType != CTRL_PUBLISH && 
   d5aca:	2d0e      	cmp	r5, #14
            packetType != CTRL_DISCONNECT)
            packetsInFlight--;
   d5acc:	bf1e      	ittt	ne
   d5ace:	f894 1035 	ldrbne.w	r1, [r4, #53]	; 0x35
   d5ad2:	f101 31ff 	addne.w	r1, r1, #4294967295
   d5ad6:	f884 1035 	strbne.w	r1, [r4, #53]	; 0x35
            
        logger.trace("Received packet type %d with length %d", packetType, contentLength);
   d5ada:	4620      	mov	r0, r4
   d5adc:	492e      	ldr	r1, [pc, #184]	; (d5b98 <_ZN5MQTT54loopEv+0x180>)
   d5ade:	f7ff f807 	bl	d4af0 <_ZNK5spark6Logger5traceEPKcz>
        processPacket(packetType, buffer[0] & 0xF, index, contentLength);
   d5ae2:	68a2      	ldr	r2, [r4, #8]
   d5ae4:	f8bd 100e 	ldrh.w	r1, [sp, #14]
   d5ae8:	7812      	ldrb	r2, [r2, #0]
   d5aea:	f8bd 300c 	ldrh.w	r3, [sp, #12]
   d5aee:	9100      	str	r1, [sp, #0]
   d5af0:	f002 020f 	and.w	r2, r2, #15
   d5af4:	4629      	mov	r1, r5
   d5af6:	4620      	mov	r0, r4
   d5af8:	f7ff ff4c 	bl	d5994 <_ZN5MQTT513processPacketEhhtt>
        return packetType;
   d5afc:	e042      	b.n	d5b84 <_ZN5MQTT54loopEv+0x16c>

        uint16_t index = 1;
        uint16_t contentLength = 0;
        
        if (!readVariableByteInteger(&index, &contentLength)) {
            return 0;
   d5afe:	4605      	mov	r5, r0
   d5b00:	e040      	b.n	d5b84 <_ZN5MQTT54loopEv+0x16c>
        logger.trace("Received packet type %d with length %d", packetType, contentLength);
        processPacket(packetType, buffer[0] & 0xF, index, contentLength);
        return packetType;
    }
    
    if (!connected())
   d5b02:	4620      	mov	r0, r4
   d5b04:	f7ff f833 	bl	d4b6e <_ZN5MQTT59connectedEv>
   d5b08:	2800      	cmp	r0, #0
   d5b0a:	d03a      	beq.n	d5b82 <_ZN5MQTT54loopEv+0x16a>
   d5b0c:	f000 fa62 	bl	d5fd4 <HAL_Timer_Get_Milli_Seconds>
        return 0;

    // Check keep alive interval
    if ((millis() - lastInbound >= keepAlive*1000UL) || (millis() - lastOutbound >= keepAlive*1000UL)) {
   d5b10:	69e3      	ldr	r3, [r4, #28]
   d5b12:	1ac0      	subs	r0, r0, r3
   d5b14:	8ce3      	ldrh	r3, [r4, #38]	; 0x26
   d5b16:	f44f 757a 	mov.w	r5, #1000	; 0x3e8
   d5b1a:	436b      	muls	r3, r5
   d5b1c:	4298      	cmp	r0, r3
   d5b1e:	d207      	bcs.n	d5b30 <_ZN5MQTT54loopEv+0x118>
   d5b20:	f000 fa58 	bl	d5fd4 <HAL_Timer_Get_Milli_Seconds>
   d5b24:	69a3      	ldr	r3, [r4, #24]
   d5b26:	1ac0      	subs	r0, r0, r3
   d5b28:	8ce3      	ldrh	r3, [r4, #38]	; 0x26
   d5b2a:	435d      	muls	r5, r3
   d5b2c:	42a8      	cmp	r0, r5
   d5b2e:	d309      	bcc.n	d5b44 <_ZN5MQTT54loopEv+0x12c>
        if (lastPingSent == 0 && !ping()) {
   d5b30:	6a23      	ldr	r3, [r4, #32]
   d5b32:	b94b      	cbnz	r3, d5b48 <_ZN5MQTT54loopEv+0x130>
   d5b34:	4620      	mov	r0, r4
   d5b36:	f7ff fb67 	bl	d5208 <_ZN5MQTT54pingEv>
   d5b3a:	b918      	cbnz	r0, d5b44 <_ZN5MQTT54loopEv+0x12c>
            logger.warn("Ping could not be sent");
   d5b3c:	4917      	ldr	r1, [pc, #92]	; (d5b9c <_ZN5MQTT54loopEv+0x184>)
   d5b3e:	4620      	mov	r0, r4
   d5b40:	f7fe ffe4 	bl	d4b0c <_ZNK5spark6Logger4warnEPKcz>
        }
    }

    // Check if ping needs retry
    if (lastPingSent != 0 && millis() - lastPingSent >= PING_TIMEOUT && pingRetries < 2) {
   d5b44:	6a23      	ldr	r3, [r4, #32]
   d5b46:	b1e3      	cbz	r3, d5b82 <_ZN5MQTT54loopEv+0x16a>
   d5b48:	f000 fa44 	bl	d5fd4 <HAL_Timer_Get_Milli_Seconds>
   d5b4c:	6a23      	ldr	r3, [r4, #32]
   d5b4e:	1ac0      	subs	r0, r0, r3
   d5b50:	f640 33b7 	movw	r3, #2999	; 0xbb7
   d5b54:	4298      	cmp	r0, r3
   d5b56:	d914      	bls.n	d5b82 <_ZN5MQTT54loopEv+0x16a>
   d5b58:	f894 3024 	ldrb.w	r3, [r4, #36]	; 0x24
   d5b5c:	2b01      	cmp	r3, #1
   d5b5e:	d810      	bhi.n	d5b82 <_ZN5MQTT54loopEv+0x16a>
        pingRetries++;
   d5b60:	3301      	adds	r3, #1
   d5b62:	f884 3024 	strb.w	r3, [r4, #36]	; 0x24
        logger.info("Ping response not received yet. Resending ping request");
   d5b66:	490e      	ldr	r1, [pc, #56]	; (d5ba0 <_ZN5MQTT54loopEv+0x188>)
   d5b68:	4620      	mov	r0, r4
   d5b6a:	f7fe fae1 	bl	d4130 <_ZNK5spark6Logger4infoEPKcz>
        if (!ping()) {
   d5b6e:	4620      	mov	r0, r4
   d5b70:	f7ff fb4a 	bl	d5208 <_ZN5MQTT54pingEv>
   d5b74:	4605      	mov	r5, r0
   d5b76:	b920      	cbnz	r0, d5b82 <_ZN5MQTT54loopEv+0x16a>
            logger.warn("Ping could not be sent");
   d5b78:	4908      	ldr	r1, [pc, #32]	; (d5b9c <_ZN5MQTT54loopEv+0x184>)
   d5b7a:	4620      	mov	r0, r4
   d5b7c:	f7fe ffc6 	bl	d4b0c <_ZNK5spark6Logger4warnEPKcz>
   d5b80:	e000      	b.n	d5b84 <_ZN5MQTT54loopEv+0x16c>
        }
    }
    return 0;
   d5b82:	2500      	movs	r5, #0
}
   d5b84:	4628      	mov	r0, r5
   d5b86:	b004      	add	sp, #16
   d5b88:	bd70      	pop	{r4, r5, r6, pc}
   d5b8a:	bf00      	nop
   d5b8c:	000db84a 	.word	0x000db84a
   d5b90:	000db858 	.word	0x000db858
   d5b94:	000db86a 	.word	0x000db86a
   d5b98:	000db87e 	.word	0x000db87e
   d5b9c:	000db8a5 	.word	0x000db8a5
   d5ba0:	000db8bc 	.word	0x000db8bc

000d5ba4 <_ZN5MQTT512awaitPacketsEm>:

uint8_t MQTT5::packetsAwaitingAck() {
    return packetsInFlight;
}

bool MQTT5::awaitPackets(unsigned long timeout) {
   d5ba4:	b570      	push	{r4, r5, r6, lr}
   d5ba6:	4604      	mov	r4, r0
   d5ba8:	460e      	mov	r6, r1
   d5baa:	f000 fa13 	bl	d5fd4 <HAL_Timer_Get_Milli_Seconds>
    unsigned long t = millis();
    logger.trace("Await packet acks");
   d5bae:	490e      	ldr	r1, [pc, #56]	; (d5be8 <_ZN5MQTT512awaitPacketsEm+0x44>)
   d5bb0:	4605      	mov	r5, r0
   d5bb2:	4620      	mov	r0, r4
   d5bb4:	f7fe ff9c 	bl	d4af0 <_ZNK5spark6Logger5traceEPKcz>
   d5bb8:	f000 fa0c 	bl	d5fd4 <HAL_Timer_Get_Milli_Seconds>
    while (millis() - t < timeout) {
   d5bbc:	1b40      	subs	r0, r0, r5
   d5bbe:	42b0      	cmp	r0, r6
   d5bc0:	d20c      	bcs.n	d5bdc <_ZN5MQTT512awaitPacketsEm+0x38>
        loop();
   d5bc2:	4620      	mov	r0, r4
   d5bc4:	f7ff ff28 	bl	d5a18 <_ZN5MQTT54loopEv>
        if (packetsAwaitingAck() == 0) {
   d5bc8:	f894 3035 	ldrb.w	r3, [r4, #53]	; 0x35
   d5bcc:	2b00      	cmp	r3, #0
   d5bce:	d1f3      	bne.n	d5bb8 <_ZN5MQTT512awaitPacketsEm+0x14>
            logger.trace("All packets acknowledged");
   d5bd0:	4620      	mov	r0, r4
   d5bd2:	4906      	ldr	r1, [pc, #24]	; (d5bec <_ZN5MQTT512awaitPacketsEm+0x48>)
   d5bd4:	f7fe ff8c 	bl	d4af0 <_ZNK5spark6Logger5traceEPKcz>
            return true;
   d5bd8:	2001      	movs	r0, #1
   d5bda:	bd70      	pop	{r4, r5, r6, pc}
        }
    }
    logger.trace("Await timed out");
   d5bdc:	4620      	mov	r0, r4
   d5bde:	4904      	ldr	r1, [pc, #16]	; (d5bf0 <_ZN5MQTT512awaitPacketsEm+0x4c>)
   d5be0:	f7fe ff86 	bl	d4af0 <_ZNK5spark6Logger5traceEPKcz>
    return false;
   d5be4:	2000      	movs	r0, #0
}
   d5be6:	bd70      	pop	{r4, r5, r6, pc}
   d5be8:	000db8f3 	.word	0x000db8f3
   d5bec:	000db905 	.word	0x000db905
   d5bf0:	000db91e 	.word	0x000db91e

000d5bf4 <_ZN5MQTT57connectEPKc19MQTT5ConnectOptions>:
    hostDomain = domain;
    hostPort = port;
    return connect(clientId, options);
}

bool MQTT5::connect(const char *clientId, MQTT5ConnectOptions options) {
   d5bf4:	b082      	sub	sp, #8
   d5bf6:	e92d 4ff0 	stmdb	sp!, {r4, r5, r6, r7, r8, r9, sl, fp, lr}
   d5bfa:	b08f      	sub	sp, #60	; 0x3c
   d5bfc:	4604      	mov	r4, r0
   d5bfe:	9105      	str	r1, [sp, #20]
   d5c00:	a918      	add	r1, sp, #96	; 0x60
   d5c02:	e881 000c 	stmia.w	r1, {r2, r3}
   d5c06:	9b1b      	ldr	r3, [sp, #108]	; 0x6c
   d5c08:	9f1a      	ldr	r7, [sp, #104]	; 0x68
   d5c0a:	9304      	str	r3, [sp, #16]
   d5c0c:	f8dd 9074 	ldr.w	r9, [sp, #116]	; 0x74
   d5c10:	f8dd 8078 	ldr.w	r8, [sp, #120]	; 0x78
   d5c14:	9d1f      	ldr	r5, [sp, #124]	; 0x7c
    if (connecting())
   d5c16:	f7fe ffa3 	bl	d4b60 <_ZN5MQTT510connectingEv>
   d5c1a:	4682      	mov	sl, r0
   d5c1c:	2800      	cmp	r0, #0
   d5c1e:	f040 815b 	bne.w	d5ed8 <_ZN5MQTT57connectEPKc19MQTT5ConnectOptions+0x2e4>
        return true;
    
    keepAlive = options.keepAlive;
   d5c22:	f8bd 3064 	ldrh.w	r3, [sp, #100]	; 0x64
   d5c26:	84e3      	strh	r3, [r4, #38]	; 0x26
    if (!connected()) {
   d5c28:	4620      	mov	r0, r4
   d5c2a:	f7fe ffa0 	bl	d4b6e <_ZN5MQTT59connectedEv>
   d5c2e:	4606      	mov	r6, r0
   d5c30:	2800      	cmp	r0, #0
   d5c32:	f040 814d 	bne.w	d5ed0 <_ZN5MQTT57connectEPKc19MQTT5ConnectOptions+0x2dc>
        isConnecting = true;
        bool success = true;
        if (hostIp == NULL) { // Use domain to connect
   d5c36:	6921      	ldr	r1, [r4, #16]
    if (connecting())
        return true;
    
    keepAlive = options.keepAlive;
    if (!connected()) {
        isConnecting = true;
   d5c38:	2301      	movs	r3, #1
   d5c3a:	f884 3028 	strb.w	r3, [r4, #40]	; 0x28
   d5c3e:	8aa3      	ldrh	r3, [r4, #20]
        bool success = true;
        if (hostIp == NULL) { // Use domain to connect
   d5c40:	b969      	cbnz	r1, d5c5e <_ZN5MQTT57connectEPKc19MQTT5ConnectOptions+0x6a>
            logger.info("Connecting to server %s on port %d", hostDomain, hostPort);
   d5c42:	68e2      	ldr	r2, [r4, #12]
   d5c44:	49a7      	ldr	r1, [pc, #668]	; (d5ee4 <_ZN5MQTT57connectEPKc19MQTT5ConnectOptions+0x2f0>)
   d5c46:	4620      	mov	r0, r4
   d5c48:	f7fe fa72 	bl	d4130 <_ZNK5spark6Logger4infoEPKcz>
            success = socket->connect(hostDomain, hostPort);
   d5c4c:	6860      	ldr	r0, [r4, #4]
   d5c4e:	8aa2      	ldrh	r2, [r4, #20]
   d5c50:	6803      	ldr	r3, [r0, #0]
   d5c52:	68e1      	ldr	r1, [r4, #12]
   d5c54:	f8d3 a024 	ldr.w	sl, [r3, #36]	; 0x24
   d5c58:	4633      	mov	r3, r6
   d5c5a:	47d0      	blx	sl
   d5c5c:	e01a      	b.n	d5c94 <_ZN5MQTT57connectEPKc19MQTT5ConnectOptions+0xa0>
        } else { // Use ip address to connect
            logger.info("Connecting to server %d.%d.%d.%d on port %d", hostIp[0], hostIp[1], hostIp[2], hostIp[3], hostPort);
   d5c5e:	7848      	ldrb	r0, [r1, #1]
   d5c60:	780a      	ldrb	r2, [r1, #0]
   d5c62:	9302      	str	r3, [sp, #8]
   d5c64:	78cb      	ldrb	r3, [r1, #3]
   d5c66:	9301      	str	r3, [sp, #4]
   d5c68:	788b      	ldrb	r3, [r1, #2]
   d5c6a:	9300      	str	r3, [sp, #0]
   d5c6c:	499e      	ldr	r1, [pc, #632]	; (d5ee8 <_ZN5MQTT57connectEPKc19MQTT5ConnectOptions+0x2f4>)
   d5c6e:	4603      	mov	r3, r0
   d5c70:	4620      	mov	r0, r4
   d5c72:	f7fe fa5d 	bl	d4130 <_ZNK5spark6Logger4infoEPKcz>
            success = socket->connect(hostIp, hostPort);
   d5c76:	f8d4 a004 	ldr.w	sl, [r4, #4]
   d5c7a:	6921      	ldr	r1, [r4, #16]
   d5c7c:	f8da 3000 	ldr.w	r3, [sl]
   d5c80:	a808      	add	r0, sp, #32
   d5c82:	f8d3 b020 	ldr.w	fp, [r3, #32]
   d5c86:	f003 fd77 	bl	d9778 <_ZN9IPAddressC1EPKh>
   d5c8a:	4633      	mov	r3, r6
   d5c8c:	8aa2      	ldrh	r2, [r4, #20]
   d5c8e:	a908      	add	r1, sp, #32
   d5c90:	4650      	mov	r0, sl
   d5c92:	47d8      	blx	fp
   d5c94:	3000      	adds	r0, #0
   d5c96:	bf18      	it	ne
   d5c98:	2001      	movne	r0, #1
        }

        // Check if TCP connection was open successfully
        if (!success) {
   d5c9a:	b920      	cbnz	r0, d5ca6 <_ZN5MQTT57connectEPKc19MQTT5ConnectOptions+0xb2>
            logger.info("Could not open TCP connection to server");
   d5c9c:	4993      	ldr	r1, [pc, #588]	; (d5eec <_ZN5MQTT57connectEPKc19MQTT5ConnectOptions+0x2f8>)
   d5c9e:	4620      	mov	r0, r4
   d5ca0:	f7fe fa46 	bl	d4130 <_ZNK5spark6Logger4infoEPKcz>
   d5ca4:	e00c      	b.n	d5cc0 <_ZN5MQTT57connectEPKc19MQTT5ConnectOptions+0xcc>
            close();
            return false;
        }
        
        packetsInFlight = 0;
        uint16_t index = 0;
   d5ca6:	f10d 0a38 	add.w	sl, sp, #56	; 0x38
            logger.info("Could not open TCP connection to server");
            close();
            return false;
        }
        
        packetsInFlight = 0;
   d5caa:	2300      	movs	r3, #0
        uint16_t index = 0;
   d5cac:	f82a 3d1a 	strh.w	r3, [sl, #-26]!
            logger.info("Could not open TCP connection to server");
            close();
            return false;
        }
        
        packetsInFlight = 0;
   d5cb0:	f884 3035 	strb.w	r3, [r4, #53]	; 0x35
        uint16_t index = 0;
        // 3.1.1 CONNECT Fixed Header
        if (!writeByte(&index, (uint8_t) (CTRL_CONNECT << 4))) {
   d5cb4:	2210      	movs	r2, #16
   d5cb6:	4651      	mov	r1, sl
   d5cb8:	4620      	mov	r0, r4
   d5cba:	f7ff fa91 	bl	d51e0 <_ZN5MQTT59writeByteEPth>
   d5cbe:	b918      	cbnz	r0, d5cc8 <_ZN5MQTT57connectEPKc19MQTT5ConnectOptions+0xd4>
            close();
   d5cc0:	4620      	mov	r0, r4
   d5cc2:	f7ff fde9 	bl	d5898 <_ZN5MQTT55closeEv>
            return false;
   d5cc6:	e101      	b.n	d5ecc <_ZN5MQTT57connectEPKc19MQTT5ConnectOptions+0x2d8>
        }

        // 3.1.2 CONNECT Variable Header
        if (!writeUTF8String(&index, (const char[]) {'M','Q','T','T'}, 4)) {
   d5cc8:	2304      	movs	r3, #4
   d5cca:	4a89      	ldr	r2, [pc, #548]	; (d5ef0 <_ZN5MQTT57connectEPKc19MQTT5ConnectOptions+0x2fc>)
   d5ccc:	4651      	mov	r1, sl
   d5cce:	4620      	mov	r0, r4
   d5cd0:	f7ff fa5e 	bl	d5190 <_ZN5MQTT515writeUTF8StringEPtPKct>
   d5cd4:	2800      	cmp	r0, #0
   d5cd6:	d0f3      	beq.n	d5cc0 <_ZN5MQTT57connectEPKc19MQTT5ConnectOptions+0xcc>
            close();
            return false;
        }

        // 3.1.2.2 Protocol Version
        if (!writeByte(&index, 5)) {
   d5cd8:	2205      	movs	r2, #5
   d5cda:	4651      	mov	r1, sl
   d5cdc:	4620      	mov	r0, r4
   d5cde:	f7ff fa7f 	bl	d51e0 <_ZN5MQTT59writeByteEPth>
   d5ce2:	2800      	cmp	r0, #0
   d5ce4:	d0ec      	beq.n	d5cc0 <_ZN5MQTT57connectEPKc19MQTT5ConnectOptions+0xcc>
   d5ce6:	f89d 1061 	ldrb.w	r1, [sp, #97]	; 0x61
   d5cea:	f89d 3062 	ldrb.w	r3, [sp, #98]	; 0x62
            close();
            return false;
        }
        
        // 3.1.2.3 Connect Flags
        if (!writeByte(&index, 
   d5cee:	f1b9 0f00 	cmp.w	r9, #0
   d5cf2:	ea4f 01c1 	mov.w	r1, r1, lsl #3
   d5cf6:	bf14      	ite	ne
   d5cf8:	f06f 027f 	mvnne.w	r2, #127	; 0x7f
   d5cfc:	2200      	moveq	r2, #0
   d5cfe:	ea41 1143 	orr.w	r1, r1, r3, lsl #5
   d5d02:	f1b8 0f00 	cmp.w	r8, #0
   d5d06:	bf14      	ite	ne
   d5d08:	f04f 0e40 	movne.w	lr, #64	; 0x40
   d5d0c:	f04f 0e00 	moveq.w	lr, #0
   d5d10:	b249      	sxtb	r1, r1
            ((options.username != NULL) << 7) | 
            ((options.password != NULL) << 6) | 
            (options.willRetain << 5) | 
            (((uint8_t) options.willQos) << 3) | 
            ((options.willTopic && options.willPayload) << 2) | 
   d5d12:	b127      	cbz	r7, d5d1e <_ZN5MQTT57connectEPKc19MQTT5ConnectOptions+0x12a>
   d5d14:	9b04      	ldr	r3, [sp, #16]
   d5d16:	1c18      	adds	r0, r3, #0
   d5d18:	bf18      	it	ne
   d5d1a:	2001      	movne	r0, #1
   d5d1c:	e000      	b.n	d5d20 <_ZN5MQTT57connectEPKc19MQTT5ConnectOptions+0x12c>
   d5d1e:	4638      	mov	r0, r7
            close();
            return false;
        }
        
        // 3.1.2.3 Connect Flags
        if (!writeByte(&index, 
   d5d20:	f89d 3060 	ldrb.w	r3, [sp, #96]	; 0x60
   d5d24:	ea41 0343 	orr.w	r3, r1, r3, lsl #1
   d5d28:	4313      	orrs	r3, r2
   d5d2a:	ea4e 0203 	orr.w	r2, lr, r3
   d5d2e:	ea42 0280 	orr.w	r2, r2, r0, lsl #2
   d5d32:	f002 02fe 	and.w	r2, r2, #254	; 0xfe
   d5d36:	4651      	mov	r1, sl
   d5d38:	4620      	mov	r0, r4
   d5d3a:	f7ff fa51 	bl	d51e0 <_ZN5MQTT59writeByteEPth>
   d5d3e:	2800      	cmp	r0, #0
   d5d40:	d0be      	beq.n	d5cc0 <_ZN5MQTT57connectEPKc19MQTT5ConnectOptions+0xcc>
            close();
            return false;
        }

        // 3.1.2.10 Keep Alive
        if (!writeInt(&index, keepAlive)) {
   d5d42:	8ce2      	ldrh	r2, [r4, #38]	; 0x26
   d5d44:	4651      	mov	r1, sl
   d5d46:	4620      	mov	r0, r4
   d5d48:	f7ff fad6 	bl	d52f8 <_ZN5MQTT58writeIntEPtt>
   d5d4c:	2800      	cmp	r0, #0
   d5d4e:	d0b7      	beq.n	d5cc0 <_ZN5MQTT57connectEPKc19MQTT5ConnectOptions+0xcc>
            close();
            return false;
        }

        // 3.1.2.11 CONNECT Properties
        uint16_t indexProp = index;
   d5d50:	f8bd 301e 	ldrh.w	r3, [sp, #30]
   d5d54:	f8ad 3020 	strh.w	r3, [sp, #32]
        if (options.properties) {
   d5d58:	2d00      	cmp	r5, #0
   d5d5a:	d04a      	beq.n	d5df2 <_ZN5MQTT57connectEPKc19MQTT5ConnectOptions+0x1fe>
            // 3.1.2.11.2 Session Expiry Interval
            if ((*options.properties).sessionExpiryInterval > 0) {
   d5d5c:	682b      	ldr	r3, [r5, #0]
   d5d5e:	b16b      	cbz	r3, d5d7c <_ZN5MQTT57connectEPKc19MQTT5ConnectOptions+0x188>
                if (!writeByte(&indexProp, PROP_SESSION_EXPIRY_INTERVAL)) {
   d5d60:	2211      	movs	r2, #17
   d5d62:	a908      	add	r1, sp, #32
   d5d64:	4620      	mov	r0, r4
   d5d66:	f7ff fa3b 	bl	d51e0 <_ZN5MQTT59writeByteEPth>
   d5d6a:	2800      	cmp	r0, #0
   d5d6c:	d0a8      	beq.n	d5cc0 <_ZN5MQTT57connectEPKc19MQTT5ConnectOptions+0xcc>
                    close();
                    return false;
                }
                if (!writeInt(&indexProp, (*options.properties).sessionExpiryInterval)) {
   d5d6e:	682a      	ldr	r2, [r5, #0]
   d5d70:	a908      	add	r1, sp, #32
   d5d72:	4620      	mov	r0, r4
   d5d74:	f7ff fc08 	bl	d5588 <_ZN5MQTT58writeIntEPtm>
   d5d78:	2800      	cmp	r0, #0
   d5d7a:	d0a1      	beq.n	d5cc0 <_ZN5MQTT57connectEPKc19MQTT5ConnectOptions+0xcc>
                    return false;
                }
            }

            // 3.1.2.11.3 Receive Maximum
            if ((*options.properties).receiveMaximum > 0) {
   d5d7c:	88ab      	ldrh	r3, [r5, #4]
   d5d7e:	b16b      	cbz	r3, d5d9c <_ZN5MQTT57connectEPKc19MQTT5ConnectOptions+0x1a8>
                if (!writeByte(&indexProp, PROP_RECEIVE_MAXIMUM)) {
   d5d80:	2221      	movs	r2, #33	; 0x21
   d5d82:	a908      	add	r1, sp, #32
   d5d84:	4620      	mov	r0, r4
   d5d86:	f7ff fa2b 	bl	d51e0 <_ZN5MQTT59writeByteEPth>
   d5d8a:	2800      	cmp	r0, #0
   d5d8c:	d098      	beq.n	d5cc0 <_ZN5MQTT57connectEPKc19MQTT5ConnectOptions+0xcc>
                    close();
                    return false;
                }
                if (!writeInt(&indexProp, (*options.properties).receiveMaximum)) {
   d5d8e:	88aa      	ldrh	r2, [r5, #4]
   d5d90:	a908      	add	r1, sp, #32
   d5d92:	4620      	mov	r0, r4
   d5d94:	f7ff fab0 	bl	d52f8 <_ZN5MQTT58writeIntEPtt>
   d5d98:	2800      	cmp	r0, #0
   d5d9a:	d091      	beq.n	d5cc0 <_ZN5MQTT57connectEPKc19MQTT5ConnectOptions+0xcc>
                }
            }

            // 3.1.2.11.4 Maximum Packet Size
            uint32_t usedMaxPacketSize = (uint32_t) (
                (*options.properties).maximumPacketSize > 0 ?
   d5d9c:	f8d5 b008 	ldr.w	fp, [r5, #8]
                (*options.properties).maximumPacketSize : maxPacketSize);
   d5da0:	f1bb 0f00 	cmp.w	fp, #0
   d5da4:	d104      	bne.n	d5db0 <_ZN5MQTT57connectEPKc19MQTT5ConnectOptions+0x1bc>
   d5da6:	f8b4 b02c 	ldrh.w	fp, [r4, #44]	; 0x2c
            if (usedMaxPacketSize > 0) {
   d5daa:	f1bb 0f00 	cmp.w	fp, #0
   d5dae:	d00e      	beq.n	d5dce <_ZN5MQTT57connectEPKc19MQTT5ConnectOptions+0x1da>
                if (!writeByte(&indexProp, PROP_MAXIMUM_PACKET_SIZE)) {
   d5db0:	2227      	movs	r2, #39	; 0x27
   d5db2:	a908      	add	r1, sp, #32
   d5db4:	4620      	mov	r0, r4
   d5db6:	f7ff fa13 	bl	d51e0 <_ZN5MQTT59writeByteEPth>
   d5dba:	2800      	cmp	r0, #0
   d5dbc:	d080      	beq.n	d5cc0 <_ZN5MQTT57connectEPKc19MQTT5ConnectOptions+0xcc>
                    close();
                    return false;
                }
                if (!writeInt(&indexProp, usedMaxPacketSize)) {
   d5dbe:	465a      	mov	r2, fp
   d5dc0:	a908      	add	r1, sp, #32
   d5dc2:	4620      	mov	r0, r4
   d5dc4:	f7ff fbe0 	bl	d5588 <_ZN5MQTT58writeIntEPtm>
   d5dc8:	2800      	cmp	r0, #0
   d5dca:	f43f af79 	beq.w	d5cc0 <_ZN5MQTT57connectEPKc19MQTT5ConnectOptions+0xcc>
                    return false;
                }
            }

            // 3.1.2.11.5 Topic Alias Maximum
            if ((*options.properties).topicAliasMaximum > 0) {
   d5dce:	89ab      	ldrh	r3, [r5, #12]
   d5dd0:	b17b      	cbz	r3, d5df2 <_ZN5MQTT57connectEPKc19MQTT5ConnectOptions+0x1fe>
                if (!writeByte(&indexProp, PROP_TOPIC_ALIAS_MAXIMUM)) {
   d5dd2:	2222      	movs	r2, #34	; 0x22
   d5dd4:	a908      	add	r1, sp, #32
   d5dd6:	4620      	mov	r0, r4
   d5dd8:	f7ff fa02 	bl	d51e0 <_ZN5MQTT59writeByteEPth>
   d5ddc:	2800      	cmp	r0, #0
   d5dde:	f43f af6f 	beq.w	d5cc0 <_ZN5MQTT57connectEPKc19MQTT5ConnectOptions+0xcc>
                    close();
                    return false;
                }
                if (!writeInt(&indexProp, (*options.properties).topicAliasMaximum)) {
   d5de2:	89aa      	ldrh	r2, [r5, #12]
   d5de4:	a908      	add	r1, sp, #32
   d5de6:	4620      	mov	r0, r4
   d5de8:	f7ff fa86 	bl	d52f8 <_ZN5MQTT58writeIntEPtt>
   d5dec:	2800      	cmp	r0, #0
   d5dee:	f43f af67 	beq.w	d5cc0 <_ZN5MQTT57connectEPKc19MQTT5ConnectOptions+0xcc>
                }
            }
        }

        // 3.1.2.11 CONNECT Properties length
        if (!writeVariableByteInteger(&index, indexProp - index)) {
   d5df2:	f8bd 3020 	ldrh.w	r3, [sp, #32]
   d5df6:	f8bd 201e 	ldrh.w	r2, [sp, #30]
   d5dfa:	1a9a      	subs	r2, r3, r2
   d5dfc:	b292      	uxth	r2, r2
   d5dfe:	4651      	mov	r1, sl
   d5e00:	4620      	mov	r0, r4
   d5e02:	f7ff f98f 	bl	d5124 <_ZN5MQTT524writeVariableByteIntegerEPtt>
   d5e06:	2800      	cmp	r0, #0
   d5e08:	f43f af5a 	beq.w	d5cc0 <_ZN5MQTT57connectEPKc19MQTT5ConnectOptions+0xcc>
            close();
            return false;
        }

        // 3.1.3.1 Client Identifier
        if (!writeUTF8String(&index, clientId, strlen(clientId))) {
   d5e0c:	9805      	ldr	r0, [sp, #20]
   d5e0e:	f004 fe34 	bl	daa7a <strlen>
   d5e12:	9a05      	ldr	r2, [sp, #20]
   d5e14:	b283      	uxth	r3, r0
   d5e16:	4651      	mov	r1, sl
   d5e18:	4620      	mov	r0, r4
   d5e1a:	f7ff f9b9 	bl	d5190 <_ZN5MQTT515writeUTF8StringEPtPKct>
   d5e1e:	2800      	cmp	r0, #0
   d5e20:	f43f af4e 	beq.w	d5cc0 <_ZN5MQTT57connectEPKc19MQTT5ConnectOptions+0xcc>
            close();
            return false;
        }

        if (options.willTopic && options.willPayload) {
   d5e24:	b1ff      	cbz	r7, d5e66 <_ZN5MQTT57connectEPKc19MQTT5ConnectOptions+0x272>
   d5e26:	9b04      	ldr	r3, [sp, #16]
   d5e28:	b1eb      	cbz	r3, d5e66 <_ZN5MQTT57connectEPKc19MQTT5ConnectOptions+0x272>
            // 3.1.3.2 Will Properties
            if (!writeVariableByteInteger(&index, 0)) {
   d5e2a:	2200      	movs	r2, #0
   d5e2c:	4651      	mov	r1, sl
   d5e2e:	4620      	mov	r0, r4
   d5e30:	f7ff f978 	bl	d5124 <_ZN5MQTT524writeVariableByteIntegerEPtt>
   d5e34:	2800      	cmp	r0, #0
   d5e36:	f43f af43 	beq.w	d5cc0 <_ZN5MQTT57connectEPKc19MQTT5ConnectOptions+0xcc>
                close();
                return false;
            }
            
            // 3.1.3.3 Will Topic
            if (!writeUTF8String(&index, options.willTopic, strlen(options.willTopic))) {
   d5e3a:	4638      	mov	r0, r7
   d5e3c:	f004 fe1d 	bl	daa7a <strlen>
   d5e40:	463a      	mov	r2, r7
   d5e42:	b283      	uxth	r3, r0
   d5e44:	4651      	mov	r1, sl
   d5e46:	4620      	mov	r0, r4
   d5e48:	f7ff f9a2 	bl	d5190 <_ZN5MQTT515writeUTF8StringEPtPKct>
   d5e4c:	2800      	cmp	r0, #0
   d5e4e:	f43f af37 	beq.w	d5cc0 <_ZN5MQTT57connectEPKc19MQTT5ConnectOptions+0xcc>
                close();
                return false;
            }

            // 3.1.3.4 Will Payload
            if (!writeUTF8String(&index, (const char*) options.willPayload, options.willPayloadLength)) {
   d5e52:	f8bd 3070 	ldrh.w	r3, [sp, #112]	; 0x70
   d5e56:	9a04      	ldr	r2, [sp, #16]
   d5e58:	4651      	mov	r1, sl
   d5e5a:	4620      	mov	r0, r4
   d5e5c:	f7ff f998 	bl	d5190 <_ZN5MQTT515writeUTF8StringEPtPKct>
   d5e60:	2800      	cmp	r0, #0
   d5e62:	f43f af2d 	beq.w	d5cc0 <_ZN5MQTT57connectEPKc19MQTT5ConnectOptions+0xcc>
                return false;
            }
        }

        // 3.1.3.5 User Name
        if (options.username && !writeUTF8String(&index, options.username, strlen(options.username))) {
   d5e66:	f1b9 0f00 	cmp.w	r9, #0
   d5e6a:	d00b      	beq.n	d5e84 <_ZN5MQTT57connectEPKc19MQTT5ConnectOptions+0x290>
   d5e6c:	4648      	mov	r0, r9
   d5e6e:	f004 fe04 	bl	daa7a <strlen>
   d5e72:	464a      	mov	r2, r9
   d5e74:	b283      	uxth	r3, r0
   d5e76:	4651      	mov	r1, sl
   d5e78:	4620      	mov	r0, r4
   d5e7a:	f7ff f989 	bl	d5190 <_ZN5MQTT515writeUTF8StringEPtPKct>
   d5e7e:	2800      	cmp	r0, #0
   d5e80:	f43f af1e 	beq.w	d5cc0 <_ZN5MQTT57connectEPKc19MQTT5ConnectOptions+0xcc>
            close();
            return false;
        }

        // 3.1.3.6 Password
        if (options.password && !writeUTF8String(&index, options.password, strlen(options.password))) {
   d5e84:	f1b8 0f00 	cmp.w	r8, #0
   d5e88:	d00b      	beq.n	d5ea2 <_ZN5MQTT57connectEPKc19MQTT5ConnectOptions+0x2ae>
   d5e8a:	4640      	mov	r0, r8
   d5e8c:	f004 fdf5 	bl	daa7a <strlen>
   d5e90:	4642      	mov	r2, r8
   d5e92:	b283      	uxth	r3, r0
   d5e94:	4651      	mov	r1, sl
   d5e96:	4620      	mov	r0, r4
   d5e98:	f7ff f97a 	bl	d5190 <_ZN5MQTT515writeUTF8StringEPtPKct>
   d5e9c:	2800      	cmp	r0, #0
   d5e9e:	f43f af0f 	beq.w	d5cc0 <_ZN5MQTT57connectEPKc19MQTT5ConnectOptions+0xcc>
            close();
            return false;
        }

        // 3.1.1 CONNECT Fixed Header remaining length
        uint16_t len = index - 1;
   d5ea2:	f8bd 201e 	ldrh.w	r2, [sp, #30]
   d5ea6:	3a01      	subs	r2, #1
        index = 1;
   d5ea8:	2501      	movs	r5, #1
        if (!writeVariableByteInteger(&index, len)) {
   d5eaa:	b292      	uxth	r2, r2
   d5eac:	4651      	mov	r1, sl
   d5eae:	4620      	mov	r0, r4
            return false;
        }

        // 3.1.1 CONNECT Fixed Header remaining length
        uint16_t len = index - 1;
        index = 1;
   d5eb0:	f8ad 501e 	strh.w	r5, [sp, #30]
        if (!writeVariableByteInteger(&index, len)) {
   d5eb4:	f7ff f936 	bl	d5124 <_ZN5MQTT524writeVariableByteIntegerEPtt>
   d5eb8:	2800      	cmp	r0, #0
   d5eba:	f43f af01 	beq.w	d5cc0 <_ZN5MQTT57connectEPKc19MQTT5ConnectOptions+0xcc>
            close();
            return false;
        }

        return writeToSocket(index);
   d5ebe:	462a      	mov	r2, r5
   d5ec0:	f8bd 101e 	ldrh.w	r1, [sp, #30]
   d5ec4:	4620      	mov	r0, r4
   d5ec6:	f7ff f911 	bl	d50ec <_ZN5MQTT513writeToSocketEtb>
   d5eca:	4606      	mov	r6, r0
   d5ecc:	46b2      	mov	sl, r6
   d5ece:	e003      	b.n	d5ed8 <_ZN5MQTT57connectEPKc19MQTT5ConnectOptions+0x2e4>
    } else { // Deny second connect packet as connection will be closed by the server
        logger.info("Already connected to server");
   d5ed0:	4908      	ldr	r1, [pc, #32]	; (d5ef4 <_ZN5MQTT57connectEPKc19MQTT5ConnectOptions+0x300>)
   d5ed2:	4620      	mov	r0, r4
   d5ed4:	f7fe f92c 	bl	d4130 <_ZNK5spark6Logger4infoEPKcz>
        return false;
    }
}
   d5ed8:	4650      	mov	r0, sl
   d5eda:	b00f      	add	sp, #60	; 0x3c
   d5edc:	e8bd 4ff0 	ldmia.w	sp!, {r4, r5, r6, r7, r8, r9, sl, fp, lr}
   d5ee0:	b002      	add	sp, #8
   d5ee2:	4770      	bx	lr
   d5ee4:	000db92e 	.word	0x000db92e
   d5ee8:	000db951 	.word	0x000db951
   d5eec:	000db97d 	.word	0x000db97d
   d5ef0:	000db198 	.word	0x000db198
   d5ef4:	000db9a5 	.word	0x000db9a5

000d5ef8 <_ZN5MQTT57connectEPKctS1_19MQTT5ConnectOptions>:
    hostIp = ip;
    hostDomain = NULL;
    hostPort = port;
    return connect(clientId, options);
}
bool MQTT5::connect(const char *domain, uint16_t port, const char *clientId, MQTT5ConnectOptions options) {
   d5ef8:	b5f0      	push	{r4, r5, r6, r7, lr}
   d5efa:	b087      	sub	sp, #28
   d5efc:	461f      	mov	r7, r3
    hostIp = NULL;
    hostDomain = domain;
    hostPort = port;
    return connect(clientId, options);
   d5efe:	ad0e      	add	r5, sp, #56	; 0x38
    hostDomain = NULL;
    hostPort = port;
    return connect(clientId, options);
}
bool MQTT5::connect(const char *domain, uint16_t port, const char *clientId, MQTT5ConnectOptions options) {
    hostIp = NULL;
   d5f00:	2300      	movs	r3, #0
   d5f02:	6103      	str	r3, [r0, #16]
    hostDomain = domain;
   d5f04:	60c1      	str	r1, [r0, #12]
    hostPort = port;
   d5f06:	8282      	strh	r2, [r0, #20]
    hostIp = ip;
    hostDomain = NULL;
    hostPort = port;
    return connect(clientId, options);
}
bool MQTT5::connect(const char *domain, uint16_t port, const char *clientId, MQTT5ConnectOptions options) {
   d5f08:	4606      	mov	r6, r0
    hostIp = NULL;
    hostDomain = domain;
    hostPort = port;
    return connect(clientId, options);
   d5f0a:	cd0f      	ldmia	r5!, {r0, r1, r2, r3}
   d5f0c:	466c      	mov	r4, sp
   d5f0e:	c40f      	stmia	r4!, {r0, r1, r2, r3}
   d5f10:	e895 0003 	ldmia.w	r5, {r0, r1}
   d5f14:	e884 0003 	stmia.w	r4, {r0, r1}
   d5f18:	ab0c      	add	r3, sp, #48	; 0x30
   d5f1a:	cb0c      	ldmia	r3, {r2, r3}
   d5f1c:	4639      	mov	r1, r7
   d5f1e:	4630      	mov	r0, r6
   d5f20:	f7ff fe68 	bl	d5bf4 <_ZN5MQTT57connectEPKc19MQTT5ConnectOptions>
}
   d5f24:	b007      	add	sp, #28
   d5f26:	bdf0      	pop	{r4, r5, r6, r7, pc}

000d5f28 <_ZN5MQTT510disconnectEv>:

    logger.info("Publish release for packet %d", packetId);
    return writeToSocket(index);
}

void MQTT5::disconnect() {
   d5f28:	b510      	push	{r4, lr}
   d5f2a:	4604      	mov	r4, r0
    if (connected()) {
   d5f2c:	f7fe fe1f 	bl	d4b6e <_ZN5MQTT59connectedEv>
   d5f30:	b118      	cbz	r0, d5f3a <_ZN5MQTT510disconnectEv+0x12>
        disconnectWithReason(MQTT5_REASON_CODE::NORMAL_DISCONNECTION); 
   d5f32:	2100      	movs	r1, #0
   d5f34:	4620      	mov	r0, r4
   d5f36:	f7ff f98d 	bl	d5254 <_ZN5MQTT520disconnectWithReasonE17MQTT5_REASON_CODE>
    }
    close();
   d5f3a:	4620      	mov	r0, r4
}
   d5f3c:	e8bd 4010 	ldmia.w	sp!, {r4, lr}

void MQTT5::disconnect() {
    if (connected()) {
        disconnectWithReason(MQTT5_REASON_CODE::NORMAL_DISCONNECTION); 
    }
    close();
   d5f40:	f7ff bcaa 	b.w	d5898 <_ZN5MQTT55closeEv>

000d5f44 <_ZN5MQTT515onConnectFailedEPFv17MQTT5_REASON_CODEE>:
void MQTT5::onConnectSuccess(void (*callback)(bool)) {
    callbackConnectSuccess = callback;
}

void MQTT5::onConnectFailed(void (*callback)(MQTT5_REASON_CODE)) {
    callbackConnectFailed = callback;
   d5f44:	63c1      	str	r1, [r0, #60]	; 0x3c
   d5f46:	4770      	bx	lr

000d5f48 <_ZN5MQTT515onPublishFailedEPFv17MQTT5_REASON_CODEE>:
void MQTT5::onDelivery(void (*callback)(unsigned int, bool)) {
    callbackQOS = callback;
}

void MQTT5::onPublishFailed(void (*callback)(MQTT5_REASON_CODE)) {
    callbackPublishFailed = callback;
   d5f48:	6441      	str	r1, [r0, #68]	; 0x44
   d5f4a:	4770      	bx	lr

000d5f4c <_ZN5MQTT517onSubscribeFailedEPFv17MQTT5_REASON_CODEE>:
}

void MQTT5::onSubscribeFailed(void (*callback)(MQTT5_REASON_CODE)) {
    callbackSubscribeFailed = callback;
   d5f4c:	6481      	str	r1, [r0, #72]	; 0x48
   d5f4e:	4770      	bx	lr

000d5f50 <_ZN5MQTT516onPacketReceivedEPFvPcPhtb9MQTT5_QOSbE>:
void MQTT5::onUnsubscribeFailed(void (*callback)(MQTT5_REASON_CODE)) {
    callbackUnsubscribeFailed = callback;
}

void MQTT5::onPacketReceived(void (*callback)(char*, uint8_t*, uint16_t, bool, MQTT5_QOS, bool)) {
    callbackPacketReceived = callback;
   d5f50:	6501      	str	r1, [r0, #80]	; 0x50
   d5f52:	4770      	bx	lr

000d5f54 <_ZN5MQTT5D1Ev>:
}

MQTT5::~MQTT5() {
   d5f54:	b510      	push	{r4, lr}
   d5f56:	4604      	mov	r4, r0
    if (connected()) {
   d5f58:	f7fe fe09 	bl	d4b6e <_ZN5MQTT59connectedEv>
   d5f5c:	b128      	cbz	r0, d5f6a <_ZN5MQTT5D1Ev+0x16>
        disconnect();
   d5f5e:	4620      	mov	r0, r4
   d5f60:	f7ff ffe2 	bl	d5f28 <_ZN5MQTT510disconnectEv>
        free(buffer);
   d5f64:	68a0      	ldr	r0, [r4, #8]
   d5f66:	f000 fa71 	bl	d644c <free>
    }
   d5f6a:	4620      	mov	r0, r4
   d5f6c:	bd10      	pop	{r4, pc}

000d5f6e <_GLOBAL__sub_I__ZN5MQTT5C2Et>:
   d5f6e:	f000 b811 	b.w	d5f94 <HAL_Pin_Map>
	...

000d5f74 <netdb_freeaddrinfo>:

DYNALIB_BEGIN(hal_netdb)

DYNALIB_FN(0, hal_netdb, netdb_gethostbyname, struct hostent*(const char*))
DYNALIB_FN(1, hal_netdb, netdb_gethostbyname_r, int(const char*, struct hostent*, char*, size_t, struct hostent**, int*))
DYNALIB_FN(2, hal_netdb, netdb_freeaddrinfo, void(struct addrinfo*))
   d5f74:	b508      	push	{r3, lr}
   d5f76:	4b02      	ldr	r3, [pc, #8]	; (d5f80 <netdb_freeaddrinfo+0xc>)
   d5f78:	681b      	ldr	r3, [r3, #0]
   d5f7a:	689b      	ldr	r3, [r3, #8]
   d5f7c:	9301      	str	r3, [sp, #4]
   d5f7e:	bd08      	pop	{r3, pc}
   d5f80:	00030268 	.word	0x00030268

000d5f84 <netdb_getaddrinfo>:
DYNALIB_FN(3, hal_netdb, netdb_getaddrinfo, int(const char*, const char*, const struct addrinfo*, struct addrinfo**))
   d5f84:	b508      	push	{r3, lr}
   d5f86:	4b02      	ldr	r3, [pc, #8]	; (d5f90 <netdb_getaddrinfo+0xc>)
   d5f88:	681b      	ldr	r3, [r3, #0]
   d5f8a:	68db      	ldr	r3, [r3, #12]
   d5f8c:	9301      	str	r3, [sp, #4]
   d5f8e:	bd08      	pop	{r3, pc}
   d5f90:	00030268 	.word	0x00030268

000d5f94 <HAL_Pin_Map>:
// New HAL functions must be added to the end of this list.
// GNINRAW

DYNALIB_BEGIN(hal_gpio)

DYNALIB_FN(0, hal_gpio, HAL_Pin_Map, Hal_Pin_Info*(void))
   d5f94:	b508      	push	{r3, lr}
   d5f96:	4b02      	ldr	r3, [pc, #8]	; (d5fa0 <HAL_Pin_Map+0xc>)
   d5f98:	681b      	ldr	r3, [r3, #0]
   d5f9a:	681b      	ldr	r3, [r3, #0]
   d5f9c:	9301      	str	r3, [sp, #4]
   d5f9e:	bd08      	pop	{r3, pc}
   d5fa0:	0003022c 	.word	0x0003022c

000d5fa4 <if_index_to_name>:
DYNALIB_FN(0, hal_ifapi, if_get_list, int(struct if_list**))
DYNALIB_FN(1, hal_ifapi, if_free_list, int(struct if_list*))
DYNALIB_FN(2, hal_ifapi, if_get_name_index, int(struct if_nameindex**))
DYNALIB_FN(3, hal_ifapi, if_free_name_index, int(struct if_nameindex*))
DYNALIB_FN(4, hal_ifapi, if_name_to_index, int(const char*, uint8_t*))
DYNALIB_FN(5, hal_ifapi, if_index_to_name, int(uint8_t, char*))
   d5fa4:	b508      	push	{r3, lr}
   d5fa6:	4b02      	ldr	r3, [pc, #8]	; (d5fb0 <if_index_to_name+0xc>)
   d5fa8:	681b      	ldr	r3, [r3, #0]
   d5faa:	695b      	ldr	r3, [r3, #20]
   d5fac:	9301      	str	r3, [sp, #4]
   d5fae:	bd08      	pop	{r3, pc}
   d5fb0:	0003026c 	.word	0x0003026c

000d5fb4 <HAL_RNG_GetRandomNumber>:

DYNALIB_BEGIN(hal)

#if PLATFORM_ID > 3
DYNALIB_FN(0, hal, HAL_RNG_Configuration, void(void))
DYNALIB_FN(1, hal, HAL_RNG_GetRandomNumber, uint32_t(void))
   d5fb4:	b508      	push	{r3, lr}
   d5fb6:	4b02      	ldr	r3, [pc, #8]	; (d5fc0 <HAL_RNG_GetRandomNumber+0xc>)
   d5fb8:	681b      	ldr	r3, [r3, #0]
   d5fba:	685b      	ldr	r3, [r3, #4]
   d5fbc:	9301      	str	r3, [sp, #4]
   d5fbe:	bd08      	pop	{r3, pc}
   d5fc0:	00030218 	.word	0x00030218

000d5fc4 <HAL_Delay_Microseconds>:
#else
#define BASE_IDX 0
#endif

DYNALIB_FN(BASE_IDX + 0, hal, HAL_Delay_Milliseconds, void(uint32_t))
DYNALIB_FN(BASE_IDX + 1, hal, HAL_Delay_Microseconds, void(uint32_t))
   d5fc4:	b508      	push	{r3, lr}
   d5fc6:	4b02      	ldr	r3, [pc, #8]	; (d5fd0 <HAL_Delay_Microseconds+0xc>)
   d5fc8:	681b      	ldr	r3, [r3, #0]
   d5fca:	68db      	ldr	r3, [r3, #12]
   d5fcc:	9301      	str	r3, [sp, #4]
   d5fce:	bd08      	pop	{r3, pc}
   d5fd0:	00030218 	.word	0x00030218

000d5fd4 <HAL_Timer_Get_Milli_Seconds>:
DYNALIB_FN(BASE_IDX + 2, hal, HAL_Timer_Get_Micro_Seconds, system_tick_t(void))
DYNALIB_FN(BASE_IDX + 3, hal, HAL_Timer_Get_Milli_Seconds, system_tick_t(void))
   d5fd4:	b508      	push	{r3, lr}
   d5fd6:	4b02      	ldr	r3, [pc, #8]	; (d5fe0 <HAL_Timer_Get_Milli_Seconds+0xc>)
   d5fd8:	681b      	ldr	r3, [r3, #0]
   d5fda:	695b      	ldr	r3, [r3, #20]
   d5fdc:	9301      	str	r3, [sp, #4]
   d5fde:	bd08      	pop	{r3, pc}
   d5fe0:	00030218 	.word	0x00030218

000d5fe4 <hal_ble_stack_init>:

DYNALIB_BEGIN(hal_ble)

DYNALIB_FN(0, hal_ble, hal_ble_lock, int(void*))
DYNALIB_FN(1, hal_ble, hal_ble_unlock, int(void*))
DYNALIB_FN(2, hal_ble, hal_ble_stack_init, int(void*))
   d5fe4:	b508      	push	{r3, lr}
   d5fe6:	4b02      	ldr	r3, [pc, #8]	; (d5ff0 <hal_ble_stack_init+0xc>)
   d5fe8:	681b      	ldr	r3, [r3, #0]
   d5fea:	689b      	ldr	r3, [r3, #8]
   d5fec:	9301      	str	r3, [sp, #4]
   d5fee:	bd08      	pop	{r3, pc}
   d5ff0:	00030278 	.word	0x00030278

000d5ff4 <hal_ble_gap_start_scan>:
DYNALIB_FN(26, hal_ble, hal_ble_gap_get_auto_advertise, int(hal_ble_auto_adv_cfg_t*, void*))
DYNALIB_FN(27, hal_ble, hal_ble_gap_stop_advertising, int(void*))
DYNALIB_FN(28, hal_ble, hal_ble_gap_is_advertising, bool(void*))
DYNALIB_FN(29, hal_ble, hal_ble_gap_set_scan_parameters, int(const hal_ble_scan_params_t*, void*))
DYNALIB_FN(30, hal_ble, hal_ble_gap_get_scan_parameters, int(hal_ble_scan_params_t*, void*))
DYNALIB_FN(31, hal_ble, hal_ble_gap_start_scan, int(hal_ble_on_scan_result_cb_t, void*, void*))
   d5ff4:	b508      	push	{r3, lr}
   d5ff6:	4b02      	ldr	r3, [pc, #8]	; (d6000 <hal_ble_gap_start_scan+0xc>)
   d5ff8:	681b      	ldr	r3, [r3, #0]
   d5ffa:	6fdb      	ldr	r3, [r3, #124]	; 0x7c
   d5ffc:	9301      	str	r3, [sp, #4]
   d5ffe:	bd08      	pop	{r3, pc}
   d6000:	00030278 	.word	0x00030278

000d6004 <hal_ble_gap_stop_scan>:
DYNALIB_FN(32, hal_ble, hal_ble_gap_is_scanning, bool(void*))
DYNALIB_FN(33, hal_ble, hal_ble_gap_stop_scan, int(void*))
   d6004:	b508      	push	{r3, lr}
   d6006:	4b03      	ldr	r3, [pc, #12]	; (d6014 <hal_ble_gap_stop_scan+0x10>)
   d6008:	681b      	ldr	r3, [r3, #0]
   d600a:	f8d3 3084 	ldr.w	r3, [r3, #132]	; 0x84
   d600e:	9301      	str	r3, [sp, #4]
   d6010:	bd08      	pop	{r3, pc}
   d6012:	0000      	.short	0x0000
   d6014:	00030278 	.word	0x00030278

000d6018 <hal_ble_gap_disconnect>:
DYNALIB_FN(34, hal_ble, hal_ble_gap_connect_deprecated, int(const hal_ble_addr_t*, void*))
DYNALIB_FN(35, hal_ble, hal_ble_gap_is_connecting, bool(const hal_ble_addr_t*, void*))
DYNALIB_FN(36, hal_ble, hal_ble_gap_is_connected, bool(const hal_ble_addr_t*, void*))
DYNALIB_FN(37, hal_ble, hal_ble_gap_connect_cancel, int(const hal_ble_addr_t*, void*))
DYNALIB_FN(38, hal_ble, hal_ble_gap_disconnect, int(hal_ble_conn_handle_t, void*))
   d6018:	b508      	push	{r3, lr}
   d601a:	4b03      	ldr	r3, [pc, #12]	; (d6028 <hal_ble_gap_disconnect+0x10>)
   d601c:	681b      	ldr	r3, [r3, #0]
   d601e:	f8d3 3098 	ldr.w	r3, [r3, #152]	; 0x98
   d6022:	9301      	str	r3, [sp, #4]
   d6024:	bd08      	pop	{r3, pc}
   d6026:	0000      	.short	0x0000
   d6028:	00030278 	.word	0x00030278

000d602c <hal_ble_gatt_client_discover_all_services>:
DYNALIB_FN(42, hal_ble, hal_ble_gatt_server_add_service, int(uint8_t, const hal_ble_uuid_t*, hal_ble_attr_handle_t*, void*))
DYNALIB_FN(43, hal_ble, hal_ble_gatt_server_add_characteristic_deprecated, int(const hal_ble_char_init_deprecated_t*, hal_ble_char_handles_t*, void*))
DYNALIB_FN(44, hal_ble, hal_ble_gatt_server_add_descriptor, int(const hal_ble_desc_init_t*, hal_ble_attr_handle_t*, void*))
DYNALIB_FN(45, hal_ble, hal_ble_gatt_server_set_characteristic_value, ssize_t(hal_ble_attr_handle_t, const uint8_t*, size_t, void*))
DYNALIB_FN(46, hal_ble, hal_ble_gatt_server_get_characteristic_value, ssize_t(hal_ble_attr_handle_t, uint8_t*, size_t, void*))
DYNALIB_FN(47, hal_ble, hal_ble_gatt_client_discover_all_services, int(hal_ble_conn_handle_t, hal_ble_on_disc_service_cb_t, void*, void*))
   d602c:	b508      	push	{r3, lr}
   d602e:	4b03      	ldr	r3, [pc, #12]	; (d603c <hal_ble_gatt_client_discover_all_services+0x10>)
   d6030:	681b      	ldr	r3, [r3, #0]
   d6032:	f8d3 30bc 	ldr.w	r3, [r3, #188]	; 0xbc
   d6036:	9301      	str	r3, [sp, #4]
   d6038:	bd08      	pop	{r3, pc}
   d603a:	0000      	.short	0x0000
   d603c:	00030278 	.word	0x00030278

000d6040 <hal_ble_gatt_client_discover_characteristics>:
DYNALIB_FN(48, hal_ble, hal_ble_gatt_client_discover_service_by_uuid, int(hal_ble_conn_handle_t, const hal_ble_uuid_t*, hal_ble_on_disc_service_cb_t, void*, void*))
DYNALIB_FN(49, hal_ble, hal_ble_gatt_client_discover_characteristics, int(hal_ble_conn_handle_t, const hal_ble_svc_t*, hal_ble_on_disc_char_cb_t, void*, void*))
   d6040:	b508      	push	{r3, lr}
   d6042:	4b03      	ldr	r3, [pc, #12]	; (d6050 <hal_ble_gatt_client_discover_characteristics+0x10>)
   d6044:	681b      	ldr	r3, [r3, #0]
   d6046:	f8d3 30c4 	ldr.w	r3, [r3, #196]	; 0xc4
   d604a:	9301      	str	r3, [sp, #4]
   d604c:	bd08      	pop	{r3, pc}
   d604e:	0000      	.short	0x0000
   d6050:	00030278 	.word	0x00030278

000d6054 <hal_ble_gatt_client_read>:
DYNALIB_FN(51, hal_ble, hal_ble_gatt_client_is_discovering, bool(hal_ble_conn_handle_t, void*))
DYNALIB_FN(52, hal_ble, hal_ble_gatt_set_att_mtu, int(size_t, void*))
DYNALIB_FN(53, hal_ble, hal_ble_gatt_client_configure_cccd_deprecated, int(hal_ble_conn_handle_t, hal_ble_attr_handle_t, ble_sig_cccd_value_t, void*))
DYNALIB_FN(54, hal_ble, hal_ble_gatt_client_write_with_response, ssize_t(hal_ble_conn_handle_t, hal_ble_attr_handle_t, const uint8_t*, size_t, void*))
DYNALIB_FN(55, hal_ble, hal_ble_gatt_client_write_without_response, ssize_t(hal_ble_conn_handle_t, hal_ble_attr_handle_t, const uint8_t*, size_t, void*))
DYNALIB_FN(56, hal_ble, hal_ble_gatt_client_read, ssize_t(hal_ble_conn_handle_t, hal_ble_attr_handle_t, uint8_t*, size_t, void*))
   d6054:	b508      	push	{r3, lr}
   d6056:	4b03      	ldr	r3, [pc, #12]	; (d6064 <hal_ble_gatt_client_read+0x10>)
   d6058:	681b      	ldr	r3, [r3, #0]
   d605a:	f8d3 30e0 	ldr.w	r3, [r3, #224]	; 0xe0
   d605e:	9301      	str	r3, [sp, #4]
   d6060:	bd08      	pop	{r3, pc}
   d6062:	0000      	.short	0x0000
   d6064:	00030278 	.word	0x00030278

000d6068 <hal_ble_gap_connect>:

DYNALIB_FN(57, hal_ble, hal_ble_gap_connect, int(const hal_ble_conn_cfg_t*, hal_ble_conn_handle_t*, void*))
   d6068:	b508      	push	{r3, lr}
   d606a:	4b03      	ldr	r3, [pc, #12]	; (d6078 <hal_ble_gap_connect+0x10>)
   d606c:	681b      	ldr	r3, [r3, #0]
   d606e:	f8d3 30e4 	ldr.w	r3, [r3, #228]	; 0xe4
   d6072:	9301      	str	r3, [sp, #4]
   d6074:	bd08      	pop	{r3, pc}
   d6076:	0000      	.short	0x0000
   d6078:	00030278 	.word	0x00030278

000d607c <hal_ble_set_callback_on_periph_link_events>:
DYNALIB_FN(58, hal_ble, hal_ble_gap_get_connection_info, int(hal_ble_conn_handle_t, hal_ble_conn_info_t*, void*))
DYNALIB_FN(59, hal_ble, hal_ble_gatt_server_add_characteristic, int(const hal_ble_char_init_t*, hal_ble_char_handles_t*, void*))
DYNALIB_FN(60, hal_ble, hal_ble_set_callback_on_periph_link_events, int(hal_ble_on_link_evt_cb_t, void*, void*))
   d607c:	b508      	push	{r3, lr}
   d607e:	4b03      	ldr	r3, [pc, #12]	; (d608c <hal_ble_set_callback_on_periph_link_events+0x10>)
   d6080:	681b      	ldr	r3, [r3, #0]
   d6082:	f8d3 30f0 	ldr.w	r3, [r3, #240]	; 0xf0
   d6086:	9301      	str	r3, [sp, #4]
   d6088:	bd08      	pop	{r3, pc}
   d608a:	0000      	.short	0x0000
   d608c:	00030278 	.word	0x00030278

000d6090 <hal_ble_gatt_client_configure_cccd>:
DYNALIB_FN(61, hal_ble, hal_ble_gatt_client_configure_cccd, int(const hal_ble_cccd_config_t*, void*))
   d6090:	b508      	push	{r3, lr}
   d6092:	4b03      	ldr	r3, [pc, #12]	; (d60a0 <hal_ble_gatt_client_configure_cccd+0x10>)
   d6094:	681b      	ldr	r3, [r3, #0]
   d6096:	f8d3 30f4 	ldr.w	r3, [r3, #244]	; 0xf4
   d609a:	9301      	str	r3, [sp, #4]
   d609c:	bd08      	pop	{r3, pc}
   d609e:	0000      	.short	0x0000
   d60a0:	00030278 	.word	0x00030278

000d60a4 <os_thread_is_current>:
DYNALIB_BEGIN(hal_concurrent)

#if PLATFORM_THREADING
DYNALIB_FN(0, hal_concurrent, __gthread_equal, bool(__gthread_t, __gthread_t))
DYNALIB_FN(1, hal_concurrent, os_thread_create, os_result_t(os_thread_t*, const char*, os_thread_prio_t, os_thread_fn_t, void*, size_t))
DYNALIB_FN(2, hal_concurrent, os_thread_is_current, bool(os_thread_t))
   d60a4:	b508      	push	{r3, lr}
   d60a6:	4b02      	ldr	r3, [pc, #8]	; (d60b0 <os_thread_is_current+0xc>)
   d60a8:	681b      	ldr	r3, [r3, #0]
   d60aa:	689b      	ldr	r3, [r3, #8]
   d60ac:	9301      	str	r3, [sp, #4]
   d60ae:	bd08      	pop	{r3, pc}
   d60b0:	00030248 	.word	0x00030248

000d60b4 <os_thread_join>:
DYNALIB_FN(3, hal_concurrent, os_thread_yield, os_result_t(void))
DYNALIB_FN(4, hal_concurrent, os_thread_join, os_result_t(os_thread_t))
   d60b4:	b508      	push	{r3, lr}
   d60b6:	4b02      	ldr	r3, [pc, #8]	; (d60c0 <os_thread_join+0xc>)
   d60b8:	681b      	ldr	r3, [r3, #0]
   d60ba:	691b      	ldr	r3, [r3, #16]
   d60bc:	9301      	str	r3, [sp, #4]
   d60be:	bd08      	pop	{r3, pc}
   d60c0:	00030248 	.word	0x00030248

000d60c4 <os_thread_cleanup>:
DYNALIB_FN(5, hal_concurrent, os_thread_cleanup, os_result_t(os_thread_t))
   d60c4:	b508      	push	{r3, lr}
   d60c6:	4b02      	ldr	r3, [pc, #8]	; (d60d0 <os_thread_cleanup+0xc>)
   d60c8:	681b      	ldr	r3, [r3, #0]
   d60ca:	695b      	ldr	r3, [r3, #20]
   d60cc:	9301      	str	r3, [sp, #4]
   d60ce:	bd08      	pop	{r3, pc}
   d60d0:	00030248 	.word	0x00030248

000d60d4 <os_mutex_recursive_create>:
DYNALIB_FN(13, hal_concurrent, os_mutex_destroy, int(os_mutex_t))
DYNALIB_FN(14, hal_concurrent, os_mutex_lock, int(os_mutex_t))
DYNALIB_FN(15, hal_concurrent, os_mutex_trylock, int(os_mutex_t))
DYNALIB_FN(16, hal_concurrent, os_mutex_unlock, int(os_mutex_t))

DYNALIB_FN(17, hal_concurrent, os_mutex_recursive_create, int(os_mutex_recursive_t*))
   d60d4:	b508      	push	{r3, lr}
   d60d6:	4b02      	ldr	r3, [pc, #8]	; (d60e0 <os_mutex_recursive_create+0xc>)
   d60d8:	681b      	ldr	r3, [r3, #0]
   d60da:	6c5b      	ldr	r3, [r3, #68]	; 0x44
   d60dc:	9301      	str	r3, [sp, #4]
   d60de:	bd08      	pop	{r3, pc}
   d60e0:	00030248 	.word	0x00030248

000d60e4 <os_mutex_recursive_destroy>:
DYNALIB_FN(18, hal_concurrent, os_mutex_recursive_destroy, int(os_mutex_recursive_t))
   d60e4:	b508      	push	{r3, lr}
   d60e6:	4b02      	ldr	r3, [pc, #8]	; (d60f0 <os_mutex_recursive_destroy+0xc>)
   d60e8:	681b      	ldr	r3, [r3, #0]
   d60ea:	6c9b      	ldr	r3, [r3, #72]	; 0x48
   d60ec:	9301      	str	r3, [sp, #4]
   d60ee:	bd08      	pop	{r3, pc}
   d60f0:	00030248 	.word	0x00030248

000d60f4 <os_mutex_recursive_lock>:
DYNALIB_FN(19, hal_concurrent, os_mutex_recursive_lock, int(os_mutex_recursive_t))
   d60f4:	b508      	push	{r3, lr}
   d60f6:	4b02      	ldr	r3, [pc, #8]	; (d6100 <os_mutex_recursive_lock+0xc>)
   d60f8:	681b      	ldr	r3, [r3, #0]
   d60fa:	6cdb      	ldr	r3, [r3, #76]	; 0x4c
   d60fc:	9301      	str	r3, [sp, #4]
   d60fe:	bd08      	pop	{r3, pc}
   d6100:	00030248 	.word	0x00030248

000d6104 <os_mutex_recursive_unlock>:
DYNALIB_FN(20, hal_concurrent, os_mutex_recursive_trylock, int(os_mutex_recursive_t))
DYNALIB_FN(21, hal_concurrent, os_mutex_recursive_unlock, int(os_mutex_recursive_t))
   d6104:	b508      	push	{r3, lr}
   d6106:	4b02      	ldr	r3, [pc, #8]	; (d6110 <os_mutex_recursive_unlock+0xc>)
   d6108:	681b      	ldr	r3, [r3, #0]
   d610a:	6d5b      	ldr	r3, [r3, #84]	; 0x54
   d610c:	9301      	str	r3, [sp, #4]
   d610e:	bd08      	pop	{r3, pc}
   d6110:	00030248 	.word	0x00030248

000d6114 <inet_inet_ntop>:
DYNALIB_FN(0, hal_inet, inet_inet_addr, in_addr_t(const char*))
DYNALIB_FN(1, hal_inet, inet_inet_aton, int(const char*, struct in_addr*))
DYNALIB_FN(2, hal_inet, inet_inet_network, in_addr_t(const char*))
DYNALIB_FN(3, hal_inet, inet_inet_ntoa, char*(struct in_addr))
DYNALIB_FN(4, hal_inet, inet_inet_ntoa_r, char*(struct in_addr, char*, socklen_t))
DYNALIB_FN(5, hal_inet, inet_inet_ntop, const char*(int, const void*, char*, socklen_t))
   d6114:	b508      	push	{r3, lr}
   d6116:	4b02      	ldr	r3, [pc, #8]	; (d6120 <inet_inet_ntop+0xc>)
   d6118:	681b      	ldr	r3, [r3, #0]
   d611a:	695b      	ldr	r3, [r3, #20]
   d611c:	9301      	str	r3, [sp, #4]
   d611e:	bd08      	pop	{r3, pc}
   d6120:	00030264 	.word	0x00030264

000d6124 <inet_htonl>:
DYNALIB_FN(6, hal_inet, inet_inet_pton, int(int, const char*, void*))
DYNALIB_FN(7, hal_inet, inet_ntohl, uint32_t(uint32_t))
DYNALIB_FN(8, hal_inet, inet_htonl, uint32_t(uint32_t))
   d6124:	b508      	push	{r3, lr}
   d6126:	4b02      	ldr	r3, [pc, #8]	; (d6130 <inet_htonl+0xc>)
   d6128:	681b      	ldr	r3, [r3, #0]
   d612a:	6a1b      	ldr	r3, [r3, #32]
   d612c:	9301      	str	r3, [sp, #4]
   d612e:	bd08      	pop	{r3, pc}
   d6130:	00030264 	.word	0x00030264

000d6134 <inet_htons>:
DYNALIB_FN(9, hal_inet, inet_ntohs, uint16_t(uint16_t))
DYNALIB_FN(10, hal_inet, inet_htons, uint16_t(uint16_t))
   d6134:	b508      	push	{r3, lr}
   d6136:	4b02      	ldr	r3, [pc, #8]	; (d6140 <inet_htons+0xc>)
   d6138:	681b      	ldr	r3, [r3, #0]
   d613a:	6a9b      	ldr	r3, [r3, #40]	; 0x28
   d613c:	9301      	str	r3, [sp, #4]
   d613e:	bd08      	pop	{r3, pc}
   d6140:	00030264 	.word	0x00030264

000d6144 <HAL_USART_Init>:
#define BASE_IDX 6 // Base index for all subsequent functions
#else
#define BASE_IDX 0
#endif

DYNALIB_FN(BASE_IDX + 0, hal_usart, HAL_USART_Init, void(HAL_USART_Serial, Ring_Buffer*, Ring_Buffer*))
   d6144:	b508      	push	{r3, lr}
   d6146:	4b02      	ldr	r3, [pc, #8]	; (d6150 <HAL_USART_Init+0xc>)
   d6148:	681b      	ldr	r3, [r3, #0]
   d614a:	681b      	ldr	r3, [r3, #0]
   d614c:	9301      	str	r3, [sp, #4]
   d614e:	bd08      	pop	{r3, pc}
   d6150:	0003023c 	.word	0x0003023c

000d6154 <HAL_USART_End>:
DYNALIB_FN(BASE_IDX + 1, hal_usart, HAL_USART_Begin, void(HAL_USART_Serial, uint32_t))
DYNALIB_FN(BASE_IDX + 2, hal_usart, HAL_USART_End, void(HAL_USART_Serial))
   d6154:	b508      	push	{r3, lr}
   d6156:	4b02      	ldr	r3, [pc, #8]	; (d6160 <HAL_USART_End+0xc>)
   d6158:	681b      	ldr	r3, [r3, #0]
   d615a:	689b      	ldr	r3, [r3, #8]
   d615c:	9301      	str	r3, [sp, #4]
   d615e:	bd08      	pop	{r3, pc}
   d6160:	0003023c 	.word	0x0003023c

000d6164 <HAL_USART_Write_Data>:
DYNALIB_FN(BASE_IDX + 3, hal_usart, HAL_USART_Write_Data, uint32_t(HAL_USART_Serial, uint8_t))
   d6164:	b508      	push	{r3, lr}
   d6166:	4b02      	ldr	r3, [pc, #8]	; (d6170 <HAL_USART_Write_Data+0xc>)
   d6168:	681b      	ldr	r3, [r3, #0]
   d616a:	68db      	ldr	r3, [r3, #12]
   d616c:	9301      	str	r3, [sp, #4]
   d616e:	bd08      	pop	{r3, pc}
   d6170:	0003023c 	.word	0x0003023c

000d6174 <HAL_USART_Available_Data>:
DYNALIB_FN(BASE_IDX + 4, hal_usart, HAL_USART_Available_Data, int32_t(HAL_USART_Serial))
   d6174:	b508      	push	{r3, lr}
   d6176:	4b02      	ldr	r3, [pc, #8]	; (d6180 <HAL_USART_Available_Data+0xc>)
   d6178:	681b      	ldr	r3, [r3, #0]
   d617a:	691b      	ldr	r3, [r3, #16]
   d617c:	9301      	str	r3, [sp, #4]
   d617e:	bd08      	pop	{r3, pc}
   d6180:	0003023c 	.word	0x0003023c

000d6184 <HAL_USART_Read_Data>:
DYNALIB_FN(BASE_IDX + 5, hal_usart, HAL_USART_Read_Data, int32_t(HAL_USART_Serial))
   d6184:	b508      	push	{r3, lr}
   d6186:	4b02      	ldr	r3, [pc, #8]	; (d6190 <HAL_USART_Read_Data+0xc>)
   d6188:	681b      	ldr	r3, [r3, #0]
   d618a:	695b      	ldr	r3, [r3, #20]
   d618c:	9301      	str	r3, [sp, #4]
   d618e:	bd08      	pop	{r3, pc}
   d6190:	0003023c 	.word	0x0003023c

000d6194 <HAL_USART_Peek_Data>:
DYNALIB_FN(BASE_IDX + 6, hal_usart, HAL_USART_Peek_Data, int32_t(HAL_USART_Serial))
   d6194:	b508      	push	{r3, lr}
   d6196:	4b02      	ldr	r3, [pc, #8]	; (d61a0 <HAL_USART_Peek_Data+0xc>)
   d6198:	681b      	ldr	r3, [r3, #0]
   d619a:	699b      	ldr	r3, [r3, #24]
   d619c:	9301      	str	r3, [sp, #4]
   d619e:	bd08      	pop	{r3, pc}
   d61a0:	0003023c 	.word	0x0003023c

000d61a4 <HAL_USART_Flush_Data>:
DYNALIB_FN(BASE_IDX + 7, hal_usart, HAL_USART_Flush_Data, void(HAL_USART_Serial))
   d61a4:	b508      	push	{r3, lr}
   d61a6:	4b02      	ldr	r3, [pc, #8]	; (d61b0 <HAL_USART_Flush_Data+0xc>)
   d61a8:	681b      	ldr	r3, [r3, #0]
   d61aa:	69db      	ldr	r3, [r3, #28]
   d61ac:	9301      	str	r3, [sp, #4]
   d61ae:	bd08      	pop	{r3, pc}
   d61b0:	0003023c 	.word	0x0003023c

000d61b4 <HAL_USART_Available_Data_For_Write>:
DYNALIB_FN(BASE_IDX + 8, hal_usart, HAL_USART_Is_Enabled, bool(HAL_USART_Serial))
DYNALIB_FN(BASE_IDX + 9, hal_usart, HAL_USART_Half_Duplex, void(HAL_USART_Serial, bool))
DYNALIB_FN(BASE_IDX + 10, hal_usart, HAL_USART_Available_Data_For_Write, int32_t(HAL_USART_Serial))
   d61b4:	b508      	push	{r3, lr}
   d61b6:	4b02      	ldr	r3, [pc, #8]	; (d61c0 <HAL_USART_Available_Data_For_Write+0xc>)
   d61b8:	681b      	ldr	r3, [r3, #0]
   d61ba:	6a9b      	ldr	r3, [r3, #40]	; 0x28
   d61bc:	9301      	str	r3, [sp, #4]
   d61be:	bd08      	pop	{r3, pc}
   d61c0:	0003023c 	.word	0x0003023c

000d61c4 <HAL_USART_BeginConfig>:
#define BASE_IDX2 (BASE_IDX+13)
#else
#define BASE_IDX2 (BASE_IDX+11)
#endif

DYNALIB_FN(BASE_IDX2 + 0, hal_usart, HAL_USART_BeginConfig, void(HAL_USART_Serial serial, uint32_t baud, uint32_t config, void *ptr))
   d61c4:	b508      	push	{r3, lr}
   d61c6:	4b02      	ldr	r3, [pc, #8]	; (d61d0 <HAL_USART_BeginConfig+0xc>)
   d61c8:	681b      	ldr	r3, [r3, #0]
   d61ca:	6adb      	ldr	r3, [r3, #44]	; 0x2c
   d61cc:	9301      	str	r3, [sp, #4]
   d61ce:	bd08      	pop	{r3, pc}
   d61d0:	0003023c 	.word	0x0003023c

000d61d4 <sock_setsockopt>:
DYNALIB_FN(1, hal_socket, sock_bind, int(int, const struct sockaddr*, socklen_t))
DYNALIB_FN(2, hal_socket, sock_shutdown, int(int, int))
DYNALIB_FN(3, hal_socket, sock_getpeername, int(int, struct sockaddr*, socklen_t*))
DYNALIB_FN(4, hal_socket, sock_getsockname, int(int, struct sockaddr*, socklen_t*))
DYNALIB_FN(5, hal_socket, sock_getsockopt, int(int, int, int, void*, socklen_t*))
DYNALIB_FN(6, hal_socket, sock_setsockopt, int(int, int, int, const void*, socklen_t))
   d61d4:	b508      	push	{r3, lr}
   d61d6:	4b02      	ldr	r3, [pc, #8]	; (d61e0 <sock_setsockopt+0xc>)
   d61d8:	681b      	ldr	r3, [r3, #0]
   d61da:	699b      	ldr	r3, [r3, #24]
   d61dc:	9301      	str	r3, [sp, #4]
   d61de:	bd08      	pop	{r3, pc}
   d61e0:	00030238 	.word	0x00030238

000d61e4 <sock_close>:
DYNALIB_FN(7, hal_socket, sock_close, int(int))
   d61e4:	b508      	push	{r3, lr}
   d61e6:	4b02      	ldr	r3, [pc, #8]	; (d61f0 <sock_close+0xc>)
   d61e8:	681b      	ldr	r3, [r3, #0]
   d61ea:	69db      	ldr	r3, [r3, #28]
   d61ec:	9301      	str	r3, [sp, #4]
   d61ee:	bd08      	pop	{r3, pc}
   d61f0:	00030238 	.word	0x00030238

000d61f4 <sock_connect>:
DYNALIB_FN(8, hal_socket, sock_connect, int(int, const struct sockaddr*, socklen_t))
   d61f4:	b508      	push	{r3, lr}
   d61f6:	4b02      	ldr	r3, [pc, #8]	; (d6200 <sock_connect+0xc>)
   d61f8:	681b      	ldr	r3, [r3, #0]
   d61fa:	6a1b      	ldr	r3, [r3, #32]
   d61fc:	9301      	str	r3, [sp, #4]
   d61fe:	bd08      	pop	{r3, pc}
   d6200:	00030238 	.word	0x00030238

000d6204 <sock_recv>:
DYNALIB_FN(9, hal_socket, sock_listen, int(int, int))
DYNALIB_FN(10, hal_socket, sock_recv, int(int, void*, size_t, int))
   d6204:	b508      	push	{r3, lr}
   d6206:	4b02      	ldr	r3, [pc, #8]	; (d6210 <sock_recv+0xc>)
   d6208:	681b      	ldr	r3, [r3, #0]
   d620a:	6a9b      	ldr	r3, [r3, #40]	; 0x28
   d620c:	9301      	str	r3, [sp, #4]
   d620e:	bd08      	pop	{r3, pc}
   d6210:	00030238 	.word	0x00030238

000d6214 <sock_send>:
DYNALIB_FN(11, hal_socket, sock_recvfrom, int(int, void*, size_t, int, struct sockaddr*, socklen_t*))
DYNALIB_FN(12, hal_socket, sock_send, int(int, const void*, size_t, int))
   d6214:	b508      	push	{r3, lr}
   d6216:	4b02      	ldr	r3, [pc, #8]	; (d6220 <sock_send+0xc>)
   d6218:	681b      	ldr	r3, [r3, #0]
   d621a:	6b1b      	ldr	r3, [r3, #48]	; 0x30
   d621c:	9301      	str	r3, [sp, #4]
   d621e:	bd08      	pop	{r3, pc}
   d6220:	00030238 	.word	0x00030238

000d6224 <sock_socket>:
DYNALIB_FN(13, hal_socket, sock_sendto, int(int, const void*, size_t, int, const struct sockaddr*, socklen_t))
DYNALIB_FN(14, hal_socket, sock_socket, int(int, int, int))
   d6224:	b508      	push	{r3, lr}
   d6226:	4b02      	ldr	r3, [pc, #8]	; (d6230 <sock_socket+0xc>)
   d6228:	681b      	ldr	r3, [r3, #0]
   d622a:	6b9b      	ldr	r3, [r3, #56]	; 0x38
   d622c:	9301      	str	r3, [sp, #4]
   d622e:	bd08      	pop	{r3, pc}
   d6230:	00030238 	.word	0x00030238

000d6234 <dct_write_app_data>:

DYNALIB_BEGIN(hal_dct)

#if HAL_PLATFORM_DCT_NO_DEPRECATED
DYNALIB_FN(0, hal_dct, dct_read_app_data_copy, int(uint32_t, void*, size_t))
DYNALIB_FN(1, hal_dct, dct_write_app_data, int(const void*, uint32_t, uint32_t))
   d6234:	b508      	push	{r3, lr}
   d6236:	4b02      	ldr	r3, [pc, #8]	; (d6240 <dct_write_app_data+0xc>)
   d6238:	681b      	ldr	r3, [r3, #0]
   d623a:	685b      	ldr	r3, [r3, #4]
   d623c:	9301      	str	r3, [sp, #4]
   d623e:	bd08      	pop	{r3, pc}
   d6240:	00030258 	.word	0x00030258

000d6244 <HAL_USB_USART_Init>:
#endif

DYNALIB_BEGIN(hal_usb)

#ifdef USB_CDC_ENABLE
DYNALIB_FN(0, hal_usb, HAL_USB_USART_Init, void(HAL_USB_USART_Serial, const HAL_USB_USART_Config*))
   d6244:	b508      	push	{r3, lr}
   d6246:	4b02      	ldr	r3, [pc, #8]	; (d6250 <HAL_USB_USART_Init+0xc>)
   d6248:	681b      	ldr	r3, [r3, #0]
   d624a:	681b      	ldr	r3, [r3, #0]
   d624c:	9301      	str	r3, [sp, #4]
   d624e:	bd08      	pop	{r3, pc}
   d6250:	0003024c 	.word	0x0003024c

000d6254 <HAL_USB_USART_Begin>:
DYNALIB_FN(1, hal_usb, HAL_USB_USART_Begin, void(HAL_USB_USART_Serial, uint32_t, void *))
   d6254:	b508      	push	{r3, lr}
   d6256:	4b02      	ldr	r3, [pc, #8]	; (d6260 <HAL_USB_USART_Begin+0xc>)
   d6258:	681b      	ldr	r3, [r3, #0]
   d625a:	685b      	ldr	r3, [r3, #4]
   d625c:	9301      	str	r3, [sp, #4]
   d625e:	bd08      	pop	{r3, pc}
   d6260:	0003024c 	.word	0x0003024c

000d6264 <HAL_USB_USART_End>:
DYNALIB_FN(2, hal_usb, HAL_USB_USART_End, void(HAL_USB_USART_Serial))
   d6264:	b508      	push	{r3, lr}
   d6266:	4b02      	ldr	r3, [pc, #8]	; (d6270 <HAL_USB_USART_End+0xc>)
   d6268:	681b      	ldr	r3, [r3, #0]
   d626a:	689b      	ldr	r3, [r3, #8]
   d626c:	9301      	str	r3, [sp, #4]
   d626e:	bd08      	pop	{r3, pc}
   d6270:	0003024c 	.word	0x0003024c

000d6274 <HAL_USB_USART_Available_Data>:
DYNALIB_FN(3, hal_usb, HAL_USB_USART_Baud_Rate, unsigned int(HAL_USB_USART_Serial))
DYNALIB_FN(4, hal_usb, HAL_USB_USART_Available_Data, int32_t(HAL_USB_USART_Serial))
   d6274:	b508      	push	{r3, lr}
   d6276:	4b02      	ldr	r3, [pc, #8]	; (d6280 <HAL_USB_USART_Available_Data+0xc>)
   d6278:	681b      	ldr	r3, [r3, #0]
   d627a:	691b      	ldr	r3, [r3, #16]
   d627c:	9301      	str	r3, [sp, #4]
   d627e:	bd08      	pop	{r3, pc}
   d6280:	0003024c 	.word	0x0003024c

000d6284 <HAL_USB_USART_Available_Data_For_Write>:
DYNALIB_FN(5, hal_usb, HAL_USB_USART_Available_Data_For_Write, int32_t(HAL_USB_USART_Serial))
   d6284:	b508      	push	{r3, lr}
   d6286:	4b02      	ldr	r3, [pc, #8]	; (d6290 <HAL_USB_USART_Available_Data_For_Write+0xc>)
   d6288:	681b      	ldr	r3, [r3, #0]
   d628a:	695b      	ldr	r3, [r3, #20]
   d628c:	9301      	str	r3, [sp, #4]
   d628e:	bd08      	pop	{r3, pc}
   d6290:	0003024c 	.word	0x0003024c

000d6294 <HAL_USB_USART_Receive_Data>:
DYNALIB_FN(6, hal_usb, HAL_USB_USART_Receive_Data, int32_t(HAL_USB_USART_Serial, uint8_t))
   d6294:	b508      	push	{r3, lr}
   d6296:	4b02      	ldr	r3, [pc, #8]	; (d62a0 <HAL_USB_USART_Receive_Data+0xc>)
   d6298:	681b      	ldr	r3, [r3, #0]
   d629a:	699b      	ldr	r3, [r3, #24]
   d629c:	9301      	str	r3, [sp, #4]
   d629e:	bd08      	pop	{r3, pc}
   d62a0:	0003024c 	.word	0x0003024c

000d62a4 <HAL_USB_USART_Send_Data>:
DYNALIB_FN(7, hal_usb, HAL_USB_USART_Send_Data, int32_t(HAL_USB_USART_Serial, uint8_t))
   d62a4:	b508      	push	{r3, lr}
   d62a6:	4b02      	ldr	r3, [pc, #8]	; (d62b0 <HAL_USB_USART_Send_Data+0xc>)
   d62a8:	681b      	ldr	r3, [r3, #0]
   d62aa:	69db      	ldr	r3, [r3, #28]
   d62ac:	9301      	str	r3, [sp, #4]
   d62ae:	bd08      	pop	{r3, pc}
   d62b0:	0003024c 	.word	0x0003024c

000d62b4 <HAL_USB_USART_Flush_Data>:
DYNALIB_FN(8, hal_usb, HAL_USB_USART_Flush_Data, void(HAL_USB_USART_Serial))
   d62b4:	b508      	push	{r3, lr}
   d62b6:	4b02      	ldr	r3, [pc, #8]	; (d62c0 <HAL_USB_USART_Flush_Data+0xc>)
   d62b8:	681b      	ldr	r3, [r3, #0]
   d62ba:	6a1b      	ldr	r3, [r3, #32]
   d62bc:	9301      	str	r3, [sp, #4]
   d62be:	bd08      	pop	{r3, pc}
   d62c0:	0003024c 	.word	0x0003024c

000d62c4 <panic_>:
DYNALIB_FN(9, services, LED_Toggle, void(Led_TypeDef))
DYNALIB_FN(10, services, LED_Fade, void(Led_TypeDef))
DYNALIB_FN(11, services, Get_LED_Brightness, uint8_t(void))

DYNALIB_FN(12, services, set_logger_output, void(debug_output_fn, LoggerOutputLevel)) // Deprecated
DYNALIB_FN(13, services, panic_, void(ePanicCode, void*, void(*)(uint32_t)))
   d62c4:	b508      	push	{r3, lr}
   d62c6:	4b02      	ldr	r3, [pc, #8]	; (d62d0 <panic_+0xc>)
   d62c8:	681b      	ldr	r3, [r3, #0]
   d62ca:	6b5b      	ldr	r3, [r3, #52]	; 0x34
   d62cc:	9301      	str	r3, [sp, #4]
   d62ce:	bd08      	pop	{r3, pc}
   d62d0:	00030260 	.word	0x00030260

000d62d4 <log_message>:
DYNALIB_FN(16, services, log_print_, void(int, int, const char*, const char*, const char*, ...)) // Deprecated
DYNALIB_FN(17, services, LED_RGB_SetChangeHandler, void(led_update_handler_fn, void*))
DYNALIB_FN(18, services, log_print_direct_, void(int, void*, const char*, ...)) // Deprecated
DYNALIB_FN(19, services, LED_GetColor, uint32_t(uint32_t, void*))

DYNALIB_FN(20, services, log_message, void(int, const char*, LogAttributes*, void*, const char*, ...))
   d62d4:	b508      	push	{r3, lr}
   d62d6:	4b02      	ldr	r3, [pc, #8]	; (d62e0 <log_message+0xc>)
   d62d8:	681b      	ldr	r3, [r3, #0]
   d62da:	6d1b      	ldr	r3, [r3, #80]	; 0x50
   d62dc:	9301      	str	r3, [sp, #4]
   d62de:	bd08      	pop	{r3, pc}
   d62e0:	00030260 	.word	0x00030260

000d62e4 <log_message_v>:
DYNALIB_FN(21, services, log_message_v, void(int, const char*, LogAttributes*, void*, const char*, va_list))
   d62e4:	b508      	push	{r3, lr}
   d62e6:	4b02      	ldr	r3, [pc, #8]	; (d62f0 <log_message_v+0xc>)
   d62e8:	681b      	ldr	r3, [r3, #0]
   d62ea:	6d5b      	ldr	r3, [r3, #84]	; 0x54
   d62ec:	9301      	str	r3, [sp, #4]
   d62ee:	bd08      	pop	{r3, pc}
   d62f0:	00030260 	.word	0x00030260

000d62f4 <log_level_name>:
DYNALIB_FN(22, services, log_write, void(int, const char*, const char*, size_t, void*))
DYNALIB_FN(23, services, log_printf, void(int, const char*, void*, const char*, ...))
DYNALIB_FN(24, services, log_printf_v, void(int, const char*, void*, const char*, va_list))
DYNALIB_FN(25, services, log_dump, void(int, const char*, const void*, size_t, int, void*))
DYNALIB_FN(26, services, log_enabled, int(int, const char*, void*))
DYNALIB_FN(27, services, log_level_name, const char*(int, void*))
   d62f4:	b508      	push	{r3, lr}
   d62f6:	4b02      	ldr	r3, [pc, #8]	; (d6300 <log_level_name+0xc>)
   d62f8:	681b      	ldr	r3, [r3, #0]
   d62fa:	6edb      	ldr	r3, [r3, #108]	; 0x6c
   d62fc:	9301      	str	r3, [sp, #4]
   d62fe:	bd08      	pop	{r3, pc}
   d6300:	00030260 	.word	0x00030260

000d6304 <log_set_callbacks>:
DYNALIB_FN(28, services, log_set_callbacks, void(log_message_callback_type, log_write_callback_type, log_enabled_callback_type, void*))
   d6304:	b508      	push	{r3, lr}
   d6306:	4b02      	ldr	r3, [pc, #8]	; (d6310 <log_set_callbacks+0xc>)
   d6308:	681b      	ldr	r3, [r3, #0]
   d630a:	6f1b      	ldr	r3, [r3, #112]	; 0x70
   d630c:	9301      	str	r3, [sp, #4]
   d630e:	bd08      	pop	{r3, pc}
   d6310:	00030260 	.word	0x00030260

000d6314 <set_system_mode>:
#endif

DYNALIB_BEGIN(system)

DYNALIB_FN(0, system, system_mode, System_Mode_TypeDef(void))
DYNALIB_FN(1, system, set_system_mode, void(System_Mode_TypeDef))
   d6314:	b508      	push	{r3, lr}
   d6316:	4b02      	ldr	r3, [pc, #8]	; (d6320 <set_system_mode+0xc>)
   d6318:	681b      	ldr	r3, [r3, #0]
   d631a:	685b      	ldr	r3, [r3, #4]
   d631c:	9301      	str	r3, [sp, #4]
   d631e:	bd08      	pop	{r3, pc}
   d6320:	00030220 	.word	0x00030220

000d6324 <application_thread_current>:
DYNALIB_FN(15, system, system_get_flag, int(system_flag_t, uint8_t*, void*))
DYNALIB_FN(16, system, Spark_Prepare_For_Firmware_Update, int(FileTransfer::Descriptor&, uint32_t, void*))
DYNALIB_FN(17, system, Spark_Save_Firmware_Chunk, int(FileTransfer::Descriptor&, const uint8_t*, void*))
DYNALIB_FN(18, system, Spark_Finish_Firmware_Update, int(FileTransfer::Descriptor&, uint32_t, void*))

DYNALIB_FN(19, system, application_thread_current, uint8_t(void*))
   d6324:	b508      	push	{r3, lr}
   d6326:	4b02      	ldr	r3, [pc, #8]	; (d6330 <application_thread_current+0xc>)
   d6328:	681b      	ldr	r3, [r3, #0]
   d632a:	6cdb      	ldr	r3, [r3, #76]	; 0x4c
   d632c:	9301      	str	r3, [sp, #4]
   d632e:	bd08      	pop	{r3, pc}
   d6330:	00030220 	.word	0x00030220

000d6334 <application_thread_invoke>:
DYNALIB_FN(20, system, system_thread_current, uint8_t(void*))
DYNALIB_FN(21, system, application_thread_invoke, uint8_t(void(*)(void*), void*, void*))
   d6334:	b508      	push	{r3, lr}
   d6336:	4b02      	ldr	r3, [pc, #8]	; (d6340 <application_thread_invoke+0xc>)
   d6338:	681b      	ldr	r3, [r3, #0]
   d633a:	6d5b      	ldr	r3, [r3, #84]	; 0x54
   d633c:	9301      	str	r3, [sp, #4]
   d633e:	bd08      	pop	{r3, pc}
   d6340:	00030220 	.word	0x00030220

000d6344 <system_ctrl_set_app_request_handler>:
DYNALIB_FN(BASE_IDX + 6, system, led_pattern_period, uint16_t(int, int, void*))
DYNALIB_FN(BASE_IDX + 7, system, system_set_tester_handlers, int(system_tester_handlers_t*, void*))
DYNALIB_FN(BASE_IDX + 8, system, system_format_diag_data, int(const uint16_t*, size_t, unsigned, appender_fn, void*, void*))

// Control requests
DYNALIB_FN(BASE_IDX + 9, system, system_ctrl_set_app_request_handler, int(ctrl_request_handler_fn, void*))
   d6344:	b508      	push	{r3, lr}
   d6346:	4b03      	ldr	r3, [pc, #12]	; (d6354 <system_ctrl_set_app_request_handler+0x10>)
   d6348:	681b      	ldr	r3, [r3, #0]
   d634a:	f8d3 3088 	ldr.w	r3, [r3, #136]	; 0x88
   d634e:	9301      	str	r3, [sp, #4]
   d6350:	bd08      	pop	{r3, pc}
   d6352:	0000      	.short	0x0000
   d6354:	00030220 	.word	0x00030220

000d6358 <system_ctrl_set_result>:
DYNALIB_FN(BASE_IDX + 10, system, system_ctrl_alloc_reply_data, int(ctrl_request*, size_t, void*))
DYNALIB_FN(BASE_IDX + 11, system, system_ctrl_free_request_data, void(ctrl_request*, void*))
DYNALIB_FN(BASE_IDX + 12, system, system_ctrl_set_result, void(ctrl_request*, int, ctrl_completion_handler_fn, void*, void*))
   d6358:	b508      	push	{r3, lr}
   d635a:	4b03      	ldr	r3, [pc, #12]	; (d6368 <system_ctrl_set_result+0x10>)
   d635c:	681b      	ldr	r3, [r3, #0]
   d635e:	f8d3 3094 	ldr.w	r3, [r3, #148]	; 0x94
   d6362:	9301      	str	r3, [sp, #4]
   d6364:	bd08      	pop	{r3, pc}
   d6366:	0000      	.short	0x0000
   d6368:	00030220 	.word	0x00030220

000d636c <network_connect>:
#endif

DYNALIB_BEGIN(system_net)

DYNALIB_FN(0, system_net, network_config, const void*(network_handle_t, uint32_t, void*))
DYNALIB_FN(1, system_net, network_connect, void(network_handle_t, uint32_t, uint32_t, void*))
   d636c:	b508      	push	{r3, lr}
   d636e:	4b02      	ldr	r3, [pc, #8]	; (d6378 <network_connect+0xc>)
   d6370:	681b      	ldr	r3, [r3, #0]
   d6372:	685b      	ldr	r3, [r3, #4]
   d6374:	9301      	str	r3, [sp, #4]
   d6376:	bd08      	pop	{r3, pc}
   d6378:	00030240 	.word	0x00030240

000d637c <network_connecting>:
DYNALIB_FN(2, system_net, network_connecting, bool(network_handle_t, uint32_t, void*))
   d637c:	b508      	push	{r3, lr}
   d637e:	4b02      	ldr	r3, [pc, #8]	; (d6388 <network_connecting+0xc>)
   d6380:	681b      	ldr	r3, [r3, #0]
   d6382:	689b      	ldr	r3, [r3, #8]
   d6384:	9301      	str	r3, [sp, #4]
   d6386:	bd08      	pop	{r3, pc}
   d6388:	00030240 	.word	0x00030240

000d638c <network_disconnect>:
DYNALIB_FN(3, system_net, network_disconnect, void(network_handle_t, uint32_t, void*))
   d638c:	b508      	push	{r3, lr}
   d638e:	4b02      	ldr	r3, [pc, #8]	; (d6398 <network_disconnect+0xc>)
   d6390:	681b      	ldr	r3, [r3, #0]
   d6392:	68db      	ldr	r3, [r3, #12]
   d6394:	9301      	str	r3, [sp, #4]
   d6396:	bd08      	pop	{r3, pc}
   d6398:	00030240 	.word	0x00030240

000d639c <network_ready>:
DYNALIB_FN(4, system_net, network_ready, bool(network_handle_t, uint32_t, void*))
   d639c:	b508      	push	{r3, lr}
   d639e:	4b02      	ldr	r3, [pc, #8]	; (d63a8 <network_ready+0xc>)
   d63a0:	681b      	ldr	r3, [r3, #0]
   d63a2:	691b      	ldr	r3, [r3, #16]
   d63a4:	9301      	str	r3, [sp, #4]
   d63a6:	bd08      	pop	{r3, pc}
   d63a8:	00030240 	.word	0x00030240

000d63ac <network_on>:
DYNALIB_FN(5, system_net, network_on, void(network_handle_t, uint32_t, uint32_t, void*))
   d63ac:	b508      	push	{r3, lr}
   d63ae:	4b02      	ldr	r3, [pc, #8]	; (d63b8 <network_on+0xc>)
   d63b0:	681b      	ldr	r3, [r3, #0]
   d63b2:	695b      	ldr	r3, [r3, #20]
   d63b4:	9301      	str	r3, [sp, #4]
   d63b6:	bd08      	pop	{r3, pc}
   d63b8:	00030240 	.word	0x00030240

000d63bc <network_off>:
DYNALIB_FN(6, system_net, network_off, void(network_handle_t, uint32_t, uint32_t, void*))
   d63bc:	b508      	push	{r3, lr}
   d63be:	4b02      	ldr	r3, [pc, #8]	; (d63c8 <network_off+0xc>)
   d63c0:	681b      	ldr	r3, [r3, #0]
   d63c2:	699b      	ldr	r3, [r3, #24]
   d63c4:	9301      	str	r3, [sp, #4]
   d63c6:	bd08      	pop	{r3, pc}
   d63c8:	00030240 	.word	0x00030240

000d63cc <network_listen>:
DYNALIB_FN(7, system_net, network_listen, void(network_handle_t, uint32_t, void*))
   d63cc:	b508      	push	{r3, lr}
   d63ce:	4b02      	ldr	r3, [pc, #8]	; (d63d8 <network_listen+0xc>)
   d63d0:	681b      	ldr	r3, [r3, #0]
   d63d2:	69db      	ldr	r3, [r3, #28]
   d63d4:	9301      	str	r3, [sp, #4]
   d63d6:	bd08      	pop	{r3, pc}
   d63d8:	00030240 	.word	0x00030240

000d63dc <network_listening>:
DYNALIB_FN(8, system_net, network_listening, bool(network_handle_t, uint32_t, void*))
   d63dc:	b508      	push	{r3, lr}
   d63de:	4b02      	ldr	r3, [pc, #8]	; (d63e8 <network_listening+0xc>)
   d63e0:	681b      	ldr	r3, [r3, #0]
   d63e2:	6a1b      	ldr	r3, [r3, #32]
   d63e4:	9301      	str	r3, [sp, #4]
   d63e6:	bd08      	pop	{r3, pc}
   d63e8:	00030240 	.word	0x00030240

000d63ec <network_set_listen_timeout>:
DYNALIB_FN(9, system_net, network_has_credentials, bool(network_handle_t, uint32_t, void*))
DYNALIB_FN(10, system_net, network_set_credentials, int(network_handle_t, uint32_t, NetworkCredentials*, void*))
DYNALIB_FN(11, system_net, network_clear_credentials, bool(network_handle_t, uint32_t, NetworkCredentials*, void*))
DYNALIB_FN(12, system_net, network_set_listen_timeout, void(network_handle_t, uint16_t, void*))
   d63ec:	b508      	push	{r3, lr}
   d63ee:	4b02      	ldr	r3, [pc, #8]	; (d63f8 <network_set_listen_timeout+0xc>)
   d63f0:	681b      	ldr	r3, [r3, #0]
   d63f2:	6b1b      	ldr	r3, [r3, #48]	; 0x30
   d63f4:	9301      	str	r3, [sp, #4]
   d63f6:	bd08      	pop	{r3, pc}
   d63f8:	00030240 	.word	0x00030240

000d63fc <network_get_listen_timeout>:
DYNALIB_FN(13, system_net, network_get_listen_timeout, uint16_t(network_handle_t, uint32_t, void*))
   d63fc:	b508      	push	{r3, lr}
   d63fe:	4b02      	ldr	r3, [pc, #8]	; (d6408 <network_get_listen_timeout+0xc>)
   d6400:	681b      	ldr	r3, [r3, #0]
   d6402:	6b5b      	ldr	r3, [r3, #52]	; 0x34
   d6404:	9301      	str	r3, [sp, #4]
   d6406:	bd08      	pop	{r3, pc}
   d6408:	00030240 	.word	0x00030240

000d640c <spark_cloud_flag_connected>:
DYNALIB_FN(0, system_cloud, spark_variable, bool(const char*, const void*, Spark_Data_TypeDef, spark_variable_t*))
DYNALIB_FN(1, system_cloud, spark_function, bool(const char*, p_user_function_int_str_t, void*))
DYNALIB_FN(2, system_cloud, spark_process, void(void))
DYNALIB_FN(3, system_cloud, spark_cloud_flag_connect, void(void))
DYNALIB_FN(4, system_cloud, spark_cloud_flag_disconnect, void(void))
DYNALIB_FN(5, system_cloud, spark_cloud_flag_connected, bool(void))
   d640c:	b508      	push	{r3, lr}
   d640e:	4b02      	ldr	r3, [pc, #8]	; (d6418 <spark_cloud_flag_connected+0xc>)
   d6410:	681b      	ldr	r3, [r3, #0]
   d6412:	695b      	ldr	r3, [r3, #20]
   d6414:	9301      	str	r3, [sp, #4]
   d6416:	bd08      	pop	{r3, pc}
   d6418:	00030244 	.word	0x00030244

000d641c <spark_send_event>:
DYNALIB_FN(6, system_cloud, system_cloud_protocol_instance, ProtocolFacade*(void))
DYNALIB_FN(7, system_cloud, spark_deviceID, String(void))
DYNALIB_FN(8, system_cloud, spark_send_event, bool(const char*, const char*, int, uint32_t, void*))
   d641c:	b508      	push	{r3, lr}
   d641e:	4b02      	ldr	r3, [pc, #8]	; (d6428 <spark_send_event+0xc>)
   d6420:	681b      	ldr	r3, [r3, #0]
   d6422:	6a1b      	ldr	r3, [r3, #32]
   d6424:	9301      	str	r3, [sp, #4]
   d6426:	bd08      	pop	{r3, pc}
   d6428:	00030244 	.word	0x00030244

000d642c <spark_set_random_seed_from_cloud_handler>:
DYNALIB_FN(10, system_cloud, spark_unsubscribe, void(void*))
DYNALIB_FN(11, system_cloud, spark_sync_time, bool(void*))
DYNALIB_FN(12, system_cloud, spark_sync_time_pending, bool(void*))
DYNALIB_FN(13, system_cloud, spark_sync_time_last, system_tick_t(time_t*, void*))
DYNALIB_FN(14, system_cloud, spark_set_connection_property, int(unsigned, unsigned, particle::protocol::connection_properties_t*, void*))
DYNALIB_FN(15, system_cloud, spark_set_random_seed_from_cloud_handler, int(void (*handler)(unsigned int), void*))
   d642c:	b508      	push	{r3, lr}
   d642e:	4b02      	ldr	r3, [pc, #8]	; (d6438 <spark_set_random_seed_from_cloud_handler+0xc>)
   d6430:	681b      	ldr	r3, [r3, #0]
   d6432:	6bdb      	ldr	r3, [r3, #60]	; 0x3c
   d6434:	9301      	str	r3, [sp, #4]
   d6436:	bd08      	pop	{r3, pc}
   d6438:	00030244 	.word	0x00030244

000d643c <malloc>:
#include <assert.h>
#endif

DYNALIB_BEGIN(rt)

DYNALIB_FN(0, rt, malloc, void*(size_t))
   d643c:	b508      	push	{r3, lr}
   d643e:	4b02      	ldr	r3, [pc, #8]	; (d6448 <malloc+0xc>)
   d6440:	681b      	ldr	r3, [r3, #0]
   d6442:	681b      	ldr	r3, [r3, #0]
   d6444:	9301      	str	r3, [sp, #4]
   d6446:	bd08      	pop	{r3, pc}
   d6448:	0003021c 	.word	0x0003021c

000d644c <free>:
DYNALIB_FN(1, rt, free, void(void*))
   d644c:	b508      	push	{r3, lr}
   d644e:	4b02      	ldr	r3, [pc, #8]	; (d6458 <free+0xc>)
   d6450:	681b      	ldr	r3, [r3, #0]
   d6452:	685b      	ldr	r3, [r3, #4]
   d6454:	9301      	str	r3, [sp, #4]
   d6456:	bd08      	pop	{r3, pc}
   d6458:	0003021c 	.word	0x0003021c

000d645c <realloc>:
DYNALIB_FN(2, rt, realloc, void*(void*, size_t))
   d645c:	b508      	push	{r3, lr}
   d645e:	4b02      	ldr	r3, [pc, #8]	; (d6468 <realloc+0xc>)
   d6460:	681b      	ldr	r3, [r3, #0]
   d6462:	689b      	ldr	r3, [r3, #8]
   d6464:	9301      	str	r3, [sp, #4]
   d6466:	bd08      	pop	{r3, pc}
   d6468:	0003021c 	.word	0x0003021c

000d646c <snprintf>:
DYNALIB_FN(3, rt, sprintf, int(char*, const char*, ...))
DYNALIB_FN(4, rt, siprintf, int(char*, const char*, ...))
DYNALIB_FN(5, rt, sscanf, int(const char*, const char*, ...))
DYNALIB_FN(6, rt, siscanf, int(const char*, const char*, ...))
DYNALIB_FN(7, rt, snprintf, int(char*, size_t, const char*, ...))
   d646c:	b508      	push	{r3, lr}
   d646e:	4b02      	ldr	r3, [pc, #8]	; (d6478 <snprintf+0xc>)
   d6470:	681b      	ldr	r3, [r3, #0]
   d6472:	69db      	ldr	r3, [r3, #28]
   d6474:	9301      	str	r3, [sp, #4]
   d6476:	bd08      	pop	{r3, pc}
   d6478:	0003021c 	.word	0x0003021c

000d647c <vsnprintf>:
DYNALIB_FN(8, rt, sniprintf, int(char*, size_t, const char*, ...))
DYNALIB_FN(9, rt, vsnprintf, int(char*, size_t, const char*, va_list))
   d647c:	b508      	push	{r3, lr}
   d647e:	4b02      	ldr	r3, [pc, #8]	; (d6488 <vsnprintf+0xc>)
   d6480:	681b      	ldr	r3, [r3, #0]
   d6482:	6a5b      	ldr	r3, [r3, #36]	; 0x24
   d6484:	9301      	str	r3, [sp, #4]
   d6486:	bd08      	pop	{r3, pc}
   d6488:	0003021c 	.word	0x0003021c

000d648c <abort>:
DYNALIB_FN(10, rt, vsniprintf, int(char*, size_t, const char*, va_list))
DYNALIB_FN(11, rt, abort, void(void))
   d648c:	b508      	push	{r3, lr}
   d648e:	4b02      	ldr	r3, [pc, #8]	; (d6498 <abort+0xc>)
   d6490:	681b      	ldr	r3, [r3, #0]
   d6492:	6adb      	ldr	r3, [r3, #44]	; 0x2c
   d6494:	9301      	str	r3, [sp, #4]
   d6496:	bd08      	pop	{r3, pc}
   d6498:	0003021c 	.word	0x0003021c

000d649c <_malloc_r>:
DYNALIB_FN(12, rt, _malloc_r, void*(struct _reent*, size_t))
   d649c:	b508      	push	{r3, lr}
   d649e:	4b02      	ldr	r3, [pc, #8]	; (d64a8 <_malloc_r+0xc>)
   d64a0:	681b      	ldr	r3, [r3, #0]
   d64a2:	6b1b      	ldr	r3, [r3, #48]	; 0x30
   d64a4:	9301      	str	r3, [sp, #4]
   d64a6:	bd08      	pop	{r3, pc}
   d64a8:	0003021c 	.word	0x0003021c

000d64ac <__errno>:
DYNALIB_FN(13, rt, _free_r, void(struct _reent*, void*))
DYNALIB_FN(14, rt, _realloc_r, void*(struct _reent*, void*, size_t))
DYNALIB_FN(15, rt, __errno, int*())
   d64ac:	b508      	push	{r3, lr}
   d64ae:	4b02      	ldr	r3, [pc, #8]	; (d64b8 <__errno+0xc>)
   d64b0:	681b      	ldr	r3, [r3, #0]
   d64b2:	6bdb      	ldr	r3, [r3, #60]	; 0x3c
   d64b4:	9301      	str	r3, [sp, #4]
   d64b6:	bd08      	pop	{r3, pc}
   d64b8:	0003021c 	.word	0x0003021c

000d64bc <_ZN5spark13EthernetClass9listeningEv>:
    uint16_t getListenTimeout(void) {
        return network_get_listen_timeout(*this, 0, NULL);
    }

    bool listening(void) {
        return network_listening(*this, 0, NULL);
   d64bc:	2200      	movs	r2, #0
   d64be:	4611      	mov	r1, r2
   d64c0:	6840      	ldr	r0, [r0, #4]
   d64c2:	f7ff bf8b 	b.w	d63dc <network_listening>

000d64c6 <_ZN5spark13EthernetClass16getListenTimeoutEv>:
    void setListenTimeout(uint16_t timeout) {
        network_set_listen_timeout(*this, timeout, NULL);
    }

    uint16_t getListenTimeout(void) {
        return network_get_listen_timeout(*this, 0, NULL);
   d64c6:	2200      	movs	r2, #0
   d64c8:	4611      	mov	r1, r2
   d64ca:	6840      	ldr	r0, [r0, #4]
   d64cc:	f7ff bf96 	b.w	d63fc <network_get_listen_timeout>

000d64d0 <_ZN5spark13EthernetClass16setListenTimeoutEt>:
    void listen(bool begin=true) {
        network_listen(*this, begin ? 0 : 1, NULL);
    }

    void setListenTimeout(uint16_t timeout) {
        network_set_listen_timeout(*this, timeout, NULL);
   d64d0:	2200      	movs	r2, #0
   d64d2:	6840      	ldr	r0, [r0, #4]
   d64d4:	f7ff bf8a 	b.w	d63ec <network_set_listen_timeout>

000d64d8 <_ZN5spark13EthernetClass6listenEb>:
    void disconnect() {
        network_disconnect(*this, NETWORK_DISCONNECT_REASON_USER, NULL);
    }

    void listen(bool begin=true) {
        network_listen(*this, begin ? 0 : 1, NULL);
   d64d8:	2200      	movs	r2, #0
   d64da:	f081 0101 	eor.w	r1, r1, #1
   d64de:	6840      	ldr	r0, [r0, #4]
   d64e0:	f7ff bf74 	b.w	d63cc <network_listen>

000d64e4 <_ZN5spark13EthernetClass3offEv>:
    void on() {
        network_on(*this, 0, 0, NULL);
    }

    void off() {
        network_off(*this, 0, 0, NULL);
   d64e4:	2300      	movs	r3, #0
   d64e6:	461a      	mov	r2, r3
   d64e8:	4619      	mov	r1, r3
   d64ea:	6840      	ldr	r0, [r0, #4]
   d64ec:	f7ff bf66 	b.w	d63bc <network_off>

000d64f0 <_ZN5spark13EthernetClass2onEv>:
    EthernetClass() :
            NetworkClass(NETWORK_INTERFACE_ETHERNET) {
    }

    void on() {
        network_on(*this, 0, 0, NULL);
   d64f0:	2300      	movs	r3, #0
   d64f2:	461a      	mov	r2, r3
   d64f4:	4619      	mov	r1, r3
   d64f6:	6840      	ldr	r0, [r0, #4]
   d64f8:	f7ff bf58 	b.w	d63ac <network_on>

000d64fc <_ZN5spark13EthernetClass5readyEv>:
    bool listening(void) {
        return network_listening(*this, 0, NULL);
    }

    bool ready() {
        return network_ready(*this, 0,  NULL);
   d64fc:	2200      	movs	r2, #0
   d64fe:	4611      	mov	r1, r2
   d6500:	6840      	ldr	r0, [r0, #4]
   d6502:	f7ff bf4b 	b.w	d639c <network_ready>

000d6506 <_ZN5spark13EthernetClass10connectingEv>:
    void connect(unsigned flags=0) {
        network_connect(*this, flags, 0, NULL);
    }

    bool connecting(void) {
        return network_connecting(*this, 0, NULL);
   d6506:	2200      	movs	r2, #0
   d6508:	4611      	mov	r1, r2
   d650a:	6840      	ldr	r0, [r0, #4]
   d650c:	f7ff bf36 	b.w	d637c <network_connecting>

000d6510 <_ZN5spark13EthernetClass10disconnectEv>:
    }

    void disconnect() {
        network_disconnect(*this, NETWORK_DISCONNECT_REASON_USER, NULL);
   d6510:	2200      	movs	r2, #0
   d6512:	2102      	movs	r1, #2
   d6514:	6840      	ldr	r0, [r0, #4]
   d6516:	f7ff bf39 	b.w	d638c <network_disconnect>

000d651a <_ZN5spark13EthernetClass7connectEj>:
    void off() {
        network_off(*this, 0, 0, NULL);
    }

    void connect(unsigned flags=0) {
        network_connect(*this, flags, 0, NULL);
   d651a:	2300      	movs	r3, #0
   d651c:	461a      	mov	r2, r3
   d651e:	6840      	ldr	r0, [r0, #4]
   d6520:	f7ff bf24 	b.w	d636c <network_connect>

000d6524 <_GLOBAL__sub_I__ZN5spark8EthernetE>:
    static NetworkClass& from(network_interface_t nif);

    virtual IPAddress resolve(const char* name);

    explicit NetworkClass(network_interface_t iface)
            : iface_(iface) {
   d6524:	4b02      	ldr	r3, [pc, #8]	; (d6530 <_GLOBAL__sub_I__ZN5spark8EthernetE+0xc>)
   d6526:	2203      	movs	r2, #3
   d6528:	605a      	str	r2, [r3, #4]
    }

class EthernetClass : public NetworkClass {
public:
    EthernetClass() :
            NetworkClass(NETWORK_INTERFACE_ETHERNET) {
   d652a:	4a02      	ldr	r2, [pc, #8]	; (d6534 <_GLOBAL__sub_I__ZN5spark8EthernetE+0x10>)
   d652c:	601a      	str	r2, [r3, #0]
   d652e:	4770      	bx	lr
   d6530:	2003e3b8 	.word	0x2003e3b8
   d6534:	000db9e4 	.word	0x000db9e4

000d6538 <_GLOBAL__sub_I_System>:
    return wokenUpByRtc();
}

system_error_t SleepResult::error() const {
    return err_;
   d6538:	b510      	push	{r4, lr}

class SystemSleepResult {
public:
    SystemSleepResult()
            : wakeupSource_(nullptr),
              error_(SYSTEM_ERROR_NONE) {
   d653a:	4c09      	ldr	r4, [pc, #36]	; (d6560 <_GLOBAL__sub_I_System+0x28>)
   d653c:	2000      	movs	r0, #0
    WAKEUP_REASON_PIN_OR_RTC = 3,
    WAKEUP_REASON_UNKNOWN = 4
};

struct SleepResult {
    SleepResult() {}
   d653e:	f64f 73ff 	movw	r3, #65535	; 0xffff

class SystemSleepResult {
public:
    SystemSleepResult()
            : wakeupSource_(nullptr),
              error_(SYSTEM_ERROR_NONE) {
   d6542:	6020      	str	r0, [r4, #0]
   d6544:	80a0      	strh	r0, [r4, #4]
    WAKEUP_REASON_PIN_OR_RTC = 3,
    WAKEUP_REASON_UNKNOWN = 4
};

struct SleepResult {
    SleepResult() {}
   d6546:	71a0      	strb	r0, [r4, #6]
   d6548:	8120      	strh	r0, [r4, #8]
   d654a:	8163      	strh	r3, [r4, #10]

class SystemClass {
public:

    SystemClass(System_Mode_TypeDef mode = DEFAULT) {
        set_system_mode(mode);
   d654c:	f7ff fee2 	bl	d6314 <set_system_mode>

#if Wiring_LogConfig
extern void(*log_process_ctrl_request_callback)(ctrl_request* req);
#endif

SystemClass System;
   d6550:	4620      	mov	r0, r4
   d6552:	4a04      	ldr	r2, [pc, #16]	; (d6564 <_GLOBAL__sub_I_System+0x2c>)
   d6554:	4904      	ldr	r1, [pc, #16]	; (d6568 <_GLOBAL__sub_I_System+0x30>)
    return wokenUpByRtc();
}

system_error_t SleepResult::error() const {
    return err_;
   d6556:	e8bd 4010 	ldmia.w	sp!, {r4, lr}

#if Wiring_LogConfig
extern void(*log_process_ctrl_request_callback)(ctrl_request* req);
#endif

SystemClass System;
   d655a:	f004 b86c 	b.w	da636 <__aeabi_atexit>
   d655e:	bf00      	nop
   d6560:	2003e3c0 	.word	0x2003e3c0
   d6564:	2003d8d4 	.word	0x2003d8d4
   d6568:	000d40d7 	.word	0x000d40d7

000d656c <_ZN6StringC1EOS_>:
/*  Memory Management                        */
/*********************************************/

inline void String::init(void)
{
	buffer = NULL;
   d656c:	2300      	movs	r3, #0
   d656e:	6003      	str	r3, [r0, #0]
	capacity = 0;
   d6570:	6043      	str	r3, [r0, #4]
	len = 0;
   d6572:	6083      	str	r3, [r0, #8]
	flags = 0;
   d6574:	7303      	strb	r3, [r0, #12]
	const char* cstr = reinterpret_cast<const char*>(pstr);
	if (cstr) copy(cstr, strlen(cstr));
}

#ifdef __GXX_EXPERIMENTAL_CXX0X__
String::String(String &&rval)
   d6576:	b510      	push	{r4, lr}
			return;
		} else {
			free(buffer);
		}
	}
	buffer = rhs.buffer;
   d6578:	680c      	ldr	r4, [r1, #0]
   d657a:	6004      	str	r4, [r0, #0]
	capacity = rhs.capacity;
   d657c:	684c      	ldr	r4, [r1, #4]
   d657e:	6044      	str	r4, [r0, #4]
	len = rhs.len;
   d6580:	688c      	ldr	r4, [r1, #8]
   d6582:	6084      	str	r4, [r0, #8]
	rhs.buffer = NULL;
   d6584:	600b      	str	r3, [r1, #0]
	rhs.capacity = 0;
   d6586:	604b      	str	r3, [r1, #4]
	rhs.len = 0;
   d6588:	608b      	str	r3, [r1, #8]
#ifdef __GXX_EXPERIMENTAL_CXX0X__
String::String(String &&rval)
{
	init();
	move(rval);
}
   d658a:	bd10      	pop	{r4, pc}

000d658c <_ZN6StringD1Ev>:
	init();
	char buf[33];
	dtoa(value, decimalPlaces, buf);
        *this = buf;
}
String::~String()
   d658c:	b510      	push	{r4, lr}
   d658e:	4604      	mov	r4, r0
{
	free(buffer);
   d6590:	6800      	ldr	r0, [r0, #0]
   d6592:	f7ff ff5b 	bl	d644c <free>
}
   d6596:	4620      	mov	r0, r4
   d6598:	bd10      	pop	{r4, pc}

000d659a <_ZN6String10invalidateEv>:
	len = 0;
	flags = 0;
}

void String::invalidate(void)
{
   d659a:	b510      	push	{r4, lr}
   d659c:	4604      	mov	r4, r0
	if (buffer) free(buffer);
   d659e:	6800      	ldr	r0, [r0, #0]
   d65a0:	b108      	cbz	r0, d65a6 <_ZN6String10invalidateEv+0xc>
   d65a2:	f7ff ff53 	bl	d644c <free>
	buffer = NULL;
   d65a6:	2300      	movs	r3, #0
   d65a8:	6023      	str	r3, [r4, #0]
	capacity = len = 0;
   d65aa:	60a3      	str	r3, [r4, #8]
   d65ac:	6063      	str	r3, [r4, #4]
   d65ae:	bd10      	pop	{r4, pc}

000d65b0 <_ZN6String12changeBufferEj>:
	}
	return 0;
}

unsigned char String::changeBuffer(unsigned int maxStrLen)
{
   d65b0:	b538      	push	{r3, r4, r5, lr}
   d65b2:	4604      	mov	r4, r0
   d65b4:	460d      	mov	r5, r1
	char *newbuffer = (char *)realloc(buffer, maxStrLen + 1);
   d65b6:	6800      	ldr	r0, [r0, #0]
   d65b8:	3101      	adds	r1, #1
   d65ba:	f7ff ff4f 	bl	d645c <realloc>
	if (newbuffer) {
   d65be:	b110      	cbz	r0, d65c6 <_ZN6String12changeBufferEj+0x16>
		buffer = newbuffer;
		capacity = maxStrLen;
   d65c0:	e884 0021 	stmia.w	r4, {r0, r5}
		return 1;
   d65c4:	2001      	movs	r0, #1
	}
	return 0;
}
   d65c6:	bd38      	pop	{r3, r4, r5, pc}

000d65c8 <_ZN6String7reserveEj>:
	buffer = NULL;
	capacity = len = 0;
}

unsigned char String::reserve(unsigned int size)
{
   d65c8:	b510      	push	{r4, lr}
	if (buffer && capacity >= size) return 1;
   d65ca:	6803      	ldr	r3, [r0, #0]
	buffer = NULL;
	capacity = len = 0;
}

unsigned char String::reserve(unsigned int size)
{
   d65cc:	4604      	mov	r4, r0
	if (buffer && capacity >= size) return 1;
   d65ce:	b113      	cbz	r3, d65d6 <_ZN6String7reserveEj+0xe>
   d65d0:	6843      	ldr	r3, [r0, #4]
   d65d2:	428b      	cmp	r3, r1
   d65d4:	d207      	bcs.n	d65e6 <_ZN6String7reserveEj+0x1e>
	if (changeBuffer(size)) {
   d65d6:	4620      	mov	r0, r4
   d65d8:	f7ff ffea 	bl	d65b0 <_ZN6String12changeBufferEj>
   d65dc:	b120      	cbz	r0, d65e8 <_ZN6String7reserveEj+0x20>
		if (len == 0) buffer[0] = 0;
   d65de:	68a3      	ldr	r3, [r4, #8]
   d65e0:	b90b      	cbnz	r3, d65e6 <_ZN6String7reserveEj+0x1e>
   d65e2:	6822      	ldr	r2, [r4, #0]
   d65e4:	7013      	strb	r3, [r2, #0]
   d65e6:	2001      	movs	r0, #1
		return 1;
	}
	return 0;
}
   d65e8:	bd10      	pop	{r4, pc}

000d65ea <_ZN6String4copyEPKcj>:
/*********************************************/
/*  Copy and Move                            */
/*********************************************/

String & String::copy(const char *cstr, unsigned int length)
{
   d65ea:	b570      	push	{r4, r5, r6, lr}
   d65ec:	460e      	mov	r6, r1
	if (!reserve(length)) {
   d65ee:	4611      	mov	r1, r2
/*********************************************/
/*  Copy and Move                            */
/*********************************************/

String & String::copy(const char *cstr, unsigned int length)
{
   d65f0:	4604      	mov	r4, r0
   d65f2:	4615      	mov	r5, r2
	if (!reserve(length)) {
   d65f4:	f7ff ffe8 	bl	d65c8 <_ZN6String7reserveEj>
   d65f8:	b918      	cbnz	r0, d6602 <_ZN6String4copyEPKcj+0x18>
		invalidate();
   d65fa:	4620      	mov	r0, r4
   d65fc:	f7ff ffcd 	bl	d659a <_ZN6String10invalidateEv>
		return *this;
   d6600:	e009      	b.n	d6616 <_ZN6String4copyEPKcj+0x2c>
	}
	len = length;
	memcpy(buffer, cstr, length);
   d6602:	462a      	mov	r2, r5
   d6604:	4631      	mov	r1, r6
{
	if (!reserve(length)) {
		invalidate();
		return *this;
	}
	len = length;
   d6606:	60a5      	str	r5, [r4, #8]
	memcpy(buffer, cstr, length);
   d6608:	6820      	ldr	r0, [r4, #0]
   d660a:	f004 f99a 	bl	da942 <memcpy>
	buffer[len] = 0;
   d660e:	6822      	ldr	r2, [r4, #0]
   d6610:	68a3      	ldr	r3, [r4, #8]
   d6612:	2100      	movs	r1, #0
   d6614:	54d1      	strb	r1, [r2, r3]
	return *this;
}
   d6616:	4620      	mov	r0, r4
   d6618:	bd70      	pop	{r4, r5, r6, pc}

000d661a <_ZN6StringC1EPK19__FlashStringHelper>:
{
	init();
	*this = value;
}

String::String(const __FlashStringHelper *pstr)
   d661a:	b538      	push	{r3, r4, r5, lr}
/*  Memory Management                        */
/*********************************************/

inline void String::init(void)
{
	buffer = NULL;
   d661c:	2300      	movs	r3, #0
{
	init();
	*this = value;
}

String::String(const __FlashStringHelper *pstr)
   d661e:	4604      	mov	r4, r0
/*  Memory Management                        */
/*********************************************/

inline void String::init(void)
{
	buffer = NULL;
   d6620:	6003      	str	r3, [r0, #0]
	capacity = 0;
   d6622:	6043      	str	r3, [r0, #4]
	len = 0;
   d6624:	6083      	str	r3, [r0, #8]
	flags = 0;
   d6626:	7303      	strb	r3, [r0, #12]

String::String(const __FlashStringHelper *pstr)
{
	init();
	const char* cstr = reinterpret_cast<const char*>(pstr);
	if (cstr) copy(cstr, strlen(cstr));
   d6628:	460d      	mov	r5, r1
   d662a:	b139      	cbz	r1, d663c <_ZN6StringC1EPK19__FlashStringHelper+0x22>
   d662c:	4608      	mov	r0, r1
   d662e:	f004 fa24 	bl	daa7a <strlen>
   d6632:	4629      	mov	r1, r5
   d6634:	4602      	mov	r2, r0
   d6636:	4620      	mov	r0, r4
   d6638:	f7ff ffd7 	bl	d65ea <_ZN6String4copyEPKcj>
}
   d663c:	4620      	mov	r0, r4
   d663e:	bd38      	pop	{r3, r4, r5, pc}

000d6640 <_ZN6StringaSERKS_>:
}
#endif

String & String::operator = (const String &rhs)
{
	if (this == &rhs) return *this;
   d6640:	4288      	cmp	r0, r1
	rhs.len = 0;
}
#endif

String & String::operator = (const String &rhs)
{
   d6642:	b510      	push	{r4, lr}
   d6644:	460b      	mov	r3, r1
   d6646:	4604      	mov	r4, r0
	if (this == &rhs) return *this;
   d6648:	d007      	beq.n	d665a <_ZN6StringaSERKS_+0x1a>

	if (rhs.buffer) copy(rhs.buffer, rhs.len);
   d664a:	6809      	ldr	r1, [r1, #0]
   d664c:	b119      	cbz	r1, d6656 <_ZN6StringaSERKS_+0x16>
   d664e:	689a      	ldr	r2, [r3, #8]
   d6650:	f7ff ffcb 	bl	d65ea <_ZN6String4copyEPKcj>
   d6654:	e001      	b.n	d665a <_ZN6StringaSERKS_+0x1a>
	else invalidate();
   d6656:	f7ff ffa0 	bl	d659a <_ZN6String10invalidateEv>

	return *this;
}
   d665a:	4620      	mov	r0, r4
   d665c:	bd10      	pop	{r4, pc}

000d665e <_ZN6StringC1ERKS_>:
{
	init();
	if (cstr) copy(cstr, length);
}

String::String(const String &value)
   d665e:	b510      	push	{r4, lr}
/*  Memory Management                        */
/*********************************************/

inline void String::init(void)
{
	buffer = NULL;
   d6660:	2300      	movs	r3, #0
{
	init();
	if (cstr) copy(cstr, length);
}

String::String(const String &value)
   d6662:	4604      	mov	r4, r0
/*  Memory Management                        */
/*********************************************/

inline void String::init(void)
{
	buffer = NULL;
   d6664:	6003      	str	r3, [r0, #0]
	capacity = 0;
   d6666:	6043      	str	r3, [r0, #4]
	len = 0;
   d6668:	6083      	str	r3, [r0, #8]
	flags = 0;
   d666a:	7303      	strb	r3, [r0, #12]
}

String::String(const String &value)
{
	init();
	*this = value;
   d666c:	f7ff ffe8 	bl	d6640 <_ZN6StringaSERKS_>
}
   d6670:	4620      	mov	r0, r4
   d6672:	bd10      	pop	{r4, pc}

000d6674 <_ZN6StringaSEPKc>:
	return *this;
}
#endif

String & String::operator = (const char *cstr)
{
   d6674:	b538      	push	{r3, r4, r5, lr}
   d6676:	4605      	mov	r5, r0
	if (cstr) copy(cstr, strlen(cstr));
   d6678:	460c      	mov	r4, r1
   d667a:	b141      	cbz	r1, d668e <_ZN6StringaSEPKc+0x1a>
   d667c:	4608      	mov	r0, r1
   d667e:	f004 f9fc 	bl	daa7a <strlen>
   d6682:	4621      	mov	r1, r4
   d6684:	4602      	mov	r2, r0
   d6686:	4628      	mov	r0, r5
   d6688:	f7ff ffaf 	bl	d65ea <_ZN6String4copyEPKcj>
   d668c:	e001      	b.n	d6692 <_ZN6StringaSEPKc+0x1e>
	else invalidate();
   d668e:	f7ff ff84 	bl	d659a <_ZN6String10invalidateEv>

	return *this;
}
   d6692:	4628      	mov	r0, r5
   d6694:	bd38      	pop	{r3, r4, r5, pc}

000d6696 <_ZN6String6concatEPKcj>:
{
	return concat(s.buffer, s.len);
}

unsigned char String::concat(const char *cstr, unsigned int length)
{
   d6696:	b570      	push	{r4, r5, r6, lr}
   d6698:	4604      	mov	r4, r0
	unsigned int newlen = len + length;
	if (!cstr) return 0;
   d669a:	460e      	mov	r6, r1
   d669c:	b909      	cbnz	r1, d66a2 <_ZN6String6concatEPKcj+0xc>
   d669e:	2000      	movs	r0, #0
   d66a0:	bd70      	pop	{r4, r5, r6, pc}
	if (length == 0) return 1;
   d66a2:	b16a      	cbz	r2, d66c0 <_ZN6String6concatEPKcj+0x2a>
	return concat(s.buffer, s.len);
}

unsigned char String::concat(const char *cstr, unsigned int length)
{
	unsigned int newlen = len + length;
   d66a4:	6883      	ldr	r3, [r0, #8]
   d66a6:	18d5      	adds	r5, r2, r3
	if (!cstr) return 0;
	if (length == 0) return 1;
	if (!reserve(newlen)) return 0;
   d66a8:	4629      	mov	r1, r5
   d66aa:	f7ff ff8d 	bl	d65c8 <_ZN6String7reserveEj>
   d66ae:	2800      	cmp	r0, #0
   d66b0:	d0f5      	beq.n	d669e <_ZN6String6concatEPKcj+0x8>
	strcpy(buffer + len, cstr);
   d66b2:	6820      	ldr	r0, [r4, #0]
   d66b4:	68a3      	ldr	r3, [r4, #8]
   d66b6:	4631      	mov	r1, r6
   d66b8:	4418      	add	r0, r3
   d66ba:	f004 f9bb 	bl	daa34 <strcpy>
	len = newlen;
   d66be:	60a5      	str	r5, [r4, #8]

unsigned char String::concat(const char *cstr, unsigned int length)
{
	unsigned int newlen = len + length;
	if (!cstr) return 0;
	if (length == 0) return 1;
   d66c0:	2001      	movs	r0, #1
	if (!reserve(newlen)) return 0;
	strcpy(buffer + len, cstr);
	len = newlen;
	return 1;
}
   d66c2:	bd70      	pop	{r4, r5, r6, pc}

000d66c4 <_ZplRK15StringSumHelperRK6String>:
/*********************************************/
/*  Concatenate                              */
/*********************************************/

StringSumHelper & operator + (const StringSumHelper &lhs, const String &rhs)
{
   d66c4:	b510      	push	{r4, lr}
	StringSumHelper &a = const_cast<StringSumHelper&>(lhs);
	if (!a.concat(rhs.buffer, rhs.len)) a.invalidate();
   d66c6:	688a      	ldr	r2, [r1, #8]
   d66c8:	6809      	ldr	r1, [r1, #0]
/*********************************************/
/*  Concatenate                              */
/*********************************************/

StringSumHelper & operator + (const StringSumHelper &lhs, const String &rhs)
{
   d66ca:	4604      	mov	r4, r0
	StringSumHelper &a = const_cast<StringSumHelper&>(lhs);
	if (!a.concat(rhs.buffer, rhs.len)) a.invalidate();
   d66cc:	f7ff ffe3 	bl	d6696 <_ZN6String6concatEPKcj>
   d66d0:	b910      	cbnz	r0, d66d8 <_ZplRK15StringSumHelperRK6String+0x14>
   d66d2:	4620      	mov	r0, r4
   d66d4:	f7ff ff61 	bl	d659a <_ZN6String10invalidateEv>
	return a;
}
   d66d8:	4620      	mov	r0, r4
   d66da:	bd10      	pop	{r4, pc}

000d66dc <_ZNSt19_Sp_counted_deleterIPN8particle17BlePeerDeviceImplENSt12__shared_ptrIS1_LN9__gnu_cxx12_Lock_policyE0EE8_DeleterISaIS1_EEES8_LS5_0EED1Ev>:

      // __d(__p) must not throw.
      _Sp_counted_deleter(_Ptr __p, _Deleter __d, const _Alloc& __a) noexcept
      : _M_impl(__p, __d, __a) { }

      ~_Sp_counted_deleter() noexcept { }
   d66dc:	4770      	bx	lr

000d66de <_ZNSt19_Sp_counted_deleterIPN8particle17BlePeerDeviceImplENSt12__shared_ptrIS1_LN9__gnu_cxx12_Lock_policyE0EE8_DeleterISaIS1_EEES8_LS5_0EE14_M_get_deleterERKSt9type_info>:
	  ? std::__addressof(_M_impl._M_del())
	  : nullptr;
#else
        return nullptr;
#endif
      }
   d66de:	2000      	movs	r0, #0
   d66e0:	4770      	bx	lr

000d66e2 <_ZNSt19_Sp_counted_deleterIPN8particle14BleServiceImplENSt12__shared_ptrIS1_LN9__gnu_cxx12_Lock_policyE0EE8_DeleterISaIS1_EEES8_LS5_0EED1Ev>:

      // __d(__p) must not throw.
      _Sp_counted_deleter(_Ptr __p, _Deleter __d, const _Alloc& __a) noexcept
      : _M_impl(__p, __d, __a) { }

      ~_Sp_counted_deleter() noexcept { }
   d66e2:	4770      	bx	lr

000d66e4 <_ZNSt19_Sp_counted_deleterIPN8particle14BleServiceImplENSt12__shared_ptrIS1_LN9__gnu_cxx12_Lock_policyE0EE8_DeleterISaIS1_EEES8_LS5_0EE14_M_get_deleterERKSt9type_info>:
	  ? std::__addressof(_M_impl._M_del())
	  : nullptr;
#else
        return nullptr;
#endif
      }
   d66e4:	2000      	movs	r0, #0
   d66e6:	4770      	bx	lr

000d66e8 <_ZNSt19_Sp_counted_deleterIPN8particle21BleCharacteristicImplENSt12__shared_ptrIS1_LN9__gnu_cxx12_Lock_policyE0EE8_DeleterISaIS1_EEES8_LS5_0EED1Ev>:

      // __d(__p) must not throw.
      _Sp_counted_deleter(_Ptr __p, _Deleter __d, const _Alloc& __a) noexcept
      : _M_impl(__p, __d, __a) { }

      ~_Sp_counted_deleter() noexcept { }
   d66e8:	4770      	bx	lr

000d66ea <_ZNSt19_Sp_counted_deleterIPN8particle21BleCharacteristicImplENSt12__shared_ptrIS1_LN9__gnu_cxx12_Lock_policyE0EE8_DeleterISaIS1_EEES8_LS5_0EE14_M_get_deleterERKSt9type_info>:
	  ? std::__addressof(_M_impl._M_del())
	  : nullptr;
#else
        return nullptr;
#endif
      }
   d66ea:	2000      	movs	r0, #0
   d66ec:	4770      	bx	lr

000d66ee <_ZNSt19_Sp_counted_deleterIPN8particle21BleCharacteristicImplENSt12__shared_ptrIS1_LN9__gnu_cxx12_Lock_policyE0EE8_DeleterISaIS1_EEES8_LS5_0EED0Ev>:

      // __d(__p) must not throw.
      _Sp_counted_deleter(_Ptr __p, _Deleter __d, const _Alloc& __a) noexcept
      : _M_impl(__p, __d, __a) { }

      ~_Sp_counted_deleter() noexcept { }
   d66ee:	b510      	push	{r4, lr}
   d66f0:	2114      	movs	r1, #20
   d66f2:	4604      	mov	r4, r0
   d66f4:	f003 ffac 	bl	da650 <_ZdlPvj>
   d66f8:	4620      	mov	r0, r4
   d66fa:	bd10      	pop	{r4, pc}

000d66fc <_ZNSt19_Sp_counted_deleterIPN8particle14BleServiceImplENSt12__shared_ptrIS1_LN9__gnu_cxx12_Lock_policyE0EE8_DeleterISaIS1_EEES8_LS5_0EED0Ev>:
   d66fc:	b510      	push	{r4, lr}
   d66fe:	2114      	movs	r1, #20
   d6700:	4604      	mov	r4, r0
   d6702:	f003 ffa5 	bl	da650 <_ZdlPvj>
   d6706:	4620      	mov	r0, r4
   d6708:	bd10      	pop	{r4, pc}

000d670a <_ZNSt19_Sp_counted_deleterIPN8particle17BlePeerDeviceImplENSt12__shared_ptrIS1_LN9__gnu_cxx12_Lock_policyE0EE8_DeleterISaIS1_EEES8_LS5_0EED0Ev>:
   d670a:	b510      	push	{r4, lr}
   d670c:	2114      	movs	r1, #20
   d670e:	4604      	mov	r4, r0
   d6710:	f003 ff9e 	bl	da650 <_ZdlPvj>
   d6714:	4620      	mov	r0, r4
   d6716:	bd10      	pop	{r4, pc}

000d6718 <_ZNSt19_Sp_counted_deleterIPN8particle21BleCharacteristicImplENSt12__shared_ptrIS1_LN9__gnu_cxx12_Lock_policyE0EE8_DeleterISaIS1_EEES8_LS5_0EE10_M_destroyEv>:
      }

      // __p is not permitted to be a null pointer.
      void
      deallocate(pointer __p, size_type)
      { ::operator delete(__p); }
   d6718:	f7fd bcc1 	b.w	d409e <_ZdlPv>

000d671c <_ZNSt19_Sp_counted_deleterIPN8particle14BleServiceImplENSt12__shared_ptrIS1_LN9__gnu_cxx12_Lock_policyE0EE8_DeleterISaIS1_EEES8_LS5_0EE10_M_destroyEv>:
   d671c:	f7fd bcbf 	b.w	d409e <_ZdlPv>

000d6720 <_ZNSt19_Sp_counted_deleterIPN8particle17BlePeerDeviceImplENSt12__shared_ptrIS1_LN9__gnu_cxx12_Lock_policyE0EE8_DeleterISaIS1_EEES8_LS5_0EE10_M_destroyEv>:
   d6720:	f7fd bcbd 	b.w	d409e <_ZdlPv>

000d6724 <_ZN14RecursiveMutexD1Ev>:
    RecursiveMutex() : handle_(nullptr)
    {
        os_mutex_recursive_create(&handle_);
    }

    ~RecursiveMutex() {
   d6724:	b510      	push	{r4, lr}
   d6726:	4604      	mov	r4, r0
        dispose();
    }

    void dispose()
    {
        if (handle_) {
   d6728:	6800      	ldr	r0, [r0, #0]
   d672a:	b108      	cbz	r0, d6730 <_ZN14RecursiveMutexD1Ev+0xc>
            os_mutex_recursive_destroy(handle_);
   d672c:	f7ff fcda 	bl	d60e4 <os_mutex_recursive_destroy>
        os_mutex_recursive_create(&handle_);
    }

    ~RecursiveMutex() {
        dispose();
    }
   d6730:	4620      	mov	r0, r4
   d6732:	bd10      	pop	{r4, pc}

000d6734 <_ZN8particle21BleDiscoveryDelegator19discoverAllServicesERNS_13BlePeerDeviceE.isra.20>:
        CHECK(discoverAllServices(peer));
        CHECK(discoverAllCharacteristics(peer));
        return SYSTEM_ERROR_NONE;
    }

    int discoverAllServices(BlePeerDevice& peer) {
   d6734:	b530      	push	{r4, r5, lr}
   d6736:	b08b      	sub	sp, #44	; 0x2c
        LOG(TRACE, "Start discovering services.");
   d6738:	2320      	movs	r3, #32
        CHECK(discoverAllServices(peer));
        CHECK(discoverAllCharacteristics(peer));
        return SYSTEM_ERROR_NONE;
    }

    int discoverAllServices(BlePeerDevice& peer) {
   d673a:	4605      	mov	r5, r0
        LOG(TRACE, "Start discovering services.");
   d673c:	2400      	movs	r4, #0
   d673e:	9302      	str	r3, [sp, #8]
   d6740:	4b08      	ldr	r3, [pc, #32]	; (d6764 <_ZN8particle21BleDiscoveryDelegator19discoverAllServicesERNS_13BlePeerDeviceE.isra.20+0x30>)
   d6742:	9300      	str	r3, [sp, #0]
   d6744:	aa02      	add	r2, sp, #8
   d6746:	4623      	mov	r3, r4
   d6748:	4907      	ldr	r1, [pc, #28]	; (d6768 <_ZN8particle21BleDiscoveryDelegator19discoverAllServicesERNS_13BlePeerDeviceE.isra.20+0x34>)
   d674a:	9403      	str	r4, [sp, #12]
   d674c:	2001      	movs	r0, #1
   d674e:	f7ff fdc1 	bl	d62d4 <log_message>
        return hal_ble_gatt_client_discover_all_services(peer.impl()->connHandle(), onServicesDiscovered, &peer, nullptr);
   d6752:	6828      	ldr	r0, [r5, #0]
   d6754:	4905      	ldr	r1, [pc, #20]	; (d676c <_ZN8particle21BleDiscoveryDelegator19discoverAllServicesERNS_13BlePeerDeviceE.isra.20+0x38>)
   d6756:	8800      	ldrh	r0, [r0, #0]
   d6758:	4623      	mov	r3, r4
   d675a:	462a      	mov	r2, r5
   d675c:	f7ff fc66 	bl	d602c <hal_ble_gatt_client_discover_all_services>
    }
   d6760:	b00b      	add	sp, #44	; 0x2c
   d6762:	bd30      	pop	{r4, r5, pc}
   d6764:	000dba6f 	.word	0x000dba6f
   d6768:	000dba64 	.word	0x000dba64
   d676c:	000d7dc5 	.word	0x000d7dc5

000d6770 <_ZN8particle10BleServiceC2ERKNS_7BleUuidE.part.102>:


/*******************************************************
 * BlePeerDevice class
 */
BlePeerDevice::BlePeerDevice()
   d6770:	b508      	push	{r3, lr}
        : impl_(std::make_shared<BlePeerDeviceImpl>()) {
    if (!impl()) {
        SPARK_ASSERT(false);
   d6772:	200a      	movs	r0, #10
   d6774:	4a02      	ldr	r2, [pc, #8]	; (d6780 <_ZN8particle10BleServiceC2ERKNS_7BleUuidE.part.102+0x10>)
   d6776:	2100      	movs	r1, #0
   d6778:	f7ff fda4 	bl	d62c4 <panic_>
    }
}
   d677c:	bd08      	pop	{r3, pc}
   d677e:	bf00      	nop
   d6780:	000d5fc5 	.word	0x000d5fc5

000d6784 <_ZNSt16_Sp_counted_baseILN9__gnu_cxx12_Lock_policyE0EE10_M_releaseEv.part.4.constprop.112>:
    _Sp_counted_base<_S_single>::_M_add_ref_copy()
    { ++_M_use_count; }

  template<>
    inline void
    _Sp_counted_base<_S_single>::_M_release() noexcept
   d6784:	b510      	push	{r4, lr}
    {
      if (--_M_use_count == 0)
        {
          _M_dispose();
   d6786:	6803      	ldr	r3, [r0, #0]
    _Sp_counted_base<_S_single>::_M_add_ref_copy()
    { ++_M_use_count; }

  template<>
    inline void
    _Sp_counted_base<_S_single>::_M_release() noexcept
   d6788:	4604      	mov	r4, r0
    {
      if (--_M_use_count == 0)
        {
          _M_dispose();
   d678a:	689b      	ldr	r3, [r3, #8]
   d678c:	4798      	blx	r3
          if (--_M_weak_count == 0)
   d678e:	68a3      	ldr	r3, [r4, #8]
   d6790:	3b01      	subs	r3, #1
   d6792:	60a3      	str	r3, [r4, #8]
   d6794:	b92b      	cbnz	r3, d67a2 <_ZNSt16_Sp_counted_baseILN9__gnu_cxx12_Lock_policyE0EE10_M_releaseEv.part.4.constprop.112+0x1e>
            _M_destroy();
   d6796:	6823      	ldr	r3, [r4, #0]
   d6798:	4620      	mov	r0, r4
   d679a:	68db      	ldr	r3, [r3, #12]
        }
    }
   d679c:	e8bd 4010 	ldmia.w	sp!, {r4, lr}
    {
      if (--_M_use_count == 0)
        {
          _M_dispose();
          if (--_M_weak_count == 0)
            _M_destroy();
   d67a0:	4718      	bx	r3
   d67a2:	bd10      	pop	{r4, pc}

000d67a4 <_ZL12bytes2hexbufPKhjPc>:
    *p++ = ascii_nibble_lower_case(nibble);
    return p;
}

static inline char* bytes2hexbuf(const uint8_t* buf, unsigned len, char* out)
{
   d67a4:	b570      	push	{r4, r5, r6, lr}
   d67a6:	1c93      	adds	r3, r2, #2
   d67a8:	4401      	add	r1, r0
    unsigned i;
    char* result = out;
    for (i = 0; i < len; ++i)
   d67aa:	4288      	cmp	r0, r1
   d67ac:	d018      	beq.n	d67e0 <_ZL12bytes2hexbufPKhjPc+0x3c>
    {
        out = concat_nibble(out, (buf[i] >> 4));
   d67ae:	7804      	ldrb	r4, [r0, #0]
   d67b0:	0924      	lsrs	r4, r4, #4
 */

#pragma once

static inline char ascii_nibble(uint8_t nibble) {
    char hex_digit = nibble + 48;
   d67b2:	f104 0530 	add.w	r5, r4, #48	; 0x30
    if (57 < hex_digit) {
   d67b6:	2d39      	cmp	r5, #57	; 0x39
        hex_digit += 7;
   d67b8:	bf88      	it	hi
   d67ba:	f104 0537 	addhi.w	r5, r4, #55	; 0x37
   d67be:	4606      	mov	r6, r0
    return hex_digit;
}

static inline char* concat_nibble(char* p, uint8_t nibble)
{
    *p++ = ascii_nibble(nibble);
   d67c0:	f803 5c02 	strb.w	r5, [r3, #-2]
    unsigned i;
    char* result = out;
    for (i = 0; i < len; ++i)
    {
        out = concat_nibble(out, (buf[i] >> 4));
        out = concat_nibble(out, (buf[i] & 0xF));
   d67c4:	7834      	ldrb	r4, [r6, #0]
   d67c6:	f004 040f 	and.w	r4, r4, #15
 */

#pragma once

static inline char ascii_nibble(uint8_t nibble) {
    char hex_digit = nibble + 48;
   d67ca:	f104 0530 	add.w	r5, r4, #48	; 0x30
    if (57 < hex_digit) {
   d67ce:	2d39      	cmp	r5, #57	; 0x39
        hex_digit += 7;
   d67d0:	bf88      	it	hi
   d67d2:	f104 0537 	addhi.w	r5, r4, #55	; 0x37
    return hex_digit;
}

static inline char* concat_nibble(char* p, uint8_t nibble)
{
    *p++ = ascii_nibble(nibble);
   d67d6:	f803 5c01 	strb.w	r5, [r3, #-1]
   d67da:	3001      	adds	r0, #1
   d67dc:	3302      	adds	r3, #2

static inline char* bytes2hexbuf(const uint8_t* buf, unsigned len, char* out)
{
    unsigned i;
    char* result = out;
    for (i = 0; i < len; ++i)
   d67de:	e7e4      	b.n	d67aa <_ZL12bytes2hexbufPKhjPc+0x6>
    {
        out = concat_nibble(out, (buf[i] >> 4));
        out = concat_nibble(out, (buf[i] & 0xF));
    }
    return result;
}
   d67e0:	4610      	mov	r0, r2
   d67e2:	bd70      	pop	{r4, r5, r6, pc}

000d67e4 <_ZN8particle11hexToNibbleEc>:
#include <cstdint>

namespace particle {

inline int hexToNibble(char c) {
    if (c >= '0' && c <= '9') {
   d67e4:	f1a0 0330 	sub.w	r3, r0, #48	; 0x30
   d67e8:	b2da      	uxtb	r2, r3
   d67ea:	2a09      	cmp	r2, #9
   d67ec:	d801      	bhi.n	d67f2 <_ZN8particle11hexToNibbleEc+0xe>
        return (c - '0');
   d67ee:	4618      	mov	r0, r3
   d67f0:	4770      	bx	lr
    } else if (c >= 'a' && c <= 'f') {
   d67f2:	f1a0 0361 	sub.w	r3, r0, #97	; 0x61
   d67f6:	2b05      	cmp	r3, #5
   d67f8:	d801      	bhi.n	d67fe <_ZN8particle11hexToNibbleEc+0x1a>
        return (c - 'a' + 0x0a);
   d67fa:	3857      	subs	r0, #87	; 0x57
   d67fc:	4770      	bx	lr
    } else if (c >= 'A' && c <= 'F') {
   d67fe:	f1a0 0341 	sub.w	r3, r0, #65	; 0x41
   d6802:	2b05      	cmp	r3, #5
        return (c - 'A' + 0x0a);
   d6804:	bf94      	ite	ls
   d6806:	3837      	subls	r0, #55	; 0x37
    }
    return -1;
   d6808:	f04f 30ff 	movhi.w	r0, #4294967295
}
   d680c:	4770      	bx	lr
	...

000d6810 <_ZN8particle3ble13WiringBleLockC1Ev>:

namespace ble {

class WiringBleLock {
public:
    WiringBleLock() :
   d6810:	b510      	push	{r4, lr}
            locked_(false) {
   d6812:	2300      	movs	r3, #0
   d6814:	7003      	strb	r3, [r0, #0]
            os_mutex_recursive_destroy(handle_);
            handle_ = nullptr;
        }
    }

    void lock() { os_mutex_recursive_lock(handle_); }
   d6816:	4b04      	ldr	r3, [pc, #16]	; (d6828 <_ZN8particle3ble13WiringBleLockC1Ev+0x18>)

namespace ble {

class WiringBleLock {
public:
    WiringBleLock() :
   d6818:	4604      	mov	r4, r0
   d681a:	6818      	ldr	r0, [r3, #0]
   d681c:	f7ff fc6a 	bl	d60f4 <os_mutex_recursive_lock>
        lock.locked_ = false;
    }

    void lock() {
        mutex_.lock();
        locked_ = true;
   d6820:	2301      	movs	r3, #1
   d6822:	7023      	strb	r3, [r4, #0]
class WiringBleLock {
public:
    WiringBleLock() :
            locked_(false) {
        lock();
    }
   d6824:	4620      	mov	r0, r4
   d6826:	bd10      	pop	{r4, pc}
   d6828:	2003e3d4 	.word	0x2003e3d4

000d682c <_ZN8particle3ble13WiringBleLockD1Ev>:

    ~WiringBleLock() {
   d682c:	b510      	push	{r4, lr}
        if (locked_) {
   d682e:	7803      	ldrb	r3, [r0, #0]
    WiringBleLock() :
            locked_(false) {
        lock();
    }

    ~WiringBleLock() {
   d6830:	4604      	mov	r4, r0
        if (locked_) {
   d6832:	b11b      	cbz	r3, d683c <_ZN8particle3ble13WiringBleLockD1Ev+0x10>
    bool trylock() { return os_mutex_recursive_trylock(handle_)==0; }
    void unlock() { os_mutex_recursive_unlock(handle_); }
   d6834:	4b02      	ldr	r3, [pc, #8]	; (d6840 <_ZN8particle3ble13WiringBleLockD1Ev+0x14>)
   d6836:	6818      	ldr	r0, [r3, #0]
   d6838:	f7ff fc64 	bl	d6104 <os_mutex_recursive_unlock>
            unlock();
        }
    }
   d683c:	4620      	mov	r0, r4
   d683e:	bd10      	pop	{r4, pc}
   d6840:	2003e3d4 	.word	0x2003e3d4

000d6844 <_ZN8particle10BleAddressC1Ev>:

/*******************************************************
 * BleAddress class
 */
BleAddress::BleAddress()
        : address_{} {
   d6844:	2200      	movs	r2, #0
   d6846:	6002      	str	r2, [r0, #0]
   d6848:	6042      	str	r2, [r0, #4]
    address_.addr_type = BLE_SIG_ADDR_TYPE_PUBLIC;
}
   d684a:	4770      	bx	lr

000d684c <_ZNK8particle10BleAddresseqERKS0_>:
BleAddress& BleAddress::operator=(const uint8_t addr[BLE_SIG_ADDR_LEN]) {
    memcpy(address_.addr, addr, BLE_SIG_ADDR_LEN);
    return *this;
}

bool BleAddress::operator==(const BleAddress& addr) const {
   d684c:	b508      	push	{r3, lr}
    if (address_.addr_type == addr.address_.addr_type && !memcmp(address_.addr, addr.address_.addr, BLE_SIG_ADDR_LEN)) {
   d684e:	7982      	ldrb	r2, [r0, #6]
   d6850:	798b      	ldrb	r3, [r1, #6]
   d6852:	429a      	cmp	r2, r3
   d6854:	d106      	bne.n	d6864 <_ZNK8particle10BleAddresseqERKS0_+0x18>
   d6856:	2206      	movs	r2, #6
   d6858:	f004 f864 	bl	da924 <memcmp>
   d685c:	fab0 f080 	clz	r0, r0
   d6860:	0940      	lsrs	r0, r0, #5
   d6862:	bd08      	pop	{r3, pc}
        return true;
    }
    return false;
   d6864:	2000      	movs	r0, #0
}
   d6866:	bd08      	pop	{r3, pc}

000d6868 <_ZNK8particle10BleAddress11toBigEndianEPh>:

void BleAddress::toBigEndian(uint8_t buf[BLE_SIG_ADDR_LEN]) const {
   d6868:	3901      	subs	r1, #1
    for (uint8_t i = 0, j = BLE_SIG_ADDR_LEN - 1; i < BLE_SIG_ADDR_LEN; i++, j--) {
   d686a:	2305      	movs	r3, #5
        buf[i] = address_.addr[j];
   d686c:	5cc2      	ldrb	r2, [r0, r3]
   d686e:	f801 2f01 	strb.w	r2, [r1, #1]!
    }
    return false;
}

void BleAddress::toBigEndian(uint8_t buf[BLE_SIG_ADDR_LEN]) const {
    for (uint8_t i = 0, j = BLE_SIG_ADDR_LEN - 1; i < BLE_SIG_ADDR_LEN; i++, j--) {
   d6872:	3b01      	subs	r3, #1
   d6874:	b2db      	uxtb	r3, r3
   d6876:	2bff      	cmp	r3, #255	; 0xff
   d6878:	d1f8      	bne.n	d686c <_ZNK8particle10BleAddress11toBigEndianEPh+0x4>
        buf[i] = address_.addr[j];
    }
}
   d687a:	4770      	bx	lr

000d687c <_ZNK8particle10BleAddress8toStringEPcjb>:
    char cStr[BLE_SIG_ADDR_LEN * 2 + 6];
    toString(cStr, sizeof(cStr), stripped);
    return String(cStr);
}

size_t BleAddress::toString(char* buf, size_t len, bool stripped) const {
   d687c:	b570      	push	{r4, r5, r6, lr}
   d687e:	4614      	mov	r4, r2
   d6880:	b088      	sub	sp, #32
   d6882:	461d      	mov	r5, r3
    if (!buf || len == 0) {
   d6884:	460e      	mov	r6, r1
   d6886:	2900      	cmp	r1, #0
   d6888:	d046      	beq.n	d6918 <_ZNK8particle10BleAddress8toStringEPcjb+0x9c>
   d688a:	2a00      	cmp	r2, #0
   d688c:	d046      	beq.n	d691c <_ZNK8particle10BleAddress8toStringEPcjb+0xa0>
        return 0;
    }
    uint8_t temp[BLE_SIG_ADDR_LEN];
    char cStr[BLE_SIG_ADDR_LEN * 2 + 5];
    toBigEndian(temp);
   d688e:	a901      	add	r1, sp, #4
   d6890:	f7ff ffea 	bl	d6868 <_ZNK8particle10BleAddress11toBigEndianEPh>
    if (stripped) {
        bytes2hexbuf(temp, BLE_SIG_ADDR_LEN, cStr);
   d6894:	aa03      	add	r2, sp, #12
        return 0;
    }
    uint8_t temp[BLE_SIG_ADDR_LEN];
    char cStr[BLE_SIG_ADDR_LEN * 2 + 5];
    toBigEndian(temp);
    if (stripped) {
   d6896:	b115      	cbz	r5, d689e <_ZNK8particle10BleAddress8toStringEPcjb+0x22>
        bytes2hexbuf(temp, BLE_SIG_ADDR_LEN, cStr);
   d6898:	2106      	movs	r1, #6
   d689a:	a801      	add	r0, sp, #4
   d689c:	e02d      	b.n	d68fa <_ZNK8particle10BleAddress8toStringEPcjb+0x7e>
    } else {
        uint8_t idx = 0;
        bytes2hexbuf(&temp[idx], 1, &cStr[idx]);
   d689e:	2101      	movs	r1, #1
   d68a0:	a801      	add	r0, sp, #4
   d68a2:	f7ff ff7f 	bl	d67a4 <_ZL12bytes2hexbufPKhjPc>
        idx++;
        cStr[idx * 2] = ':';
   d68a6:	253a      	movs	r5, #58	; 0x3a
        bytes2hexbuf(&temp[idx], 1, &cStr[idx * 2 + 1]);
   d68a8:	f10d 020f 	add.w	r2, sp, #15
   d68ac:	2101      	movs	r1, #1
   d68ae:	f10d 0005 	add.w	r0, sp, #5
        bytes2hexbuf(temp, BLE_SIG_ADDR_LEN, cStr);
    } else {
        uint8_t idx = 0;
        bytes2hexbuf(&temp[idx], 1, &cStr[idx]);
        idx++;
        cStr[idx * 2] = ':';
   d68b2:	f88d 500e 	strb.w	r5, [sp, #14]
        bytes2hexbuf(&temp[idx], 1, &cStr[idx * 2 + 1]);
   d68b6:	f7ff ff75 	bl	d67a4 <_ZL12bytes2hexbufPKhjPc>
        idx++;
        cStr[idx * 2 + 1] = ':';
        bytes2hexbuf(&temp[idx], 1, &cStr[idx * 2 + 2]);
   d68ba:	f10d 0212 	add.w	r2, sp, #18
   d68be:	2101      	movs	r1, #1
   d68c0:	f10d 0006 	add.w	r0, sp, #6
        bytes2hexbuf(&temp[idx], 1, &cStr[idx]);
        idx++;
        cStr[idx * 2] = ':';
        bytes2hexbuf(&temp[idx], 1, &cStr[idx * 2 + 1]);
        idx++;
        cStr[idx * 2 + 1] = ':';
   d68c4:	f88d 5011 	strb.w	r5, [sp, #17]
        bytes2hexbuf(&temp[idx], 1, &cStr[idx * 2 + 2]);
   d68c8:	f7ff ff6c 	bl	d67a4 <_ZL12bytes2hexbufPKhjPc>
        idx++;
        cStr[idx * 2 + 2] = ':';
        bytes2hexbuf(&temp[idx], 1, &cStr[idx * 2 + 3]);
   d68cc:	f10d 0215 	add.w	r2, sp, #21
   d68d0:	2101      	movs	r1, #1
   d68d2:	f10d 0007 	add.w	r0, sp, #7
        bytes2hexbuf(&temp[idx], 1, &cStr[idx * 2 + 1]);
        idx++;
        cStr[idx * 2 + 1] = ':';
        bytes2hexbuf(&temp[idx], 1, &cStr[idx * 2 + 2]);
        idx++;
        cStr[idx * 2 + 2] = ':';
   d68d6:	f88d 5014 	strb.w	r5, [sp, #20]
        bytes2hexbuf(&temp[idx], 1, &cStr[idx * 2 + 3]);
   d68da:	f7ff ff63 	bl	d67a4 <_ZL12bytes2hexbufPKhjPc>
        idx++;
        cStr[idx * 2 + 3] = ':';
        bytes2hexbuf(&temp[idx], 1, &cStr[idx * 2 + 4]);
   d68de:	aa06      	add	r2, sp, #24
   d68e0:	2101      	movs	r1, #1
   d68e2:	a802      	add	r0, sp, #8
        bytes2hexbuf(&temp[idx], 1, &cStr[idx * 2 + 2]);
        idx++;
        cStr[idx * 2 + 2] = ':';
        bytes2hexbuf(&temp[idx], 1, &cStr[idx * 2 + 3]);
        idx++;
        cStr[idx * 2 + 3] = ':';
   d68e4:	f88d 5017 	strb.w	r5, [sp, #23]
        bytes2hexbuf(&temp[idx], 1, &cStr[idx * 2 + 4]);
   d68e8:	f7ff ff5c 	bl	d67a4 <_ZL12bytes2hexbufPKhjPc>
        idx++;
        cStr[idx * 2 + 4] = ':';
   d68ec:	f88d 501a 	strb.w	r5, [sp, #26]
        bytes2hexbuf(&temp[idx], 1, &cStr[idx * 2 + 5]);
   d68f0:	f10d 021b 	add.w	r2, sp, #27
   d68f4:	2101      	movs	r1, #1
   d68f6:	f10d 0009 	add.w	r0, sp, #9
   d68fa:	3c01      	subs	r4, #1
   d68fc:	f7ff ff52 	bl	d67a4 <_ZL12bytes2hexbufPKhjPc>
   d6900:	2c11      	cmp	r4, #17
   d6902:	bf28      	it	cs
   d6904:	2411      	movcs	r4, #17
    }
    len = std::min(len - 1, sizeof(cStr));
    memcpy(buf, cStr, len);
   d6906:	4622      	mov	r2, r4
   d6908:	a903      	add	r1, sp, #12
   d690a:	4630      	mov	r0, r6
   d690c:	f004 f819 	bl	da942 <memcpy>
    buf[len++] = '\0';
   d6910:	2300      	movs	r3, #0
   d6912:	5533      	strb	r3, [r6, r4]
   d6914:	1c60      	adds	r0, r4, #1
   d6916:	e002      	b.n	d691e <_ZNK8particle10BleAddress8toStringEPcjb+0xa2>
    return String(cStr);
}

size_t BleAddress::toString(char* buf, size_t len, bool stripped) const {
    if (!buf || len == 0) {
        return 0;
   d6918:	4608      	mov	r0, r1
   d691a:	e000      	b.n	d691e <_ZNK8particle10BleAddress8toStringEPcjb+0xa2>
   d691c:	4610      	mov	r0, r2
    }
    len = std::min(len - 1, sizeof(cStr));
    memcpy(buf, cStr, len);
    buf[len++] = '\0';
    return len;
}
   d691e:	b008      	add	sp, #32
   d6920:	bd70      	pop	{r4, r5, r6, pc}

000d6922 <_ZNK8particle10BleAddress8toStringEb>:

hal_ble_addr_t BleAddress::halAddress() const {
    return address_;
}

String BleAddress::toString(bool stripped) const {
   d6922:	b510      	push	{r4, lr}
   d6924:	b086      	sub	sp, #24
   d6926:	4604      	mov	r4, r0
    char cStr[BLE_SIG_ADDR_LEN * 2 + 6];
    toString(cStr, sizeof(cStr), stripped);
   d6928:	4613      	mov	r3, r2

hal_ble_addr_t BleAddress::halAddress() const {
    return address_;
}

String BleAddress::toString(bool stripped) const {
   d692a:	4608      	mov	r0, r1
    char cStr[BLE_SIG_ADDR_LEN * 2 + 6];
    toString(cStr, sizeof(cStr), stripped);
   d692c:	2212      	movs	r2, #18
   d692e:	a901      	add	r1, sp, #4
   d6930:	f7ff ffa4 	bl	d687c <_ZNK8particle10BleAddress8toStringEPcjb>
    return String(cStr);
   d6934:	a901      	add	r1, sp, #4
   d6936:	4620      	mov	r0, r4
   d6938:	f7ff fe6f 	bl	d661a <_ZN6StringC1EPK19__FlashStringHelper>
}
   d693c:	4620      	mov	r0, r4
   d693e:	b006      	add	sp, #24
   d6940:	bd10      	pop	{r4, pc}
	...

000d6944 <_ZN8particle7BleUuidC1Ev>:


/*******************************************************
 * BleUuid class
 */
BleUuid::BleUuid()
   d6944:	b510      	push	{r4, lr}
        : type_(BleUuidType::LONG) {
   d6946:	2301      	movs	r3, #1
   d6948:	6103      	str	r3, [r0, #16]
    memcpy(uuid128_, BASE_UUID, BLE_SIG_UUID_128BIT_LEN);
   d694a:	4b05      	ldr	r3, [pc, #20]	; (d6960 <_ZN8particle7BleUuidC1Ev+0x1c>)
   d694c:	4602      	mov	r2, r0
   d694e:	f103 0110 	add.w	r1, r3, #16
   d6952:	f853 4b04 	ldr.w	r4, [r3], #4
   d6956:	f842 4b04 	str.w	r4, [r2], #4
   d695a:	428b      	cmp	r3, r1
   d695c:	d1f9      	bne.n	d6952 <_ZN8particle7BleUuidC1Ev+0xe>
}
   d695e:	bd10      	pop	{r4, pc}
   d6960:	000dbc04 	.word	0x000dbc04

000d6964 <_ZN8particle7BleUuidC1ERK14hal_ble_uuid_t>:

BleUuid::BleUuid(const hal_ble_uuid_t& uuid) {
    if (uuid.type == BLE_UUID_TYPE_16BIT || uuid.type == BLE_UUID_TYPE_128BIT_SHORTED) {
   d6964:	7c0b      	ldrb	r3, [r1, #16]
   d6966:	f013 03fd 	ands.w	r3, r3, #253	; 0xfd
BleUuid::BleUuid()
        : type_(BleUuidType::LONG) {
    memcpy(uuid128_, BASE_UUID, BLE_SIG_UUID_128BIT_LEN);
}

BleUuid::BleUuid(const hal_ble_uuid_t& uuid) {
   d696a:	b530      	push	{r4, r5, lr}
    if (uuid.type == BLE_UUID_TYPE_16BIT || uuid.type == BLE_UUID_TYPE_128BIT_SHORTED) {
   d696c:	d110      	bne.n	d6990 <_ZN8particle7BleUuidC1ERK14hal_ble_uuid_t+0x2c>
        type_ = BleUuidType::SHORT;
   d696e:	6103      	str	r3, [r0, #16]
        memcpy(uuid128_, BASE_UUID, BLE_SIG_UUID_128BIT_LEN);
   d6970:	4b0d      	ldr	r3, [pc, #52]	; (d69a8 <_ZN8particle7BleUuidC1ERK14hal_ble_uuid_t+0x44>)
   d6972:	4602      	mov	r2, r0
   d6974:	f103 0410 	add.w	r4, r3, #16
   d6978:	f853 5b04 	ldr.w	r5, [r3], #4
   d697c:	f842 5b04 	str.w	r5, [r2], #4
   d6980:	42a3      	cmp	r3, r4
   d6982:	d1f9      	bne.n	d6978 <_ZN8particle7BleUuidC1ERK14hal_ble_uuid_t+0x14>
        uuid128_[UUID16_LO] = (uint8_t)uuid.uuid16;
   d6984:	880b      	ldrh	r3, [r1, #0]
   d6986:	7303      	strb	r3, [r0, #12]
        uuid128_[UUID16_HI] = (uint8_t)(uuid.uuid16 >> 8);
   d6988:	880b      	ldrh	r3, [r1, #0]
   d698a:	121b      	asrs	r3, r3, #8
   d698c:	7343      	strb	r3, [r0, #13]
   d698e:	bd30      	pop	{r4, r5, pc}
    } else {
        type_ = BleUuidType::LONG;
   d6990:	2301      	movs	r3, #1
   d6992:	6103      	str	r3, [r0, #16]
        memcpy(uuid128_, uuid.uuid128, BLE_SIG_UUID_128BIT_LEN);
   d6994:	f101 0210 	add.w	r2, r1, #16
   d6998:	4603      	mov	r3, r0
   d699a:	f851 4b04 	ldr.w	r4, [r1], #4
   d699e:	f843 4b04 	str.w	r4, [r3], #4
   d69a2:	4291      	cmp	r1, r2
   d69a4:	d1f9      	bne.n	d699a <_ZN8particle7BleUuidC1ERK14hal_ble_uuid_t+0x36>
    }
}
   d69a6:	bd30      	pop	{r4, r5, pc}
   d69a8:	000dbc04 	.word	0x000dbc04

000d69ac <_ZN8particle7BleUuidC1ERKS0_>:

BleUuid::BleUuid(const BleUuid& uuid)
   d69ac:	b510      	push	{r4, lr}
        : type_(uuid.type_) {
   d69ae:	690b      	ldr	r3, [r1, #16]
   d69b0:	6103      	str	r3, [r0, #16]
    memcpy(uuid128_, uuid.uuid128_, BLE_SIG_UUID_128BIT_LEN);
   d69b2:	f101 0210 	add.w	r2, r1, #16
   d69b6:	4603      	mov	r3, r0
   d69b8:	f851 4b04 	ldr.w	r4, [r1], #4
   d69bc:	f843 4b04 	str.w	r4, [r3], #4
   d69c0:	4291      	cmp	r1, r2
   d69c2:	d1f9      	bne.n	d69b8 <_ZN8particle7BleUuidC1ERKS0_+0xc>
}
   d69c4:	bd10      	pop	{r4, pc}

000d69c6 <_ZN8particle7BleUuidC1EPKhNS_12BleUuidOrderE>:

BleUuid::BleUuid(const uint8_t* uuid128, BleUuidOrder order) {
   d69c6:	b510      	push	{r4, lr}
    if (uuid128) {
   d69c8:	460b      	mov	r3, r1
BleUuid::BleUuid(const BleUuid& uuid)
        : type_(uuid.type_) {
    memcpy(uuid128_, uuid.uuid128_, BLE_SIG_UUID_128BIT_LEN);
}

BleUuid::BleUuid(const uint8_t* uuid128, BleUuidOrder order) {
   d69ca:	4604      	mov	r4, r0
    if (uuid128) {
   d69cc:	b1b9      	cbz	r1, d69fe <_ZN8particle7BleUuidC1EPKhNS_12BleUuidOrderE+0x38>
        if (order == BleUuidOrder::LSB) {
   d69ce:	2a01      	cmp	r2, #1
   d69d0:	d109      	bne.n	d69e6 <_ZN8particle7BleUuidC1EPKhNS_12BleUuidOrderE+0x20>
            memcpy(uuid128_, uuid128, BLE_SIG_UUID_128BIT_LEN);
   d69d2:	4603      	mov	r3, r0
   d69d4:	f101 0210 	add.w	r2, r1, #16
   d69d8:	f851 0b04 	ldr.w	r0, [r1], #4
   d69dc:	f843 0b04 	str.w	r0, [r3], #4
   d69e0:	4291      	cmp	r1, r2
   d69e2:	d1f9      	bne.n	d69d8 <_ZN8particle7BleUuidC1EPKhNS_12BleUuidOrderE+0x12>
   d69e4:	e008      	b.n	d69f8 <_ZN8particle7BleUuidC1EPKhNS_12BleUuidOrderE+0x32>
   d69e6:	1e41      	subs	r1, r0, #1
    memcpy(uuid128_, uuid.uuid128_, BLE_SIG_UUID_128BIT_LEN);
}

BleUuid::BleUuid(const uint8_t* uuid128, BleUuidOrder order) {
    if (uuid128) {
        if (order == BleUuidOrder::LSB) {
   d69e8:	220f      	movs	r2, #15
            memcpy(uuid128_, uuid128, BLE_SIG_UUID_128BIT_LEN);
        } else {
            for (uint8_t i = 0, j = BLE_SIG_UUID_128BIT_LEN - 1; i < BLE_SIG_UUID_128BIT_LEN; i++, j--) {
                uuid128_[i] = uuid128[j];
   d69ea:	5c98      	ldrb	r0, [r3, r2]
   d69ec:	f801 0f01 	strb.w	r0, [r1, #1]!
BleUuid::BleUuid(const uint8_t* uuid128, BleUuidOrder order) {
    if (uuid128) {
        if (order == BleUuidOrder::LSB) {
            memcpy(uuid128_, uuid128, BLE_SIG_UUID_128BIT_LEN);
        } else {
            for (uint8_t i = 0, j = BLE_SIG_UUID_128BIT_LEN - 1; i < BLE_SIG_UUID_128BIT_LEN; i++, j--) {
   d69f0:	3a01      	subs	r2, #1
   d69f2:	b2d2      	uxtb	r2, r2
   d69f4:	2aff      	cmp	r2, #255	; 0xff
   d69f6:	d1f8      	bne.n	d69ea <_ZN8particle7BleUuidC1EPKhNS_12BleUuidOrderE+0x24>
                uuid128_[i] = uuid128[j];
            }
        }
        type_ = BleUuidType::LONG;
   d69f8:	2301      	movs	r3, #1
   d69fa:	6123      	str	r3, [r4, #16]
   d69fc:	e002      	b.n	d6a04 <_ZN8particle7BleUuidC1EPKhNS_12BleUuidOrderE+0x3e>
    } else {
        memset(uuid128_, 0x00, BLE_SIG_UUID_128BIT_LEN);
   d69fe:	2210      	movs	r2, #16
   d6a00:	f003 ffc5 	bl	da98e <memset>
    }
}
   d6a04:	4620      	mov	r0, r4
   d6a06:	bd10      	pop	{r4, pc}

000d6a08 <_ZN8particle7BleUuidC1Et>:

BleUuid::BleUuid(uint16_t uuid16)
   d6a08:	b538      	push	{r3, r4, r5, lr}
   d6a0a:	4604      	mov	r4, r0
   d6a0c:	460d      	mov	r5, r1
        : BleUuid() {
   d6a0e:	f7ff ff99 	bl	d6944 <_ZN8particle7BleUuidC1Ev>
    type_ = BleUuidType::SHORT;
   d6a12:	2300      	movs	r3, #0
    uuid128_[UUID16_LO] = (uint8_t)(uuid16 & 0x00FF);
   d6a14:	7325      	strb	r5, [r4, #12]
    uuid128_[UUID16_HI] = (uint8_t)((uuid16 >> 8) & 0x00FF);
   d6a16:	0a2d      	lsrs	r5, r5, #8
    }
}

BleUuid::BleUuid(uint16_t uuid16)
        : BleUuid() {
    type_ = BleUuidType::SHORT;
   d6a18:	6123      	str	r3, [r4, #16]
    uuid128_[UUID16_LO] = (uint8_t)(uuid16 & 0x00FF);
    uuid128_[UUID16_HI] = (uint8_t)((uuid16 >> 8) & 0x00FF);
   d6a1a:	7365      	strb	r5, [r4, #13]
}
   d6a1c:	4620      	mov	r0, r4
   d6a1e:	bd38      	pop	{r3, r4, r5, pc}

000d6a20 <_ZN8particle7BleUuidaSERKS0_>:
    memcpy(buf, cStr, len);
    buf[len++] = '\0';
    return len;
}

BleUuid& BleUuid::operator=(const BleUuid& uuid) {
   d6a20:	b510      	push	{r4, lr}
    type_ = uuid.type_;
   d6a22:	690b      	ldr	r3, [r1, #16]
   d6a24:	6103      	str	r3, [r0, #16]
    memcpy(uuid128_, uuid.uuid128_, BLE_SIG_UUID_128BIT_LEN);
   d6a26:	f101 0210 	add.w	r2, r1, #16
   d6a2a:	4603      	mov	r3, r0
   d6a2c:	f851 4b04 	ldr.w	r4, [r1], #4
   d6a30:	f843 4b04 	str.w	r4, [r3], #4
   d6a34:	4291      	cmp	r1, r2
   d6a36:	d1f9      	bne.n	d6a2c <_ZN8particle7BleUuidaSERKS0_+0xc>
    return *this;
}
   d6a38:	bd10      	pop	{r4, pc}

000d6a3a <_ZN8particle7BleUuidaSEPKh>:

BleUuid& BleUuid::operator=(const uint8_t* uuid128) {
   d6a3a:	b510      	push	{r4, lr}
   d6a3c:	b086      	sub	sp, #24
   d6a3e:	4604      	mov	r4, r0
    return *this = BleUuid(uuid128);
   d6a40:	2201      	movs	r2, #1
   d6a42:	a801      	add	r0, sp, #4
   d6a44:	f7ff ffbf 	bl	d69c6 <_ZN8particle7BleUuidC1EPKhNS_12BleUuidOrderE>
   d6a48:	a901      	add	r1, sp, #4
   d6a4a:	4620      	mov	r0, r4
   d6a4c:	f7ff ffe8 	bl	d6a20 <_ZN8particle7BleUuidaSERKS0_>
}
   d6a50:	b006      	add	sp, #24
   d6a52:	bd10      	pop	{r4, pc}

000d6a54 <_ZN8particle7BleUuidaSEt>:

BleUuid& BleUuid::operator=(uint16_t uuid16) {
   d6a54:	b510      	push	{r4, lr}
   d6a56:	b086      	sub	sp, #24
   d6a58:	4604      	mov	r4, r0
    return *this = BleUuid(uuid16);
   d6a5a:	a801      	add	r0, sp, #4
   d6a5c:	f7ff ffd4 	bl	d6a08 <_ZN8particle7BleUuidC1Et>
   d6a60:	a901      	add	r1, sp, #4
   d6a62:	4620      	mov	r0, r4
   d6a64:	f7ff ffdc 	bl	d6a20 <_ZN8particle7BleUuidaSERKS0_>
}
   d6a68:	b006      	add	sp, #24
   d6a6a:	bd10      	pop	{r4, pc}

000d6a6c <_ZN8particle7BleUuidaSERK14hal_ble_uuid_t>:
BleUuid& BleUuid::operator=(const char* uuid) {
    construct(uuid);
    return *this;
}

BleUuid& BleUuid::operator=(const hal_ble_uuid_t& uuid) {
   d6a6c:	b510      	push	{r4, lr}
   d6a6e:	b086      	sub	sp, #24
   d6a70:	4604      	mov	r4, r0
    return *this = BleUuid(uuid);
   d6a72:	a801      	add	r0, sp, #4
   d6a74:	f7ff ff76 	bl	d6964 <_ZN8particle7BleUuidC1ERK14hal_ble_uuid_t>
   d6a78:	a901      	add	r1, sp, #4
   d6a7a:	4620      	mov	r0, r4
   d6a7c:	f7ff ffd0 	bl	d6a20 <_ZN8particle7BleUuidaSERKS0_>
}
   d6a80:	b006      	add	sp, #24
   d6a82:	bd10      	pop	{r4, pc}

000d6a84 <_ZNK8particle7BleUuideqERKS0_>:

bool BleUuid::operator==(const BleUuid& uuid) const {
   d6a84:	b508      	push	{r3, lr}
    return ((type_ == uuid.type_) && !memcmp(uuid128_, uuid.uuid128_, BLE_SIG_UUID_128BIT_LEN));
   d6a86:	6902      	ldr	r2, [r0, #16]
   d6a88:	690b      	ldr	r3, [r1, #16]
   d6a8a:	429a      	cmp	r2, r3
   d6a8c:	d106      	bne.n	d6a9c <_ZNK8particle7BleUuideqERKS0_+0x18>
   d6a8e:	2210      	movs	r2, #16
   d6a90:	f003 ff48 	bl	da924 <memcmp>
   d6a94:	fab0 f080 	clz	r0, r0
   d6a98:	0940      	lsrs	r0, r0, #5
   d6a9a:	bd08      	pop	{r3, pc}
   d6a9c:	2000      	movs	r0, #0
}
   d6a9e:	bd08      	pop	{r3, pc}

000d6aa0 <_ZN8particle7BleUuid9constructEPKc>:
    BleUuid temp(uuid128);
    return *this == temp;
}

void BleUuid::construct(const char* uuid) {
    type_ = BleUuidType::LONG;
   d6aa0:	2301      	movs	r3, #1
bool BleUuid::operator==(const uint8_t* uuid128) const {
    BleUuid temp(uuid128);
    return *this == temp;
}

void BleUuid::construct(const char* uuid) {
   d6aa2:	b5f7      	push	{r0, r1, r2, r4, r5, r6, r7, lr}
    type_ = BleUuidType::LONG;
   d6aa4:	6103      	str	r3, [r0, #16]
    memcpy(uuid128_, BASE_UUID, BLE_SIG_UUID_128BIT_LEN);
   d6aa6:	4b31      	ldr	r3, [pc, #196]	; (d6b6c <_ZN8particle7BleUuid9constructEPKc+0xcc>)
bool BleUuid::operator==(const uint8_t* uuid128) const {
    BleUuid temp(uuid128);
    return *this == temp;
}

void BleUuid::construct(const char* uuid) {
   d6aa8:	460e      	mov	r6, r1
   d6aaa:	4605      	mov	r5, r0
    type_ = BleUuidType::LONG;
    memcpy(uuid128_, BASE_UUID, BLE_SIG_UUID_128BIT_LEN);
   d6aac:	4602      	mov	r2, r0
   d6aae:	f103 0110 	add.w	r1, r3, #16
   d6ab2:	f853 0b04 	ldr.w	r0, [r3], #4
   d6ab6:	f842 0b04 	str.w	r0, [r2], #4
   d6aba:	428b      	cmp	r3, r1
   d6abc:	d1f9      	bne.n	d6ab2 <_ZN8particle7BleUuid9constructEPKc+0x12>
    if (uuid == nullptr) {
   d6abe:	2e00      	cmp	r6, #0
   d6ac0:	d051      	beq.n	d6b66 <_ZN8particle7BleUuid9constructEPKc+0xc6>
        return;
    }
    if (strnlen(uuid, BLE_SIG_UUID_128BIT_LEN * 2 + 4) == (BLE_SIG_UUID_16BIT_LEN * 2)) {
   d6ac2:	2124      	movs	r1, #36	; 0x24
   d6ac4:	4630      	mov	r0, r6
   d6ac6:	f003 fff5 	bl	daab4 <strnlen>
   d6aca:	2804      	cmp	r0, #4
   d6acc:	d010      	beq.n	d6af0 <_ZN8particle7BleUuid9constructEPKc+0x50>
   d6ace:	2700      	movs	r7, #0
   d6ad0:	2410      	movs	r4, #16
        }
        type_ = BleUuidType::SHORT;
        return;
    }
    size_t len = BLE_SIG_UUID_128BIT_LEN;
    for (size_t i = 0; i < strnlen(uuid, BLE_SIG_UUID_128BIT_LEN * 2 + 4) && len > 0; i++) {
   d6ad2:	2124      	movs	r1, #36	; 0x24
   d6ad4:	4630      	mov	r0, r6
   d6ad6:	f003 ffed 	bl	daab4 <strnlen>
   d6ada:	42b8      	cmp	r0, r7
   d6adc:	d901      	bls.n	d6ae2 <_ZN8particle7BleUuid9constructEPKc+0x42>
   d6ade:	bb44      	cbnz	r4, d6b32 <_ZN8particle7BleUuid9constructEPKc+0x92>
   d6ae0:	e041      	b.n	d6b66 <_ZN8particle7BleUuid9constructEPKc+0xc6>
   d6ae2:	442c      	add	r4, r5
            }
            len--;
        }
    }
    while (len > 0) {
        uuid128_[len - 1] = 0x00;
   d6ae4:	2300      	movs	r3, #0
                }
            }
            len--;
        }
    }
    while (len > 0) {
   d6ae6:	42a5      	cmp	r5, r4
   d6ae8:	d03d      	beq.n	d6b66 <_ZN8particle7BleUuid9constructEPKc+0xc6>
        uuid128_[len - 1] = 0x00;
   d6aea:	f804 3d01 	strb.w	r3, [r4, #-1]!
   d6aee:	e7fa      	b.n	d6ae6 <_ZN8particle7BleUuid9constructEPKc+0x46>

inline size_t hexToBytes(const char* src, char* dest, size_t size) {
    size_t n = 0;
    while (n < size) {
        const int h = hexToNibble(*src++);
   d6af0:	7830      	ldrb	r0, [r6, #0]
   d6af2:	f7ff fe77 	bl	d67e4 <_ZN8particle11hexToNibbleEc>
        if (h < 0) {
   d6af6:	1e04      	subs	r4, r0, #0
   d6af8:	db18      	blt.n	d6b2c <_ZN8particle7BleUuid9constructEPKc+0x8c>
            break;
        }
        const int l = hexToNibble(*src++);
   d6afa:	7870      	ldrb	r0, [r6, #1]
   d6afc:	f7ff fe72 	bl	d67e4 <_ZN8particle11hexToNibbleEc>
        if (l < 0) {
   d6b00:	2800      	cmp	r0, #0
   d6b02:	db13      	blt.n	d6b2c <_ZN8particle7BleUuid9constructEPKc+0x8c>
            break;
        }
        *dest++ = ((unsigned)h << 4) | (unsigned)l;
   d6b04:	ea40 1004 	orr.w	r0, r0, r4, lsl #4
   d6b08:	f88d 0004 	strb.w	r0, [sp, #4]
}

inline size_t hexToBytes(const char* src, char* dest, size_t size) {
    size_t n = 0;
    while (n < size) {
        const int h = hexToNibble(*src++);
   d6b0c:	78b0      	ldrb	r0, [r6, #2]
   d6b0e:	f7ff fe69 	bl	d67e4 <_ZN8particle11hexToNibbleEc>
        if (h < 0) {
   d6b12:	1e04      	subs	r4, r0, #0
   d6b14:	db0a      	blt.n	d6b2c <_ZN8particle7BleUuid9constructEPKc+0x8c>
            break;
        }
        const int l = hexToNibble(*src++);
   d6b16:	78f0      	ldrb	r0, [r6, #3]
   d6b18:	f7ff fe64 	bl	d67e4 <_ZN8particle11hexToNibbleEc>
        if (l < 0) {
   d6b1c:	2800      	cmp	r0, #0
            break;
        }
        *dest++ = ((unsigned)h << 4) | (unsigned)l;
   d6b1e:	bfa1      	itttt	ge
   d6b20:	ea40 1004 	orrge.w	r0, r0, r4, lsl #4
    }
    if (strnlen(uuid, BLE_SIG_UUID_128BIT_LEN * 2 + 4) == (BLE_SIG_UUID_16BIT_LEN * 2)) {
        char buf[2] = {};
        if (hexToBytes(uuid, buf, BLE_SIG_UUID_16BIT_LEN) == BLE_SIG_UUID_16BIT_LEN) {
            uuid128_[UUID16_LO] = buf[1];
            uuid128_[UUID16_HI] = buf[0];
   d6b24:	f89d 3004 	ldrbge.w	r3, [sp, #4]
        return;
    }
    if (strnlen(uuid, BLE_SIG_UUID_128BIT_LEN * 2 + 4) == (BLE_SIG_UUID_16BIT_LEN * 2)) {
        char buf[2] = {};
        if (hexToBytes(uuid, buf, BLE_SIG_UUID_16BIT_LEN) == BLE_SIG_UUID_16BIT_LEN) {
            uuid128_[UUID16_LO] = buf[1];
   d6b28:	7328      	strbge	r0, [r5, #12]
            uuid128_[UUID16_HI] = buf[0];
   d6b2a:	736b      	strbge	r3, [r5, #13]
        }
        type_ = BleUuidType::SHORT;
   d6b2c:	2300      	movs	r3, #0
   d6b2e:	612b      	str	r3, [r5, #16]
   d6b30:	e019      	b.n	d6b66 <_ZN8particle7BleUuid9constructEPKc+0xc6>
        return;
    }
    size_t len = BLE_SIG_UUID_128BIT_LEN;
    for (size_t i = 0; i < strnlen(uuid, BLE_SIG_UUID_128BIT_LEN * 2 + 4) && len > 0; i++) {
        int8_t hi = hexToNibble(uuid[i]);
   d6b32:	5df0      	ldrb	r0, [r6, r7]
   d6b34:	f7ff fe56 	bl	d67e4 <_ZN8particle11hexToNibbleEc>
        if (hi >= 0) {
   d6b38:	0603      	lsls	r3, r0, #24
   d6b3a:	d412      	bmi.n	d6b62 <_ZN8particle7BleUuid9constructEPKc+0xc2>
            uuid128_[len - 1] = hi << 4;
   d6b3c:	3c01      	subs	r4, #1
   d6b3e:	0100      	lsls	r0, r0, #4
   d6b40:	5528      	strb	r0, [r5, r4]
            if (++i < strnlen(uuid, BLE_SIG_UUID_128BIT_LEN * 2 + 4)) {
   d6b42:	2124      	movs	r1, #36	; 0x24
   d6b44:	4630      	mov	r0, r6
   d6b46:	f003 ffb5 	bl	daab4 <strnlen>
   d6b4a:	3701      	adds	r7, #1
   d6b4c:	4287      	cmp	r7, r0
   d6b4e:	d208      	bcs.n	d6b62 <_ZN8particle7BleUuid9constructEPKc+0xc2>
                int8_t lo = hexToNibble(uuid[i]);
   d6b50:	5df0      	ldrb	r0, [r6, r7]
   d6b52:	f7ff fe47 	bl	d67e4 <_ZN8particle11hexToNibbleEc>
   d6b56:	b240      	sxtb	r0, r0
                if (lo >= 0) {
   d6b58:	2800      	cmp	r0, #0
                    uuid128_[len - 1] |= lo;
   d6b5a:	bfa2      	ittt	ge
   d6b5c:	5d2b      	ldrbge	r3, [r5, r4]
   d6b5e:	4318      	orrge	r0, r3
   d6b60:	5528      	strbge	r0, [r5, r4]
        }
        type_ = BleUuidType::SHORT;
        return;
    }
    size_t len = BLE_SIG_UUID_128BIT_LEN;
    for (size_t i = 0; i < strnlen(uuid, BLE_SIG_UUID_128BIT_LEN * 2 + 4) && len > 0; i++) {
   d6b62:	3701      	adds	r7, #1
   d6b64:	e7b5      	b.n	d6ad2 <_ZN8particle7BleUuid9constructEPKc+0x32>
    }
    while (len > 0) {
        uuid128_[len - 1] = 0x00;
        len--;
    }
}
   d6b66:	b003      	add	sp, #12
   d6b68:	bdf0      	pop	{r4, r5, r6, r7, pc}
   d6b6a:	bf00      	nop
   d6b6c:	000dbc04 	.word	0x000dbc04

000d6b70 <_ZN8particle7BleUuidC1EPKc>:
        : BleUuid(uuid128, order) {
    uuid128_[UUID16_LO] = (uint8_t)(uuid16 & 0x00FF);
    uuid128_[UUID16_HI] = (uint8_t)((uuid16 >> 8) & 0x00FF);
}

BleUuid::BleUuid(const char* uuid)
   d6b70:	b538      	push	{r3, r4, r5, lr}
   d6b72:	4604      	mov	r4, r0
   d6b74:	460d      	mov	r5, r1
        : BleUuid() {
   d6b76:	f7ff fee5 	bl	d6944 <_ZN8particle7BleUuidC1Ev>
    construct(uuid);
   d6b7a:	4620      	mov	r0, r4
   d6b7c:	4629      	mov	r1, r5
   d6b7e:	f7ff ff8f 	bl	d6aa0 <_ZN8particle7BleUuid9constructEPKc>
}
   d6b82:	4620      	mov	r0, r4
   d6b84:	bd38      	pop	{r3, r4, r5, pc}

000d6b86 <_ZNK8particle7BleUuid11toBigEndianEPh>:
        uuid128_[len - 1] = 0x00;
        len--;
    }
}

void BleUuid::toBigEndian(uint8_t buf[BLE_SIG_UUID_128BIT_LEN]) const {
   d6b86:	3901      	subs	r1, #1
    for (uint8_t i = 0, j = BLE_SIG_UUID_128BIT_LEN - 1; i < BLE_SIG_UUID_128BIT_LEN; i++, j--) {
   d6b88:	230f      	movs	r3, #15
        buf[i] = uuid128_[j];
   d6b8a:	5cc2      	ldrb	r2, [r0, r3]
   d6b8c:	f801 2f01 	strb.w	r2, [r1, #1]!
        len--;
    }
}

void BleUuid::toBigEndian(uint8_t buf[BLE_SIG_UUID_128BIT_LEN]) const {
    for (uint8_t i = 0, j = BLE_SIG_UUID_128BIT_LEN - 1; i < BLE_SIG_UUID_128BIT_LEN; i++, j--) {
   d6b90:	3b01      	subs	r3, #1
   d6b92:	b2db      	uxtb	r3, r3
   d6b94:	2bff      	cmp	r3, #255	; 0xff
   d6b96:	d1f8      	bne.n	d6b8a <_ZNK8particle7BleUuid11toBigEndianEPh+0x4>
        buf[i] = uuid128_[j];
    }
}
   d6b98:	4770      	bx	lr

000d6b9a <_ZNK8particle7BleUuid8toStringEPcjb>:
    char cStr[BLE_SIG_UUID_128BIT_LEN * 2 + 5];
    toString(cStr, sizeof(cStr));
    return String(cStr);
}

size_t BleUuid::toString(char* buf, size_t len, bool stripped) const {
   d6b9a:	e92d 41f0 	stmdb	sp!, {r4, r5, r6, r7, r8, lr}
   d6b9e:	4698      	mov	r8, r3
   d6ba0:	b08e      	sub	sp, #56	; 0x38
    if (!buf || len == 0) {
   d6ba2:	460d      	mov	r5, r1
   d6ba4:	2900      	cmp	r1, #0
   d6ba6:	d057      	beq.n	d6c58 <_ZNK8particle7BleUuid8toStringEPcjb+0xbe>
   d6ba8:	2a00      	cmp	r2, #0
   d6baa:	d057      	beq.n	d6c5c <_ZNK8particle7BleUuid8toStringEPcjb+0xc2>
        return 0;
    }
    if (type() == BleUuidType::SHORT) {
   d6bac:	6906      	ldr	r6, [r0, #16]
   d6bae:	1e54      	subs	r4, r2, #1
   d6bb0:	b9ae      	cbnz	r6, d6bde <_ZNK8particle7BleUuid8toStringEPcjb+0x44>
        char cStr[BLE_SIG_UUID_16BIT_LEN * 2] = {};
        uint16_t bigEndian = (uint16_t)uuid128_[UUID16_LO] << 8 | uuid128_[UUID16_HI];
   d6bb2:	7b02      	ldrb	r2, [r0, #12]
   d6bb4:	7b43      	ldrb	r3, [r0, #13]
size_t BleUuid::toString(char* buf, size_t len, bool stripped) const {
    if (!buf || len == 0) {
        return 0;
    }
    if (type() == BleUuidType::SHORT) {
        char cStr[BLE_SIG_UUID_16BIT_LEN * 2] = {};
   d6bb6:	9605      	str	r6, [sp, #20]
        uint16_t bigEndian = (uint16_t)uuid128_[UUID16_LO] << 8 | uuid128_[UUID16_HI];
   d6bb8:	ea43 2302 	orr.w	r3, r3, r2, lsl #8
        bytes2hexbuf((uint8_t*)&bigEndian, 2, cStr);
   d6bbc:	2102      	movs	r1, #2
   d6bbe:	aa05      	add	r2, sp, #20
   d6bc0:	a801      	add	r0, sp, #4
    if (!buf || len == 0) {
        return 0;
    }
    if (type() == BleUuidType::SHORT) {
        char cStr[BLE_SIG_UUID_16BIT_LEN * 2] = {};
        uint16_t bigEndian = (uint16_t)uuid128_[UUID16_LO] << 8 | uuid128_[UUID16_HI];
   d6bc2:	f8ad 3004 	strh.w	r3, [sp, #4]
        bytes2hexbuf((uint8_t*)&bigEndian, 2, cStr);
   d6bc6:	f7ff fded 	bl	d67a4 <_ZL12bytes2hexbufPKhjPc>
   d6bca:	2c04      	cmp	r4, #4
   d6bcc:	bf28      	it	cs
   d6bce:	2404      	movcs	r4, #4
        len = std::min(len - 1, sizeof(cStr));
        memcpy(buf, cStr, len);
   d6bd0:	4622      	mov	r2, r4
   d6bd2:	a905      	add	r1, sp, #20
   d6bd4:	4628      	mov	r0, r5
   d6bd6:	f003 feb4 	bl	da942 <memcpy>
        buf[len++] = '\0';
   d6bda:	552e      	strb	r6, [r5, r4]
   d6bdc:	e03a      	b.n	d6c54 <_ZNK8particle7BleUuid8toStringEPcjb+0xba>
        return len;
    }
    uint8_t temp[BLE_SIG_UUID_128BIT_LEN];
    toBigEndian(temp);
   d6bde:	a901      	add	r1, sp, #4
   d6be0:	f7ff ffd1 	bl	d6b86 <_ZNK8particle7BleUuid11toBigEndianEPh>
    char cStr[BLE_SIG_UUID_128BIT_LEN * 2 + 4];
    if (stripped) {
        bytes2hexbuf(temp, BLE_SIG_UUID_128BIT_LEN, cStr);
   d6be4:	aa05      	add	r2, sp, #20
        return len;
    }
    uint8_t temp[BLE_SIG_UUID_128BIT_LEN];
    toBigEndian(temp);
    char cStr[BLE_SIG_UUID_128BIT_LEN * 2 + 4];
    if (stripped) {
   d6be6:	f1b8 0f00 	cmp.w	r8, #0
   d6bea:	d002      	beq.n	d6bf2 <_ZNK8particle7BleUuid8toStringEPcjb+0x58>
        bytes2hexbuf(temp, BLE_SIG_UUID_128BIT_LEN, cStr);
   d6bec:	2110      	movs	r1, #16
   d6bee:	a801      	add	r0, sp, #4
   d6bf0:	e024      	b.n	d6c3c <_ZNK8particle7BleUuid8toStringEPcjb+0xa2>
    } else {
        uint8_t idx = 0;
        bytes2hexbuf(&temp[idx], 4, &cStr[0]);
   d6bf2:	2104      	movs	r1, #4
   d6bf4:	eb0d 0001 	add.w	r0, sp, r1
   d6bf8:	f7ff fdd4 	bl	d67a4 <_ZL12bytes2hexbufPKhjPc>
        idx += 4;
        cStr[idx * 2] = '-';
   d6bfc:	262d      	movs	r6, #45	; 0x2d
        bytes2hexbuf(&temp[idx], 2, &cStr[idx * 2 + 1]);
   d6bfe:	f10d 021d 	add.w	r2, sp, #29
   d6c02:	2102      	movs	r1, #2
   d6c04:	a802      	add	r0, sp, #8
        bytes2hexbuf(temp, BLE_SIG_UUID_128BIT_LEN, cStr);
    } else {
        uint8_t idx = 0;
        bytes2hexbuf(&temp[idx], 4, &cStr[0]);
        idx += 4;
        cStr[idx * 2] = '-';
   d6c06:	f88d 601c 	strb.w	r6, [sp, #28]
        bytes2hexbuf(&temp[idx], 2, &cStr[idx * 2 + 1]);
   d6c0a:	f7ff fdcb 	bl	d67a4 <_ZL12bytes2hexbufPKhjPc>
        idx += 2;
        cStr[idx * 2 + 1] = '-';
        bytes2hexbuf(&temp[idx], 2, &cStr[idx * 2 + 2]);
   d6c0e:	f10d 0222 	add.w	r2, sp, #34	; 0x22
   d6c12:	2102      	movs	r1, #2
   d6c14:	f10d 000a 	add.w	r0, sp, #10
        bytes2hexbuf(&temp[idx], 4, &cStr[0]);
        idx += 4;
        cStr[idx * 2] = '-';
        bytes2hexbuf(&temp[idx], 2, &cStr[idx * 2 + 1]);
        idx += 2;
        cStr[idx * 2 + 1] = '-';
   d6c18:	f88d 6021 	strb.w	r6, [sp, #33]	; 0x21
        bytes2hexbuf(&temp[idx], 2, &cStr[idx * 2 + 2]);
   d6c1c:	f7ff fdc2 	bl	d67a4 <_ZL12bytes2hexbufPKhjPc>
        idx += 2;
        cStr[idx * 2 + 2] = '-';
        bytes2hexbuf(&temp[idx], 2, &cStr[idx * 2 + 3]);
   d6c20:	f10d 0227 	add.w	r2, sp, #39	; 0x27
   d6c24:	2102      	movs	r1, #2
   d6c26:	a803      	add	r0, sp, #12
        bytes2hexbuf(&temp[idx], 2, &cStr[idx * 2 + 1]);
        idx += 2;
        cStr[idx * 2 + 1] = '-';
        bytes2hexbuf(&temp[idx], 2, &cStr[idx * 2 + 2]);
        idx += 2;
        cStr[idx * 2 + 2] = '-';
   d6c28:	f88d 6026 	strb.w	r6, [sp, #38]	; 0x26
        bytes2hexbuf(&temp[idx], 2, &cStr[idx * 2 + 3]);
   d6c2c:	f7ff fdba 	bl	d67a4 <_ZL12bytes2hexbufPKhjPc>
        idx += 2;
        cStr[idx * 2 + 3] = '-';
   d6c30:	f88d 602b 	strb.w	r6, [sp, #43]	; 0x2b
        bytes2hexbuf(&temp[idx], 6, &cStr[idx * 2 + 4]);
   d6c34:	aa0b      	add	r2, sp, #44	; 0x2c
   d6c36:	2106      	movs	r1, #6
   d6c38:	f10d 000e 	add.w	r0, sp, #14
   d6c3c:	f7ff fdb2 	bl	d67a4 <_ZL12bytes2hexbufPKhjPc>
   d6c40:	2c24      	cmp	r4, #36	; 0x24
   d6c42:	bf28      	it	cs
   d6c44:	2424      	movcs	r4, #36	; 0x24
    }
    len = std::min(len - 1, sizeof(cStr));
    memcpy(buf, cStr, len);
   d6c46:	4622      	mov	r2, r4
   d6c48:	a905      	add	r1, sp, #20
   d6c4a:	4628      	mov	r0, r5
   d6c4c:	f003 fe79 	bl	da942 <memcpy>
    buf[len++] = '\0';
   d6c50:	2300      	movs	r3, #0
   d6c52:	552b      	strb	r3, [r5, r4]
   d6c54:	1c60      	adds	r0, r4, #1
   d6c56:	e002      	b.n	d6c5e <_ZNK8particle7BleUuid8toStringEPcjb+0xc4>
    return String(cStr);
}

size_t BleUuid::toString(char* buf, size_t len, bool stripped) const {
    if (!buf || len == 0) {
        return 0;
   d6c58:	4608      	mov	r0, r1
   d6c5a:	e000      	b.n	d6c5e <_ZNK8particle7BleUuid8toStringEPcjb+0xc4>
   d6c5c:	4610      	mov	r0, r2
    }
    len = std::min(len - 1, sizeof(cStr));
    memcpy(buf, cStr, len);
    buf[len++] = '\0';
    return len;
}
   d6c5e:	b00e      	add	sp, #56	; 0x38
   d6c60:	e8bd 81f0 	ldmia.w	sp!, {r4, r5, r6, r7, r8, pc}

000d6c64 <_ZNK8particle7BleUuid8toStringEb>:

const uint8_t* BleUuid::rawBytes() const {
    return uuid128_;
}

String BleUuid::toString(bool stripped) const {
   d6c64:	b510      	push	{r4, lr}
   d6c66:	b08a      	sub	sp, #40	; 0x28
   d6c68:	4604      	mov	r4, r0
    char cStr[BLE_SIG_UUID_128BIT_LEN * 2 + 5];
    toString(cStr, sizeof(cStr));
   d6c6a:	2300      	movs	r3, #0
   d6c6c:	2225      	movs	r2, #37	; 0x25

const uint8_t* BleUuid::rawBytes() const {
    return uuid128_;
}

String BleUuid::toString(bool stripped) const {
   d6c6e:	4608      	mov	r0, r1
    char cStr[BLE_SIG_UUID_128BIT_LEN * 2 + 5];
    toString(cStr, sizeof(cStr));
   d6c70:	4669      	mov	r1, sp
   d6c72:	f7ff ff92 	bl	d6b9a <_ZNK8particle7BleUuid8toStringEPcjb>
    return String(cStr);
   d6c76:	4669      	mov	r1, sp
   d6c78:	4620      	mov	r0, r4
   d6c7a:	f7ff fcce 	bl	d661a <_ZN6StringC1EPK19__FlashStringHelper>
}
   d6c7e:	4620      	mov	r0, r4
   d6c80:	b00a      	add	sp, #40	; 0x28
   d6c82:	bd10      	pop	{r4, pc}

000d6c84 <_ZN8particle18BleAdvertisingData3setEPKhj>:
BleAdvertisingData::BleAdvertisingData(const iBeacon& beacon)
        : BleAdvertisingData() {
    set(beacon);
}

size_t BleAdvertisingData::set(const uint8_t* buf, size_t len) {
   d6c84:	b538      	push	{r3, r4, r5, lr}
   d6c86:	4605      	mov	r5, r0
    if (buf == nullptr || len == 0) {
   d6c88:	b101      	cbz	r1, d6c8c <_ZN8particle18BleAdvertisingData3setEPKhj+0x8>
   d6c8a:	b912      	cbnz	r2, d6c92 <_ZN8particle18BleAdvertisingData3setEPKhj+0xe>
        selfLen_ = 0;
   d6c8c:	2000      	movs	r0, #0
   d6c8e:	6228      	str	r0, [r5, #32]
        return selfLen_;
   d6c90:	bd38      	pop	{r3, r4, r5, pc}
   d6c92:	2a1f      	cmp	r2, #31
   d6c94:	bf28      	it	cs
   d6c96:	221f      	movcs	r2, #31
   d6c98:	4614      	mov	r4, r2
    }
    len = std::min(len, (size_t)BLE_MAX_ADV_DATA_LEN);
    memcpy(selfData_, buf, len);
   d6c9a:	f003 fe52 	bl	da942 <memcpy>
    selfLen_ = len;
   d6c9e:	622c      	str	r4, [r5, #32]
    return selfLen_;
   d6ca0:	4620      	mov	r0, r4
}
   d6ca2:	bd38      	pop	{r3, r4, r5, pc}

000d6ca4 <_ZN8particle18BleAdvertisingData6locateEPKhjNS_22BleAdvertisingDataTypeEPj>:
        break;
    }
    return found;
}

size_t BleAdvertisingData::locate(const uint8_t* buf, size_t len, BleAdvertisingDataType type, size_t* offset) {
   d6ca4:	b5f0      	push	{r4, r5, r6, r7, lr}
    if (offset == nullptr) {
   d6ca6:	b18b      	cbz	r3, d6ccc <_ZN8particle18BleAdvertisingData6locateEPKhjNS_22BleAdvertisingDataTypeEPj+0x28>
   d6ca8:	2400      	movs	r4, #0
        return 0;
    }
    uint8_t adsType = static_cast<uint8_t>(type);
    size_t adsLen;
    for (size_t i = 0; (i + 3) <= len; i = i) {
   d6caa:	1ce5      	adds	r5, r4, #3
   d6cac:	428d      	cmp	r5, r1
   d6cae:	d80f      	bhi.n	d6cd0 <_ZN8particle18BleAdvertisingData6locateEPKhjNS_22BleAdvertisingDataTypeEPj+0x2c>
        adsLen = buf[i];
        if (buf[i + 1] == adsType) {
   d6cb0:	1c66      	adds	r6, r4, #1
        return 0;
    }
    uint8_t adsType = static_cast<uint8_t>(type);
    size_t adsLen;
    for (size_t i = 0; (i + 3) <= len; i = i) {
        adsLen = buf[i];
   d6cb2:	5d05      	ldrb	r5, [r0, r4]
        if (buf[i + 1] == adsType) {
   d6cb4:	5d87      	ldrb	r7, [r0, r6]
   d6cb6:	4297      	cmp	r7, r2
   d6cb8:	d105      	bne.n	d6cc6 <_ZN8particle18BleAdvertisingData6locateEPKhjNS_22BleAdvertisingDataTypeEPj+0x22>
            // The value of adsLen doesn't include the length field of an AD structure.
            if ((i + adsLen + 1) <= len) {
   d6cba:	442e      	add	r6, r5
   d6cbc:	42b1      	cmp	r1, r6
   d6cbe:	d307      	bcc.n	d6cd0 <_ZN8particle18BleAdvertisingData6locateEPKhjNS_22BleAdvertisingDataTypeEPj+0x2c>
                *offset = i;
   d6cc0:	601c      	str	r4, [r3, #0]
                adsLen += 1;
   d6cc2:	1c68      	adds	r0, r5, #1
                return adsLen;
   d6cc4:	bdf0      	pop	{r4, r5, r6, r7, pc}
            } else {
                return 0;
            }
        } else {
            // Navigate to the next AD structure.
            i += (adsLen + 1);
   d6cc6:	3501      	adds	r5, #1
   d6cc8:	442c      	add	r4, r5
    if (offset == nullptr) {
        return 0;
    }
    uint8_t adsType = static_cast<uint8_t>(type);
    size_t adsLen;
    for (size_t i = 0; (i + 3) <= len; i = i) {
   d6cca:	e7ee      	b.n	d6caa <_ZN8particle18BleAdvertisingData6locateEPKhjNS_22BleAdvertisingDataTypeEPj+0x6>
    return found;
}

size_t BleAdvertisingData::locate(const uint8_t* buf, size_t len, BleAdvertisingDataType type, size_t* offset) {
    if (offset == nullptr) {
        return 0;
   d6ccc:	4618      	mov	r0, r3
   d6cce:	bdf0      	pop	{r4, r5, r6, r7, pc}
   d6cd0:	2000      	movs	r0, #0
            // Navigate to the next AD structure.
            i += (adsLen + 1);
        }
    }
    return 0;
}
   d6cd2:	bdf0      	pop	{r4, r5, r6, r7, pc}

000d6cd4 <_ZN8particle18BleAdvertisingData6appendENS_22BleAdvertisingDataTypeEPKhjb>:
    selfData_[selfLen_++] = beacon.measurePower;

    return selfLen_;
}

size_t BleAdvertisingData::append(BleAdvertisingDataType type, const uint8_t* buf, size_t len, bool force) {
   d6cd4:	e92d 43f7 	stmdb	sp!, {r0, r1, r2, r4, r5, r6, r7, r8, r9, lr}
   d6cd8:	4604      	mov	r4, r0
   d6cda:	460e      	mov	r6, r1
   d6cdc:	461d      	mov	r5, r3
    if (buf == nullptr) {
   d6cde:	4617      	mov	r7, r2
   d6ce0:	2a00      	cmp	r2, #0
   d6ce2:	d03a      	beq.n	d6d5a <_ZN8particle18BleAdvertisingData6appendENS_22BleAdvertisingDataTypeEPKhjb+0x86>
        return selfLen_;
    }
    size_t offset;
    size_t adsLen = locate(selfData_, selfLen_, type, &offset);
   d6ce4:	460a      	mov	r2, r1
   d6ce6:	ab01      	add	r3, sp, #4
   d6ce8:	6a01      	ldr	r1, [r0, #32]
   d6cea:	f7ff ffdb 	bl	d6ca4 <_ZN8particle18BleAdvertisingData6locateEPKhjNS_22BleAdvertisingDataTypeEPj>
    if (!force && adsLen > 0) {
   d6cee:	f89d 3028 	ldrb.w	r3, [sp, #40]	; 0x28
   d6cf2:	6a22      	ldr	r2, [r4, #32]
   d6cf4:	bb03      	cbnz	r3, d6d38 <_ZN8particle18BleAdvertisingData6appendENS_22BleAdvertisingDataTypeEPKhjb+0x64>
   d6cf6:	b1f8      	cbz	r0, d6d38 <_ZN8particle18BleAdvertisingData6appendENS_22BleAdvertisingDataTypeEPKhjb+0x64>
        // Update the existing AD structure.
        size_t staLen = selfLen_ - adsLen;
        if ((staLen + len + 2) <= BLE_MAX_ADV_DATA_LEN) {
   d6cf8:	1c96      	adds	r6, r2, #2
   d6cfa:	442e      	add	r6, r5
   d6cfc:	1a36      	subs	r6, r6, r0
   d6cfe:	2e1f      	cmp	r6, #31
   d6d00:	d82b      	bhi.n	d6d5a <_ZN8particle18BleAdvertisingData6appendENS_22BleAdvertisingDataTypeEPKhjb+0x86>
            // Firstly, move the last consistent block.
            uint16_t moveLen = selfLen_ - offset - adsLen;
   d6d02:	f8dd 8004 	ldr.w	r8, [sp, #4]
   d6d06:	f108 0902 	add.w	r9, r8, #2
            memmove(&selfData_[offset + len + 2], &selfData_[offset + adsLen], moveLen);
   d6d0a:	ebc8 0202 	rsb	r2, r8, r2
   d6d0e:	1a12      	subs	r2, r2, r0
   d6d10:	eb00 0108 	add.w	r1, r0, r8
   d6d14:	eb05 0009 	add.w	r0, r5, r9
   d6d18:	b292      	uxth	r2, r2
   d6d1a:	4421      	add	r1, r4
   d6d1c:	4420      	add	r0, r4
   d6d1e:	f003 fe1b 	bl	da958 <memmove>
            // Secondly, Update the AD structure.
            // The Length field is the total length of Type field and Data field.
            selfData_[offset] = len + 1;
   d6d22:	1c6b      	adds	r3, r5, #1
   d6d24:	f804 3008 	strb.w	r3, [r4, r8]
            memcpy(&selfData_[offset + 2], buf, len);
   d6d28:	462a      	mov	r2, r5
   d6d2a:	4639      	mov	r1, r7
   d6d2c:	eb04 0009 	add.w	r0, r4, r9
   d6d30:	f003 fe07 	bl	da942 <memcpy>
            // An AD structure is composed of one byte length field, one byte Type field and Data field.
            selfLen_ = staLen + len + 2;
   d6d34:	6226      	str	r6, [r4, #32]
   d6d36:	e010      	b.n	d6d5a <_ZN8particle18BleAdvertisingData6appendENS_22BleAdvertisingDataTypeEPKhjb+0x86>
   d6d38:	1c90      	adds	r0, r2, #2
        }
    }
    else if ((selfLen_ + len + 2) <= BLE_MAX_ADV_DATA_LEN) {
   d6d3a:	182b      	adds	r3, r5, r0
   d6d3c:	2b1f      	cmp	r3, #31
   d6d3e:	d80c      	bhi.n	d6d5a <_ZN8particle18BleAdvertisingData6appendENS_22BleAdvertisingDataTypeEPKhjb+0x86>
        // Append the AD structure at the and of advertising data.
        selfData_[selfLen_++] = len + 1;
   d6d40:	1c6b      	adds	r3, r5, #1
   d6d42:	54a3      	strb	r3, [r4, r2]
        selfData_[selfLen_++] = static_cast<uint8_t>(type);
   d6d44:	4422      	add	r2, r4
   d6d46:	6220      	str	r0, [r4, #32]
        memcpy(&selfData_[selfLen_], buf, len);
   d6d48:	4639      	mov	r1, r7
        }
    }
    else if ((selfLen_ + len + 2) <= BLE_MAX_ADV_DATA_LEN) {
        // Append the AD structure at the and of advertising data.
        selfData_[selfLen_++] = len + 1;
        selfData_[selfLen_++] = static_cast<uint8_t>(type);
   d6d4a:	7056      	strb	r6, [r2, #1]
        memcpy(&selfData_[selfLen_], buf, len);
   d6d4c:	4420      	add	r0, r4
   d6d4e:	462a      	mov	r2, r5
   d6d50:	f003 fdf7 	bl	da942 <memcpy>
        selfLen_ += len;
   d6d54:	6a22      	ldr	r2, [r4, #32]
   d6d56:	442a      	add	r2, r5
   d6d58:	6222      	str	r2, [r4, #32]
    }
    return selfLen_;
   d6d5a:	6a20      	ldr	r0, [r4, #32]
}
   d6d5c:	b003      	add	sp, #12
   d6d5e:	e8bd 83f0 	ldmia.w	sp!, {r4, r5, r6, r7, r8, r9, pc}

000d6d62 <_ZN8particle18BleAdvertisingDataC1Ev>:


/*******************************************************
 * BleAdvertisingData class
 */
BleAdvertisingData::BleAdvertisingData()
   d6d62:	b51f      	push	{r0, r1, r2, r3, r4, lr}
   d6d64:	4604      	mov	r4, r0
        : selfData_(),
          selfLen_(0) {
   d6d66:	4603      	mov	r3, r0
   d6d68:	f100 021f 	add.w	r2, r0, #31
   d6d6c:	2000      	movs	r0, #0
   d6d6e:	f803 0b01 	strb.w	r0, [r3], #1
   d6d72:	4293      	cmp	r3, r2
   d6d74:	f04f 0100 	mov.w	r1, #0
   d6d78:	d1f9      	bne.n	d6d6e <_ZN8particle18BleAdvertisingDataC1Ev+0xc>
    uint8_t flag = BLE_SIG_ADV_FLAGS_LE_ONLY_GENERAL_DISC_MODE;
   d6d7a:	aa04      	add	r2, sp, #16
   d6d7c:	2306      	movs	r3, #6
   d6d7e:	f802 3d01 	strb.w	r3, [r2, #-1]!
    append(BleAdvertisingDataType::FLAGS, &flag, sizeof(uint8_t));
   d6d82:	2301      	movs	r3, #1
/*******************************************************
 * BleAdvertisingData class
 */
BleAdvertisingData::BleAdvertisingData()
        : selfData_(),
          selfLen_(0) {
   d6d84:	6221      	str	r1, [r4, #32]
    uint8_t flag = BLE_SIG_ADV_FLAGS_LE_ONLY_GENERAL_DISC_MODE;
    append(BleAdvertisingDataType::FLAGS, &flag, sizeof(uint8_t));
   d6d86:	9100      	str	r1, [sp, #0]
   d6d88:	4620      	mov	r0, r4
   d6d8a:	4619      	mov	r1, r3
   d6d8c:	f7ff ffa2 	bl	d6cd4 <_ZN8particle18BleAdvertisingData6appendENS_22BleAdvertisingDataTypeEPKhjb>
}
   d6d90:	4620      	mov	r0, r4
   d6d92:	b004      	add	sp, #16
   d6d94:	bd10      	pop	{r4, pc}

000d6d96 <_ZNK8particle18BleAdvertisingData11serviceUUIDENS_22BleAdvertisingDataTypeEPNS_7BleUuidEj>:
bool BleAdvertisingData::contains(BleAdvertisingDataType type) const {
    size_t adsOffset;
    return locate(selfData_, selfLen_, type, &adsOffset) > 0;
}

size_t BleAdvertisingData::serviceUUID(BleAdvertisingDataType type, BleUuid* uuids, size_t count) const {
   d6d96:	e92d 4ff0 	stmdb	sp!, {r4, r5, r6, r7, r8, r9, sl, fp, lr}
    size_t offset, adsLen = 0, found = 0;
    for (size_t i = 0; i < selfLen_; i += (offset + adsLen)) {
   d6d9a:	2500      	movs	r5, #0
bool BleAdvertisingData::contains(BleAdvertisingDataType type) const {
    size_t adsOffset;
    return locate(selfData_, selfLen_, type, &adsOffset) > 0;
}

size_t BleAdvertisingData::serviceUUID(BleAdvertisingDataType type, BleUuid* uuids, size_t count) const {
   d6d9c:	b085      	sub	sp, #20
   d6d9e:	4606      	mov	r6, r0
   d6da0:	4689      	mov	r9, r1
   d6da2:	4617      	mov	r7, r2
   d6da4:	469a      	mov	sl, r3
    size_t offset, adsLen = 0, found = 0;
   d6da6:	462c      	mov	r4, r5
        adsLen = locate(&selfData_[i], selfLen_ - i, type, &offset);
        if (adsLen > 0 && found < count) {
            if (adsLen == 4) { // length field + type field + 16-bits UUID
                uuids[found++] = (uint16_t)selfData_[i + offset + 2] | ((uint16_t)selfData_[i + offset + 3] << 8);
            } else if (adsLen == 18) {
                uuids[found++] = &selfData_[i + offset + 2];
   d6da8:	f04f 0814 	mov.w	r8, #20
    return locate(selfData_, selfLen_, type, &adsOffset) > 0;
}

size_t BleAdvertisingData::serviceUUID(BleAdvertisingDataType type, BleUuid* uuids, size_t count) const {
    size_t offset, adsLen = 0, found = 0;
    for (size_t i = 0; i < selfLen_; i += (offset + adsLen)) {
   d6dac:	6a31      	ldr	r1, [r6, #32]
   d6dae:	428d      	cmp	r5, r1
   d6db0:	d22a      	bcs.n	d6e08 <_ZNK8particle18BleAdvertisingData11serviceUUIDENS_22BleAdvertisingDataTypeEPNS_7BleUuidEj+0x72>
        adsLen = locate(&selfData_[i], selfLen_ - i, type, &offset);
   d6db2:	ab03      	add	r3, sp, #12
   d6db4:	464a      	mov	r2, r9
   d6db6:	1b49      	subs	r1, r1, r5
   d6db8:	1970      	adds	r0, r6, r5
   d6dba:	f7ff ff73 	bl	d6ca4 <_ZN8particle18BleAdvertisingData6locateEPKhjNS_22BleAdvertisingDataTypeEPj>
        if (adsLen > 0 && found < count) {
   d6dbe:	4683      	mov	fp, r0
   d6dc0:	b310      	cbz	r0, d6e08 <_ZNK8particle18BleAdvertisingData11serviceUUIDENS_22BleAdvertisingDataTypeEPNS_7BleUuidEj+0x72>
   d6dc2:	4554      	cmp	r4, sl
   d6dc4:	d220      	bcs.n	d6e08 <_ZNK8particle18BleAdvertisingData11serviceUUIDENS_22BleAdvertisingDataTypeEPNS_7BleUuidEj+0x72>
            if (adsLen == 4) { // length field + type field + 16-bits UUID
   d6dc6:	2804      	cmp	r0, #4
   d6dc8:	9903      	ldr	r1, [sp, #12]
   d6dca:	d10c      	bne.n	d6de6 <_ZNK8particle18BleAdvertisingData11serviceUUIDENS_22BleAdvertisingDataTypeEPNS_7BleUuidEj+0x50>
                uuids[found++] = (uint16_t)selfData_[i + offset + 2] | ((uint16_t)selfData_[i + offset + 3] << 8);
   d6dcc:	4429      	add	r1, r5
   d6dce:	1872      	adds	r2, r6, r1
   d6dd0:	1c63      	adds	r3, r4, #1
   d6dd2:	78d1      	ldrb	r1, [r2, #3]
   d6dd4:	7892      	ldrb	r2, [r2, #2]
   d6dd6:	9301      	str	r3, [sp, #4]
   d6dd8:	ea42 2101 	orr.w	r1, r2, r1, lsl #8
   d6ddc:	fb08 7004 	mla	r0, r8, r4, r7
   d6de0:	f7ff fe38 	bl	d6a54 <_ZN8particle7BleUuidaSEt>
   d6de4:	e00a      	b.n	d6dfc <_ZNK8particle18BleAdvertisingData11serviceUUIDENS_22BleAdvertisingDataTypeEPNS_7BleUuidEj+0x66>
            } else if (adsLen == 18) {
   d6de6:	2812      	cmp	r0, #18
   d6de8:	d10a      	bne.n	d6e00 <_ZNK8particle18BleAdvertisingData11serviceUUIDENS_22BleAdvertisingDataTypeEPNS_7BleUuidEj+0x6a>
                uuids[found++] = &selfData_[i + offset + 2];
   d6dea:	3102      	adds	r1, #2
   d6dec:	4429      	add	r1, r5
   d6dee:	1c63      	adds	r3, r4, #1
   d6df0:	4431      	add	r1, r6
   d6df2:	fb08 7004 	mla	r0, r8, r4, r7
   d6df6:	9301      	str	r3, [sp, #4]
   d6df8:	f7ff fe1f 	bl	d6a3a <_ZN8particle7BleUuidaSEPKh>
   d6dfc:	9b01      	ldr	r3, [sp, #4]
   d6dfe:	461c      	mov	r4, r3
    return locate(selfData_, selfLen_, type, &adsOffset) > 0;
}

size_t BleAdvertisingData::serviceUUID(BleAdvertisingDataType type, BleUuid* uuids, size_t count) const {
    size_t offset, adsLen = 0, found = 0;
    for (size_t i = 0; i < selfLen_; i += (offset + adsLen)) {
   d6e00:	9b03      	ldr	r3, [sp, #12]
   d6e02:	445b      	add	r3, fp
   d6e04:	441d      	add	r5, r3
   d6e06:	e7d1      	b.n	d6dac <_ZNK8particle18BleAdvertisingData11serviceUUIDENS_22BleAdvertisingDataTypeEPNS_7BleUuidEj+0x16>
            continue;
        }
        break;
    }
    return found;
}
   d6e08:	4620      	mov	r0, r4
   d6e0a:	b005      	add	sp, #20
   d6e0c:	e8bd 8ff0 	ldmia.w	sp!, {r4, r5, r6, r7, r8, r9, sl, fp, pc}

000d6e10 <_ZNK8particle18BleAdvertisingData11serviceUUIDEPNS_7BleUuidEj>:
        }
    }
    return name;
}

size_t BleAdvertisingData::serviceUUID(BleUuid* uuids, size_t count) const {
   d6e10:	e92d 41f0 	stmdb	sp!, {r4, r5, r6, r7, r8, lr}
    size_t found = 0;
    found += serviceUUID(BleAdvertisingDataType::SERVICE_UUID_16BIT_MORE_AVAILABLE, &uuids[found], count - found);
   d6e14:	4613      	mov	r3, r2
        }
    }
    return name;
}

size_t BleAdvertisingData::serviceUUID(BleUuid* uuids, size_t count) const {
   d6e16:	460d      	mov	r5, r1
   d6e18:	4616      	mov	r6, r2
    size_t found = 0;
    found += serviceUUID(BleAdvertisingDataType::SERVICE_UUID_16BIT_MORE_AVAILABLE, &uuids[found], count - found);
   d6e1a:	460a      	mov	r2, r1
   d6e1c:	2102      	movs	r1, #2
        }
    }
    return name;
}

size_t BleAdvertisingData::serviceUUID(BleUuid* uuids, size_t count) const {
   d6e1e:	4607      	mov	r7, r0
    size_t found = 0;
    found += serviceUUID(BleAdvertisingDataType::SERVICE_UUID_16BIT_MORE_AVAILABLE, &uuids[found], count - found);
   d6e20:	f7ff ffb9 	bl	d6d96 <_ZNK8particle18BleAdvertisingData11serviceUUIDENS_22BleAdvertisingDataTypeEPNS_7BleUuidEj>
    found += serviceUUID(BleAdvertisingDataType::SERVICE_UUID_16BIT_COMPLETE, &uuids[found], count - found);
   d6e24:	f04f 0814 	mov.w	r8, #20
   d6e28:	1a33      	subs	r3, r6, r0
   d6e2a:	fb08 5200 	mla	r2, r8, r0, r5
    return name;
}

size_t BleAdvertisingData::serviceUUID(BleUuid* uuids, size_t count) const {
    size_t found = 0;
    found += serviceUUID(BleAdvertisingDataType::SERVICE_UUID_16BIT_MORE_AVAILABLE, &uuids[found], count - found);
   d6e2e:	4604      	mov	r4, r0
    found += serviceUUID(BleAdvertisingDataType::SERVICE_UUID_16BIT_COMPLETE, &uuids[found], count - found);
   d6e30:	2103      	movs	r1, #3
   d6e32:	4638      	mov	r0, r7
   d6e34:	f7ff ffaf 	bl	d6d96 <_ZNK8particle18BleAdvertisingData11serviceUUIDENS_22BleAdvertisingDataTypeEPNS_7BleUuidEj>
   d6e38:	4404      	add	r4, r0
    found += serviceUUID(BleAdvertisingDataType::SERVICE_UUID_128BIT_MORE_AVAILABLE, &uuids[found], count - found);
   d6e3a:	1b33      	subs	r3, r6, r4
   d6e3c:	fb08 5204 	mla	r2, r8, r4, r5
   d6e40:	2106      	movs	r1, #6
   d6e42:	4638      	mov	r0, r7
   d6e44:	f7ff ffa7 	bl	d6d96 <_ZNK8particle18BleAdvertisingData11serviceUUIDENS_22BleAdvertisingDataTypeEPNS_7BleUuidEj>
   d6e48:	4404      	add	r4, r0
    found += serviceUUID(BleAdvertisingDataType::SERVICE_UUID_128BIT_COMPLETE, &uuids[found], count - found);
   d6e4a:	1b33      	subs	r3, r6, r4
   d6e4c:	fb08 5204 	mla	r2, r8, r4, r5
   d6e50:	2107      	movs	r1, #7
   d6e52:	4638      	mov	r0, r7
   d6e54:	f7ff ff9f 	bl	d6d96 <_ZNK8particle18BleAdvertisingData11serviceUUIDENS_22BleAdvertisingDataTypeEPNS_7BleUuidEj>
    return found;
}
   d6e58:	4420      	add	r0, r4
   d6e5a:	e8bd 81f0 	ldmia.w	sp!, {r4, r5, r6, r7, r8, pc}
	...

000d6e60 <_ZN8particle21BleCharacteristicImplC1Ev>:
/*******************************************************
 * BleCharacteristicImpl definition
 */
class BleCharacteristicImpl {
public:
    BleCharacteristicImpl()
   d6e60:	b538      	push	{r3, r4, r5, lr}
              attrHandles_(),
              charUuid_(),
              svcUuid_(),
              description_(),
              callback_(nullptr),
              context_(nullptr) {
   d6e62:	2500      	movs	r5, #0
   d6e64:	f64f 73ff 	movw	r3, #65535	; 0xffff
/*******************************************************
 * BleCharacteristicImpl definition
 */
class BleCharacteristicImpl {
public:
    BleCharacteristicImpl()
   d6e68:	4604      	mov	r4, r0
              attrHandles_(),
              charUuid_(),
              svcUuid_(),
              description_(),
              callback_(nullptr),
              context_(nullptr) {
   d6e6a:	8043      	strh	r3, [r0, #2]
   d6e6c:	220e      	movs	r2, #14
   d6e6e:	4629      	mov	r1, r5
   d6e70:	7005      	strb	r5, [r0, #0]
        : value_(0) {
}

template<typename T>
inline particle::EnumFlags<T, typename std::enable_if_t<std::is_enum<T>::value>>::EnumFlags(const T& value) {
    value_ = static_cast<ValueType>(value);
   d6e72:	7105      	strb	r5, [r0, #4]
   d6e74:	3006      	adds	r0, #6
   d6e76:	f003 fd8a 	bl	da98e <memset>
   d6e7a:	f104 0014 	add.w	r0, r4, #20
   d6e7e:	f7ff fd61 	bl	d6944 <_ZN8particle7BleUuidC1Ev>
   d6e82:	f104 0028 	add.w	r0, r4, #40	; 0x28
   d6e86:	f7ff fd5d 	bl	d6944 <_ZN8particle7BleUuidC1Ev>
   d6e8a:	4904      	ldr	r1, [pc, #16]	; (d6e9c <_ZN8particle21BleCharacteristicImplC1Ev+0x3c>)
   d6e8c:	f104 003c 	add.w	r0, r4, #60	; 0x3c
   d6e90:	f7ff fbc3 	bl	d661a <_ZN6StringC1EPK19__FlashStringHelper>
   d6e94:	64e5      	str	r5, [r4, #76]	; 0x4c
   d6e96:	6525      	str	r5, [r4, #80]	; 0x50
    }
   d6e98:	4620      	mov	r0, r4
   d6e9a:	bd38      	pop	{r3, r4, r5, pc}
   d6e9c:	000dbce8 	.word	0x000dbce8

000d6ea0 <_ZN8particle18BleLocalDeviceImpl14findPeerDeviceEt>:
    void onDisconnectedCallback(BleOnDisconnectedCallback callback, void* context) {
        disconnectedCb_ = callback;
        disconnectedContext_ = context;
    }

    BlePeerDevice* findPeerDevice(BleConnectionHandle connHandle) {
   d6ea0:	b510      	push	{r4, lr}
   d6ea2:	6983      	ldr	r3, [r0, #24]
    return data_;
}

template<typename T, typename AllocatorT>
T* spark::Vector<T, AllocatorT>::end() {
    return data_ + size_;
   d6ea4:	69c2      	ldr	r2, [r0, #28]
   d6ea6:	eb03 02c2 	add.w	r2, r3, r2, lsl #3
        for (auto& peer : peers_) {
   d6eaa:	4293      	cmp	r3, r2
   d6eac:	4618      	mov	r0, r3
   d6eae:	d006      	beq.n	d6ebe <_ZN8particle18BleLocalDeviceImpl14findPeerDeviceEt+0x1e>
            if (peer.impl()->connHandle() == connHandle) {
   d6eb0:	6804      	ldr	r4, [r0, #0]
   d6eb2:	8824      	ldrh	r4, [r4, #0]
   d6eb4:	428c      	cmp	r4, r1
   d6eb6:	f103 0308 	add.w	r3, r3, #8
   d6eba:	d1f6      	bne.n	d6eaa <_ZN8particle18BleLocalDeviceImpl14findPeerDeviceEt+0xa>
   d6ebc:	bd10      	pop	{r4, pc}
                return &peer;
            }
        }
        return nullptr;
   d6ebe:	2000      	movs	r0, #0
    }
   d6ec0:	bd10      	pop	{r4, pc}
	...

000d6ec4 <_ZNK8particle17BleCharacteristic9subscribeEb>:
        return len;
    }
    return 0;
}

int BleCharacteristic::subscribe(bool enable) const {
   d6ec4:	b570      	push	{r4, r5, r6, lr}
   d6ec6:	6804      	ldr	r4, [r0, #0]
   d6ec8:	460e      	mov	r6, r1
    CHECK_FALSE(impl()->local(), SYSTEM_ERROR_INVALID_STATE);
   d6eca:	7821      	ldrb	r1, [r4, #0]
        return len;
    }
    return 0;
}

int BleCharacteristic::subscribe(bool enable) const {
   d6ecc:	b086      	sub	sp, #24
    CHECK_FALSE(impl()->local(), SYSTEM_ERROR_INVALID_STATE);
   d6ece:	2900      	cmp	r1, #0
   d6ed0:	d12e      	bne.n	d6f30 <_ZNK8particle17BleCharacteristic9subscribeEb+0x6c>
    CHECK_TRUE(impl()->connHandle() != BLE_INVALID_CONN_HANDLE, SYSTEM_ERROR_INVALID_STATE);
   d6ed2:	8862      	ldrh	r2, [r4, #2]
   d6ed4:	f64f 73ff 	movw	r3, #65535	; 0xffff
   d6ed8:	429a      	cmp	r2, r3
   d6eda:	d029      	beq.n	d6f30 <_ZNK8particle17BleCharacteristic9subscribeEb+0x6c>
    CHECK_TRUE(impl()->attrHandles().cccd_handle != BLE_INVALID_ATTR_HANDLE, SYSTEM_ERROR_NOT_SUPPORTED);
   d6edc:	8a23      	ldrh	r3, [r4, #16]
   d6ede:	b353      	cbz	r3, d6f36 <_ZNK8particle17BleCharacteristic9subscribeEb+0x72>
    hal_ble_cccd_config_t config = {};
   d6ee0:	2518      	movs	r5, #24
   d6ee2:	462a      	mov	r2, r5
   d6ee4:	4668      	mov	r0, sp
   d6ee6:	f003 fd52 	bl	da98e <memset>
    config.version = BLE_API_VERSION;
   d6eea:	2301      	movs	r3, #1
   d6eec:	f8ad 3000 	strh.w	r3, [sp]
    config.size = sizeof(hal_ble_cccd_config_t);
    config.callback = impl()->onBleCharEvents;
   d6ef0:	4b13      	ldr	r3, [pc, #76]	; (d6f40 <_ZNK8particle17BleCharacteristic9subscribeEb+0x7c>)
    CHECK_FALSE(impl()->local(), SYSTEM_ERROR_INVALID_STATE);
    CHECK_TRUE(impl()->connHandle() != BLE_INVALID_CONN_HANDLE, SYSTEM_ERROR_INVALID_STATE);
    CHECK_TRUE(impl()->attrHandles().cccd_handle != BLE_INVALID_ATTR_HANDLE, SYSTEM_ERROR_NOT_SUPPORTED);
    hal_ble_cccd_config_t config = {};
    config.version = BLE_API_VERSION;
    config.size = sizeof(hal_ble_cccd_config_t);
   d6ef2:	f8ad 5002 	strh.w	r5, [sp, #2]
    config.callback = impl()->onBleCharEvents;
   d6ef6:	9301      	str	r3, [sp, #4]
    config.context = impl();
   d6ef8:	9402      	str	r4, [sp, #8]
    config.conn_handle = impl()->connHandle();
   d6efa:	8863      	ldrh	r3, [r4, #2]
   d6efc:	f8ad 300c 	strh.w	r3, [sp, #12]
    config.cccd_handle = impl()->attrHandles().cccd_handle;
   d6f00:	8a23      	ldrh	r3, [r4, #16]
   d6f02:	f8ad 300e 	strh.w	r3, [sp, #14]
    config.value_handle = impl()->attrHandles().value_handle;
   d6f06:	89a3      	ldrh	r3, [r4, #12]
   d6f08:	f8ad 3010 	strh.w	r3, [sp, #16]
    config.cccd_value = BLE_SIG_CCCD_VAL_DISABLED;
    if (enable) {
   d6f0c:	b15e      	cbz	r6, d6f26 <_ZNK8particle17BleCharacteristic9subscribeEb+0x62>
        if (impl()->properties().isSet(BleCharacteristicProperty::INDICATE)) {
   d6f0e:	7923      	ldrb	r3, [r4, #4]
   d6f10:	069a      	lsls	r2, r3, #26
            config.cccd_value = BLE_SIG_CCCD_VAL_INDICATION;
   d6f12:	bf44      	itt	mi
   d6f14:	2302      	movmi	r3, #2
   d6f16:	9305      	strmi	r3, [sp, #20]
        }
        if (impl()->properties().isSet(BleCharacteristicProperty::NOTIFY)) {
   d6f18:	7923      	ldrb	r3, [r4, #4]
   d6f1a:	06db      	lsls	r3, r3, #27
            config.cccd_value = (ble_sig_cccd_value_t)(config.cccd_value | BLE_SIG_CCCD_VAL_NOTIFICATION);
   d6f1c:	bf42      	ittt	mi
   d6f1e:	9b05      	ldrmi	r3, [sp, #20]
   d6f20:	f043 0301 	orrmi.w	r3, r3, #1
   d6f24:	9305      	strmi	r3, [sp, #20]
        }
    }
    return hal_ble_gatt_client_configure_cccd(&config, nullptr);
   d6f26:	2100      	movs	r1, #0
   d6f28:	4668      	mov	r0, sp
   d6f2a:	f7ff f8b1 	bl	d6090 <hal_ble_gatt_client_configure_cccd>
   d6f2e:	e004      	b.n	d6f3a <_ZNK8particle17BleCharacteristic9subscribeEb+0x76>
    }
    return 0;
}

int BleCharacteristic::subscribe(bool enable) const {
    CHECK_FALSE(impl()->local(), SYSTEM_ERROR_INVALID_STATE);
   d6f30:	f06f 00d1 	mvn.w	r0, #209	; 0xd1
   d6f34:	e001      	b.n	d6f3a <_ZNK8particle17BleCharacteristic9subscribeEb+0x76>
    CHECK_TRUE(impl()->connHandle() != BLE_INVALID_CONN_HANDLE, SYSTEM_ERROR_INVALID_STATE);
    CHECK_TRUE(impl()->attrHandles().cccd_handle != BLE_INVALID_ATTR_HANDLE, SYSTEM_ERROR_NOT_SUPPORTED);
   d6f36:	f06f 0077 	mvn.w	r0, #119	; 0x77
        if (impl()->properties().isSet(BleCharacteristicProperty::NOTIFY)) {
            config.cccd_value = (ble_sig_cccd_value_t)(config.cccd_value | BLE_SIG_CCCD_VAL_NOTIFICATION);
        }
    }
    return hal_ble_gatt_client_configure_cccd(&config, nullptr);
}
   d6f3a:	b006      	add	sp, #24
   d6f3c:	bd70      	pop	{r4, r5, r6, pc}
   d6f3e:	bf00      	nop
   d6f40:	000d711d 	.word	0x000d711d

000d6f44 <_ZN8particle17BleCharacteristic14onDataReceivedEPFvPKhjRKNS_13BlePeerDeviceEPvES6_>:

void BleCharacteristic::onDataReceived(BleOnDataReceivedCallback callback, void* context) {
   d6f44:	6803      	ldr	r3, [r0, #0]
    String& description() {
        return description_;
    }

    void setCallback(BleOnDataReceivedCallback callback, void* context) {
        callback_ = callback;
   d6f46:	64d9      	str	r1, [r3, #76]	; 0x4c
        context_ = context;
   d6f48:	651a      	str	r2, [r3, #80]	; 0x50
   d6f4a:	4770      	bx	lr

000d6f4c <_ZN8particle21BleDiscoveryDelegator26discoverAllCharacteristicsERNS_13BlePeerDeviceE>:
    int discoverAllServices(BlePeerDevice& peer) {
        LOG(TRACE, "Start discovering services.");
        return hal_ble_gatt_client_discover_all_services(peer.impl()->connHandle(), onServicesDiscovered, &peer, nullptr);
    }

    int discoverAllCharacteristics(BlePeerDevice& peer) {
   d6f4c:	e92d 41f0 	stmdb	sp!, {r4, r5, r6, r7, r8, lr}
   d6f50:	b08a      	sub	sp, #40	; 0x28
        LOG(TRACE, "Start discovering characteristics.");
   d6f52:	2320      	movs	r3, #32
    int discoverAllServices(BlePeerDevice& peer) {
        LOG(TRACE, "Start discovering services.");
        return hal_ble_gatt_client_discover_all_services(peer.impl()->connHandle(), onServicesDiscovered, &peer, nullptr);
    }

    int discoverAllCharacteristics(BlePeerDevice& peer) {
   d6f54:	460e      	mov	r6, r1
        LOG(TRACE, "Start discovering characteristics.");
   d6f56:	9302      	str	r3, [sp, #8]
   d6f58:	2500      	movs	r5, #0
   d6f5a:	4b2e      	ldr	r3, [pc, #184]	; (d7014 <_ZN8particle21BleDiscoveryDelegator26discoverAllCharacteristicsERNS_13BlePeerDeviceE+0xc8>)
   d6f5c:	9300      	str	r3, [sp, #0]
   d6f5e:	aa02      	add	r2, sp, #8
   d6f60:	462b      	mov	r3, r5
   d6f62:	492d      	ldr	r1, [pc, #180]	; (d7018 <_ZN8particle21BleDiscoveryDelegator26discoverAllCharacteristicsERNS_13BlePeerDeviceE+0xcc>)
   d6f64:	9503      	str	r5, [sp, #12]
   d6f66:	2001      	movs	r0, #1
   d6f68:	f7ff f9b4 	bl	d62d4 <log_message>
   d6f6c:	6833      	ldr	r3, [r6, #0]
   d6f6e:	68dc      	ldr	r4, [r3, #12]
   d6f70:	691f      	ldr	r7, [r3, #16]
        for (auto& service : peer.impl()->services()) {
            hal_ble_svc_t halService;
            halService.size = sizeof(hal_ble_svc_t);
   d6f72:	f04f 081c 	mov.w	r8, #28
   d6f76:	eb04 07c7 	add.w	r7, r4, r7, lsl #3
   d6f7a:	3408      	adds	r4, #8
        return hal_ble_gatt_client_discover_all_services(peer.impl()->connHandle(), onServicesDiscovered, &peer, nullptr);
    }

    int discoverAllCharacteristics(BlePeerDevice& peer) {
        LOG(TRACE, "Start discovering characteristics.");
        for (auto& service : peer.impl()->services()) {
   d6f7c:	f1a4 0308 	sub.w	r3, r4, #8
   d6f80:	429f      	cmp	r7, r3
   d6f82:	6832      	ldr	r2, [r6, #0]
   d6f84:	d017      	beq.n	d6fb6 <_ZN8particle21BleDiscoveryDelegator26discoverAllCharacteristicsERNS_13BlePeerDeviceE+0x6a>
            hal_ble_svc_t halService;
            halService.size = sizeof(hal_ble_svc_t);
   d6f86:	f8ad 800a 	strh.w	r8, [sp, #10]
            halService.start_handle = service.impl()->startHandle();
   d6f8a:	f854 3c08 	ldr.w	r3, [r4, #-8]
   d6f8e:	8a9b      	ldrh	r3, [r3, #20]
   d6f90:	f8ad 3020 	strh.w	r3, [sp, #32]
            halService.end_handle = service.impl()->endHandle();
   d6f94:	f854 3c08 	ldr.w	r3, [r4, #-8]
   d6f98:	8adb      	ldrh	r3, [r3, #22]
   d6f9a:	f8ad 3022 	strh.w	r3, [sp, #34]	; 0x22
            CHECK(hal_ble_gatt_client_discover_characteristics(peer.impl()->connHandle(), &halService, onCharacteristicsDiscovered, &peer, nullptr));
   d6f9e:	8810      	ldrh	r0, [r2, #0]
   d6fa0:	9500      	str	r5, [sp, #0]
   d6fa2:	4633      	mov	r3, r6
   d6fa4:	4a1d      	ldr	r2, [pc, #116]	; (d701c <_ZN8particle21BleDiscoveryDelegator26discoverAllCharacteristicsERNS_13BlePeerDeviceE+0xd0>)
   d6fa6:	a902      	add	r1, sp, #8
   d6fa8:	f7ff f84a 	bl	d6040 <hal_ble_gatt_client_discover_characteristics>
   d6fac:	2800      	cmp	r0, #0
   d6fae:	f104 0408 	add.w	r4, r4, #8
   d6fb2:	dae3      	bge.n	d6f7c <_ZN8particle21BleDiscoveryDelegator26discoverAllCharacteristicsERNS_13BlePeerDeviceE+0x30>
   d6fb4:	e02a      	b.n	d700c <_ZN8particle21BleDiscoveryDelegator26discoverAllCharacteristicsERNS_13BlePeerDeviceE+0xc0>
   d6fb6:	6994      	ldr	r4, [r2, #24]
   d6fb8:	69d5      	ldr	r5, [r2, #28]
        }
        for (auto& characteristic : peer.impl()->characteristics()) {
            // Read the user description string if presented.
            if (characteristic.impl()->attrHandles().user_desc_handle != BLE_INVALID_ATTR_HANDLE) {
                char desc[BLE_MAX_DESC_LEN] = {};
   d6fba:	2700      	movs	r7, #0
   d6fbc:	eb04 05c5 	add.w	r5, r4, r5, lsl #3
   d6fc0:	3408      	adds	r4, #8
            halService.size = sizeof(hal_ble_svc_t);
            halService.start_handle = service.impl()->startHandle();
            halService.end_handle = service.impl()->endHandle();
            CHECK(hal_ble_gatt_client_discover_characteristics(peer.impl()->connHandle(), &halService, onCharacteristicsDiscovered, &peer, nullptr));
        }
        for (auto& characteristic : peer.impl()->characteristics()) {
   d6fc2:	f1a4 0308 	sub.w	r3, r4, #8
   d6fc6:	429d      	cmp	r5, r3
   d6fc8:	d01f      	beq.n	d700a <_ZN8particle21BleDiscoveryDelegator26discoverAllCharacteristicsERNS_13BlePeerDeviceE+0xbe>
            // Read the user description string if presented.
            if (characteristic.impl()->attrHandles().user_desc_handle != BLE_INVALID_ATTR_HANDLE) {
   d6fca:	f854 3c08 	ldr.w	r3, [r4, #-8]
   d6fce:	89db      	ldrh	r3, [r3, #14]
   d6fd0:	b1cb      	cbz	r3, d7006 <_ZN8particle21BleDiscoveryDelegator26discoverAllCharacteristicsERNS_13BlePeerDeviceE+0xba>
                char desc[BLE_MAX_DESC_LEN] = {};
   d6fd2:	2214      	movs	r2, #20
   d6fd4:	2100      	movs	r1, #0
   d6fd6:	a802      	add	r0, sp, #8
   d6fd8:	f003 fcd9 	bl	da98e <memset>
                size_t len = hal_ble_gatt_client_read(peer.impl()->connHandle(), characteristic.impl()->attrHandles().user_desc_handle, (uint8_t*)desc, sizeof(desc) - 1, nullptr);
   d6fdc:	f854 3c08 	ldr.w	r3, [r4, #-8]
   d6fe0:	89d9      	ldrh	r1, [r3, #14]
   d6fe2:	6833      	ldr	r3, [r6, #0]
   d6fe4:	aa02      	add	r2, sp, #8
   d6fe6:	8818      	ldrh	r0, [r3, #0]
   d6fe8:	9700      	str	r7, [sp, #0]
   d6fea:	2313      	movs	r3, #19
   d6fec:	f7ff f832 	bl	d6054 <hal_ble_gatt_client_read>
                if (len > 0) {
   d6ff0:	b148      	cbz	r0, d7006 <_ZN8particle21BleDiscoveryDelegator26discoverAllCharacteristicsERNS_13BlePeerDeviceE+0xba>
                    desc[len] = '\0';
   d6ff2:	ab0a      	add	r3, sp, #40	; 0x28
   d6ff4:	4418      	add	r0, r3
                    characteristic.impl()->description() = desc;
   d6ff6:	a902      	add	r1, sp, #8
            // Read the user description string if presented.
            if (characteristic.impl()->attrHandles().user_desc_handle != BLE_INVALID_ATTR_HANDLE) {
                char desc[BLE_MAX_DESC_LEN] = {};
                size_t len = hal_ble_gatt_client_read(peer.impl()->connHandle(), characteristic.impl()->attrHandles().user_desc_handle, (uint8_t*)desc, sizeof(desc) - 1, nullptr);
                if (len > 0) {
                    desc[len] = '\0';
   d6ff8:	f800 7c20 	strb.w	r7, [r0, #-32]
    BleUuid& svcUUID() {
        return svcUuid_;
    }

    String& description() {
        return description_;
   d6ffc:	f854 0c08 	ldr.w	r0, [r4, #-8]
            if (characteristic.impl()->attrHandles().user_desc_handle != BLE_INVALID_ATTR_HANDLE) {
                char desc[BLE_MAX_DESC_LEN] = {};
                size_t len = hal_ble_gatt_client_read(peer.impl()->connHandle(), characteristic.impl()->attrHandles().user_desc_handle, (uint8_t*)desc, sizeof(desc) - 1, nullptr);
                if (len > 0) {
                    desc[len] = '\0';
                    characteristic.impl()->description() = desc;
   d7000:	303c      	adds	r0, #60	; 0x3c
   d7002:	f7ff fb37 	bl	d6674 <_ZN6StringaSEPKc>
   d7006:	3408      	adds	r4, #8
   d7008:	e7db      	b.n	d6fc2 <_ZN8particle21BleDiscoveryDelegator26discoverAllCharacteristicsERNS_13BlePeerDeviceE+0x76>
            halService.size = sizeof(hal_ble_svc_t);
            halService.start_handle = service.impl()->startHandle();
            halService.end_handle = service.impl()->endHandle();
            CHECK(hal_ble_gatt_client_discover_characteristics(peer.impl()->connHandle(), &halService, onCharacteristicsDiscovered, &peer, nullptr));
        }
        for (auto& characteristic : peer.impl()->characteristics()) {
   d700a:	2000      	movs	r0, #0
                    LOG_DEBUG(TRACE, "User description: %s.", desc);
                }
            }
        }
        return SYSTEM_ERROR_NONE;
    }
   d700c:	b00a      	add	sp, #40	; 0x28
   d700e:	e8bd 81f0 	ldmia.w	sp!, {r4, r5, r6, r7, r8, pc}
   d7012:	bf00      	nop
   d7014:	000dba8b 	.word	0x000dba8b
   d7018:	000dba64 	.word	0x000dba64
   d701c:	000d7c0d 	.word	0x000d7c0d

000d7020 <_ZNK8particle13BlePeerDevice9connectedEv>:
    impl()->connHandle() = BLE_INVALID_CONN_HANDLE;
    return SYSTEM_ERROR_NONE;
}

bool BlePeerDevice::connected() const {
    return impl()->connHandle() != BLE_INVALID_CONN_HANDLE;
   d7020:	6803      	ldr	r3, [r0, #0]
   d7022:	8818      	ldrh	r0, [r3, #0]
}
   d7024:	f64f 73ff 	movw	r3, #65535	; 0xffff
   d7028:	1ac0      	subs	r0, r0, r3
   d702a:	bf18      	it	ne
   d702c:	2001      	movne	r0, #1
   d702e:	4770      	bx	lr

000d7030 <_ZNK8particle13BlePeerDevice4bindERKNS_10BleAddressE>:

void BlePeerDevice::bind(const BleAddress& address) const {
   d7030:	6802      	ldr	r2, [r0, #0]
    impl()->address() = address;
   d7032:	680b      	ldr	r3, [r1, #0]
   d7034:	f8c2 3002 	str.w	r3, [r2, #2]
   d7038:	684b      	ldr	r3, [r1, #4]
   d703a:	f8c2 3006 	str.w	r3, [r2, #6]
   d703e:	4770      	bx	lr

000d7040 <_ZNK8particle13BlePeerDevice7addressEv>:
}

BleAddress BlePeerDevice::address() const {
   d7040:	b510      	push	{r4, lr}
    return impl()->address();
   d7042:	680a      	ldr	r2, [r1, #0]
   d7044:	f852 3f02 	ldr.w	r3, [r2, #2]!
   d7048:	6003      	str	r3, [r0, #0]
   d704a:	6853      	ldr	r3, [r2, #4]
   d704c:	6043      	str	r3, [r0, #4]
}
   d704e:	bd10      	pop	{r4, pc}

000d7050 <_ZNK8particle13BlePeerDeviceeqERKS0_>:

bool BlePeerDevice::operator==(const BlePeerDevice& device) const {
   d7050:	b51f      	push	{r0, r1, r2, r3, r4, lr}
    if (impl()->connHandle() == device.impl()->connHandle() && address() == device.address()) {
   d7052:	6802      	ldr	r2, [r0, #0]
   d7054:	680b      	ldr	r3, [r1, #0]
   d7056:	8812      	ldrh	r2, [r2, #0]
   d7058:	881b      	ldrh	r3, [r3, #0]
   d705a:	429a      	cmp	r2, r3

BleAddress BlePeerDevice::address() const {
    return impl()->address();
}

bool BlePeerDevice::operator==(const BlePeerDevice& device) const {
   d705c:	460c      	mov	r4, r1
    if (impl()->connHandle() == device.impl()->connHandle() && address() == device.address()) {
   d705e:	d10c      	bne.n	d707a <_ZNK8particle13BlePeerDeviceeqERKS0_+0x2a>
   d7060:	4601      	mov	r1, r0
   d7062:	4668      	mov	r0, sp
   d7064:	f7ff ffec 	bl	d7040 <_ZNK8particle13BlePeerDevice7addressEv>
   d7068:	4621      	mov	r1, r4
   d706a:	a802      	add	r0, sp, #8
   d706c:	f7ff ffe8 	bl	d7040 <_ZNK8particle13BlePeerDevice7addressEv>
   d7070:	a902      	add	r1, sp, #8
   d7072:	4668      	mov	r0, sp
   d7074:	f7ff fbea 	bl	d684c <_ZNK8particle10BleAddresseqERKS0_>
   d7078:	b900      	cbnz	r0, d707c <_ZNK8particle13BlePeerDeviceeqERKS0_+0x2c>
        return true;
    }
    return false;
   d707a:	2000      	movs	r0, #0
}
   d707c:	b004      	add	sp, #16
   d707e:	bd10      	pop	{r4, pc}

000d7080 <_ZN8particle14BleLocalDeviceC1Ev>:


/*******************************************************
 * BleLocalDevice class
 */
BleLocalDevice::BleLocalDevice()
   d7080:	b510      	push	{r4, lr}
   d7082:	4604      	mov	r4, r0

  /// std::make_unique for single objects
  template<typename _Tp, typename... _Args>
    inline typename _MakeUniq<_Tp>::__single_object
    make_unique(_Args&&... __args)
    { return unique_ptr<_Tp>(new _Tp(std::forward<_Args>(__args)...)); }
   d7084:	2034      	movs	r0, #52	; 0x34
   d7086:	f7fd f806 	bl	d4096 <_Znwj>
   d708a:	4601      	mov	r1, r0
   d708c:	b168      	cbz	r0, d70aa <_ZN8particle14BleLocalDeviceC1Ev+0x2a>
// spark::Vector
template<typename T, typename AllocatorT>
inline spark::Vector<T, AllocatorT>::Vector() :
        data_(nullptr),
        size_(0),
        capacity_(0) {
   d708e:	2300      	movs	r3, #0
   d7090:	6003      	str	r3, [r0, #0]
   d7092:	6043      	str	r3, [r0, #4]
   d7094:	6083      	str	r3, [r0, #8]
   d7096:	60c3      	str	r3, [r0, #12]
   d7098:	6103      	str	r3, [r0, #16]
   d709a:	6143      	str	r3, [r0, #20]
   d709c:	6183      	str	r3, [r0, #24]
   d709e:	61c3      	str	r3, [r0, #28]
   d70a0:	6203      	str	r3, [r0, #32]
public:
    BleLocalDeviceImpl()
            : connectedCb_(nullptr),
              disconnectedCb_(nullptr),
              connectedContext_(nullptr),
              disconnectedContext_(nullptr) {
   d70a2:	6243      	str	r3, [r0, #36]	; 0x24
   d70a4:	6283      	str	r3, [r0, #40]	; 0x28
   d70a6:	62c3      	str	r3, [r0, #44]	; 0x2c
   d70a8:	6303      	str	r3, [r0, #48]	; 0x30
      constexpr _Head_base(const _Head_base&) = default;
      constexpr _Head_base(_Head_base&&) = default;

      template<typename _UHead>
        constexpr _Head_base(_UHead&& __h)
	: _M_head_impl(std::forward<_UHead>(__h)) { }
   d70aa:	6021      	str	r1, [r4, #0]
/*******************************************************
 * BleLocalDevice class
 */
BleLocalDevice::BleLocalDevice()
        : impl_(std::make_unique<BleLocalDeviceImpl>()) {
    if (!impl()) {
   d70ac:	b919      	cbnz	r1, d70b6 <_ZN8particle14BleLocalDeviceC1Ev+0x36>
        SPARK_ASSERT(false);
   d70ae:	4a0a      	ldr	r2, [pc, #40]	; (d70d8 <_ZN8particle14BleLocalDeviceC1Ev+0x58>)
   d70b0:	200a      	movs	r0, #10
   d70b2:	f7ff f907 	bl	d62c4 <panic_>
    }
    SPARK_ASSERT(hal_ble_stack_init(nullptr) == SYSTEM_ERROR_NONE);
   d70b6:	2000      	movs	r0, #0
   d70b8:	f7fe ff94 	bl	d5fe4 <hal_ble_stack_init>
   d70bc:	b120      	cbz	r0, d70c8 <_ZN8particle14BleLocalDeviceC1Ev+0x48>
   d70be:	4a06      	ldr	r2, [pc, #24]	; (d70d8 <_ZN8particle14BleLocalDeviceC1Ev+0x58>)
   d70c0:	2100      	movs	r1, #0
   d70c2:	200a      	movs	r0, #10
   d70c4:	f7ff f8fe 	bl	d62c4 <panic_>
    hal_ble_set_callback_on_periph_link_events(impl()->onBleLinkEvents, impl(), nullptr);
   d70c8:	2200      	movs	r2, #0
   d70ca:	6821      	ldr	r1, [r4, #0]
   d70cc:	4803      	ldr	r0, [pc, #12]	; (d70dc <_ZN8particle14BleLocalDeviceC1Ev+0x5c>)
   d70ce:	f7fe ffd5 	bl	d607c <hal_ble_set_callback_on_periph_link_events>
}
   d70d2:	4620      	mov	r0, r4
   d70d4:	bd10      	pop	{r4, pc}
   d70d6:	bf00      	nop
   d70d8:	000d5fc5 	.word	0x000d5fc5
   d70dc:	000d7539 	.word	0x000d7539

000d70e0 <_ZN8particle14BleLocalDevice11getInstanceEv>:

BleLocalDevice& BleLocalDevice::getInstance() {
   d70e0:	b510      	push	{r4, lr}
    static BleLocalDevice instance;
   d70e2:	4c0a      	ldr	r4, [pc, #40]	; (d710c <_ZN8particle14BleLocalDevice11getInstanceEv+0x2c>)
   d70e4:	6823      	ldr	r3, [r4, #0]
   d70e6:	07db      	lsls	r3, r3, #31
   d70e8:	d40e      	bmi.n	d7108 <_ZN8particle14BleLocalDevice11getInstanceEv+0x28>
   d70ea:	4620      	mov	r0, r4
   d70ec:	f7fc ffe6 	bl	d40bc <__cxa_guard_acquire>
   d70f0:	b150      	cbz	r0, d7108 <_ZN8particle14BleLocalDevice11getInstanceEv+0x28>
   d70f2:	4807      	ldr	r0, [pc, #28]	; (d7110 <_ZN8particle14BleLocalDevice11getInstanceEv+0x30>)
   d70f4:	f7ff ffc4 	bl	d7080 <_ZN8particle14BleLocalDeviceC1Ev>
   d70f8:	4620      	mov	r0, r4
   d70fa:	f7fc ffe4 	bl	d40c6 <__cxa_guard_release>
   d70fe:	4a05      	ldr	r2, [pc, #20]	; (d7114 <_ZN8particle14BleLocalDevice11getInstanceEv+0x34>)
   d7100:	4905      	ldr	r1, [pc, #20]	; (d7118 <_ZN8particle14BleLocalDevice11getInstanceEv+0x38>)
   d7102:	4803      	ldr	r0, [pc, #12]	; (d7110 <_ZN8particle14BleLocalDevice11getInstanceEv+0x30>)
   d7104:	f003 fa97 	bl	da636 <__aeabi_atexit>
    return instance;
}
   d7108:	4801      	ldr	r0, [pc, #4]	; (d7110 <_ZN8particle14BleLocalDevice11getInstanceEv+0x30>)
   d710a:	bd10      	pop	{r4, pc}
   d710c:	2003e3d0 	.word	0x2003e3d0
   d7110:	2003e3cc 	.word	0x2003e3cc
   d7114:	2003d8d4 	.word	0x2003d8d4
   d7118:	000d72a1 	.word	0x000d72a1

000d711c <_ZN8particle21BleCharacteristicImpl15onBleCharEventsEPK18hal_ble_char_evt_tPv>:
/*
 * WARN: This is executed from HAL ble thread. If the BLE wiring lock is acquired by a thread,
 * calling wiring APIs those acquiring the BLE wiring lock from the callback will suspend the
 * the execution of the callback, until the BLE wiring lock is released.
 */
void BleCharacteristicImpl::onBleCharEvents(const hal_ble_char_evt_t *event, void* context) {
   d711c:	b570      	push	{r4, r5, r6, lr}
    auto impl = static_cast<BleCharacteristicImpl*>(context);
    // This callback won't modified any data in wiring.
    //WiringBleLock lk;
    switch (event->type) {
   d711e:	6803      	ldr	r3, [r0, #0]
   d7120:	3b09      	subs	r3, #9
   d7122:	2b01      	cmp	r3, #1
/*
 * WARN: This is executed from HAL ble thread. If the BLE wiring lock is acquired by a thread,
 * calling wiring APIs those acquiring the BLE wiring lock from the callback will suspend the
 * the execution of the callback, until the BLE wiring lock is released.
 */
void BleCharacteristicImpl::onBleCharEvents(const hal_ble_char_evt_t *event, void* context) {
   d7124:	b08a      	sub	sp, #40	; 0x28
   d7126:	4604      	mov	r4, r0
   d7128:	460e      	mov	r6, r1
    auto impl = static_cast<BleCharacteristicImpl*>(context);
    // This callback won't modified any data in wiring.
    //WiringBleLock lk;
    switch (event->type) {
   d712a:	d819      	bhi.n	d7160 <_ZN8particle21BleCharacteristicImpl15onBleCharEventsEPK18hal_ble_char_evt_tPv+0x44>
        case BLE_EVT_DATA_NOTIFIED:
        case BLE_EVT_DATA_WRITTEN: {
            auto peer = BleLocalDevice::getInstance().impl()->findPeerDevice(event->conn_handle);
   d712c:	f7ff ffd8 	bl	d70e0 <_ZN8particle14BleLocalDevice11getInstanceEv>
   d7130:	88a1      	ldrh	r1, [r4, #4]
   d7132:	6800      	ldr	r0, [r0, #0]
   d7134:	f7ff feb4 	bl	d6ea0 <_ZN8particle18BleLocalDeviceImpl14findPeerDeviceEt>
            if (!peer) {
   d7138:	4602      	mov	r2, r0
   d713a:	b958      	cbnz	r0, d7154 <_ZN8particle21BleCharacteristicImpl15onBleCharEventsEPK18hal_ble_char_evt_tPv+0x38>
                LOG(ERROR, "Peer device is missing!");
   d713c:	2320      	movs	r3, #32
   d713e:	9302      	str	r3, [sp, #8]
   d7140:	4b08      	ldr	r3, [pc, #32]	; (d7164 <_ZN8particle21BleCharacteristicImpl15onBleCharEventsEPK18hal_ble_char_evt_tPv+0x48>)
   d7142:	9003      	str	r0, [sp, #12]
   d7144:	9300      	str	r3, [sp, #0]
   d7146:	aa02      	add	r2, sp, #8
   d7148:	4603      	mov	r3, r0
   d714a:	4907      	ldr	r1, [pc, #28]	; (d7168 <_ZN8particle21BleCharacteristicImpl15onBleCharEventsEPK18hal_ble_char_evt_tPv+0x4c>)
   d714c:	2032      	movs	r0, #50	; 0x32
   d714e:	f7ff f8c1 	bl	d62d4 <log_message>
   d7152:	e005      	b.n	d7160 <_ZN8particle21BleCharacteristicImpl15onBleCharEventsEPK18hal_ble_char_evt_tPv+0x44>
                break;
            }
            if (impl->callback_) {
   d7154:	6cf5      	ldr	r5, [r6, #76]	; 0x4c
   d7156:	b11d      	cbz	r5, d7160 <_ZN8particle21BleCharacteristicImpl15onBleCharEventsEPK18hal_ble_char_evt_tPv+0x44>
                impl->callback_(event->params.data_written.data, event->params.data_written.len, *peer, impl->context_);
   d7158:	6d33      	ldr	r3, [r6, #80]	; 0x50
   d715a:	68e1      	ldr	r1, [r4, #12]
   d715c:	6920      	ldr	r0, [r4, #16]
   d715e:	47a8      	blx	r5
        }
        default: {
            break;
        }
    }
}
   d7160:	b00a      	add	sp, #40	; 0x28
   d7162:	bd70      	pop	{r4, r5, r6, pc}
   d7164:	000dbaae 	.word	0x000dbaae
   d7168:	000dba64 	.word	0x000dba64

000d716c <_ZNK8particle14BleLocalDevice2onEv>:
    stopAdvertising(); // BLE HAL will guard that device keeps broadcasting if device is in the Listening mode.
    stopScanning();
    return SYSTEM_ERROR_NONE;
}

int BleLocalDevice::on() const {
   d716c:	b513      	push	{r0, r1, r4, lr}
    WiringBleLock lk;
   d716e:	a801      	add	r0, sp, #4
   d7170:	f7ff fb4e 	bl	d6810 <_ZN8particle3ble13WiringBleLockC1Ev>
    CHECK(hal_ble_stack_init(nullptr));
   d7174:	2000      	movs	r0, #0
   d7176:	f7fe ff35 	bl	d5fe4 <hal_ble_stack_init>
   d717a:	4604      	mov	r4, r0
    stopScanning();
    return SYSTEM_ERROR_NONE;
}

int BleLocalDevice::on() const {
    WiringBleLock lk;
   d717c:	a801      	add	r0, sp, #4
   d717e:	f7ff fb55 	bl	d682c <_ZN8particle3ble13WiringBleLockD1Ev>
    CHECK(hal_ble_stack_init(nullptr));
    return SYSTEM_ERROR_NONE;
}
   d7182:	ea04 70e4 	and.w	r0, r4, r4, asr #31
   d7186:	b002      	add	sp, #8
   d7188:	bd10      	pop	{r4, pc}
	...

000d718c <_ZNK8particle14BleLocalDevice4scanEPNS_13BleScanResultEj>:
    WiringBleLock lk;
    BleScanDelegator scanner;
    return scanner.start(callback, context);
}

int BleLocalDevice::scan(BleScanResult* results, size_t resultCount) const {
   d718c:	b530      	push	{r4, r5, lr}
   d718e:	b08b      	sub	sp, #44	; 0x2c
   d7190:	460d      	mov	r5, r1
    WiringBleLock lk;
   d7192:	a801      	add	r0, sp, #4
    WiringBleLock lk;
    BleScanDelegator scanner;
    return scanner.start(callback, context);
}

int BleLocalDevice::scan(BleScanResult* results, size_t resultCount) const {
   d7194:	4614      	mov	r4, r2
    WiringBleLock lk;
   d7196:	f7ff fb3b 	bl	d6810 <_ZN8particle3ble13WiringBleLockC1Ev>
    if (results == nullptr || resultCount == 0) {
   d719a:	b1b5      	cbz	r5, d71ca <_ZNK8particle14BleLocalDevice4scanEPNS_13BleScanResultEj+0x3e>
   d719c:	b1ac      	cbz	r4, d71ca <_ZNK8particle14BleLocalDevice4scanEPNS_13BleScanResultEj+0x3e>
   d719e:	2200      	movs	r2, #0
    }

    int start(BleScanResult* results, size_t resultCount) {
        resultsPtr_ = results;
        targetCount_ = resultCount;
        CHECK(hal_ble_gap_start_scan(onScanResultCallback, this, nullptr));
   d71a0:	a902      	add	r1, sp, #8
   d71a2:	480d      	ldr	r0, [pc, #52]	; (d71d8 <_ZNK8particle14BleLocalDevice4scanEPNS_13BleScanResultEj+0x4c>)
        return foundCount_;
    }

    int start(BleScanResult* results, size_t resultCount) {
        resultsPtr_ = results;
        targetCount_ = resultCount;
   d71a4:	9406      	str	r4, [sp, #24]
   d71a6:	9202      	str	r2, [sp, #8]
   d71a8:	9203      	str	r2, [sp, #12]
   d71aa:	9204      	str	r2, [sp, #16]
    BleScanDelegator()
            : resultsPtr_(nullptr),
              targetCount_(0),
              foundCount_(0),
              callback_(nullptr),
              context_(nullptr) {
   d71ac:	9207      	str	r2, [sp, #28]
   d71ae:	9208      	str	r2, [sp, #32]
   d71b0:	9209      	str	r2, [sp, #36]	; 0x24
        CHECK(hal_ble_gap_start_scan(onScanResultCallback, this, nullptr));
        return foundCount_;
    }

    int start(BleScanResult* results, size_t resultCount) {
        resultsPtr_ = results;
   d71b2:	9505      	str	r5, [sp, #20]
        targetCount_ = resultCount;
        CHECK(hal_ble_gap_start_scan(onScanResultCallback, this, nullptr));
   d71b4:	f7fe ff1e 	bl	d5ff4 <hal_ble_gap_start_scan>
   d71b8:	2800      	cmp	r0, #0
   d71ba:	bfb8      	it	lt
   d71bc:	4604      	movlt	r4, r0
inline void* spark::DefaultAllocator::realloc(void* ptr, size_t size) {
    return ::realloc(ptr, size);
}

inline void spark::DefaultAllocator::free(void* ptr) {
    ::free(ptr);
   d71be:	9802      	ldr	r0, [sp, #8]
        return foundCount_;
   d71c0:	bfa8      	it	ge
   d71c2:	9c07      	ldrge	r4, [sp, #28]
   d71c4:	f7ff f942 	bl	d644c <free>
   d71c8:	e000      	b.n	d71cc <_ZNK8particle14BleLocalDevice4scanEPNS_13BleScanResultEj+0x40>
}

int BleLocalDevice::scan(BleScanResult* results, size_t resultCount) const {
    WiringBleLock lk;
    if (results == nullptr || resultCount == 0) {
        return SYSTEM_ERROR_INVALID_ARGUMENT;
   d71ca:	4c04      	ldr	r4, [pc, #16]	; (d71dc <_ZNK8particle14BleLocalDevice4scanEPNS_13BleScanResultEj+0x50>)
    BleScanDelegator scanner;
    return scanner.start(callback, context);
}

int BleLocalDevice::scan(BleScanResult* results, size_t resultCount) const {
    WiringBleLock lk;
   d71cc:	a801      	add	r0, sp, #4
   d71ce:	f7ff fb2d 	bl	d682c <_ZN8particle3ble13WiringBleLockD1Ev>
    if (results == nullptr || resultCount == 0) {
        return SYSTEM_ERROR_INVALID_ARGUMENT;
    }
    BleScanDelegator scanner;
    return scanner.start(results, resultCount);
}
   d71d2:	4620      	mov	r0, r4
   d71d4:	b00b      	add	sp, #44	; 0x2c
   d71d6:	bd30      	pop	{r4, r5, pc}
   d71d8:	000d76a7 	.word	0x000d76a7
   d71dc:	fffffef2 	.word	0xfffffef2

000d71e0 <_ZNSt14__shared_countILN9__gnu_cxx12_Lock_policyE0EEC1ERKS2_>:
	if (_M_pi != nullptr)
	  _M_pi->_M_release();
      }

      __shared_count(const __shared_count& __r) noexcept
      : _M_pi(__r._M_pi)
   d71e0:	680b      	ldr	r3, [r1, #0]
   d71e2:	6003      	str	r3, [r0, #0]
      {
	if (_M_pi != 0)
   d71e4:	b113      	cbz	r3, d71ec <_ZNSt14__shared_countILN9__gnu_cxx12_Lock_policyE0EEC1ERKS2_+0xc>
    }

  template<>
    inline void
    _Sp_counted_base<_S_single>::_M_add_ref_copy()
    { ++_M_use_count; }
   d71e6:	685a      	ldr	r2, [r3, #4]
   d71e8:	3201      	adds	r2, #1
   d71ea:	605a      	str	r2, [r3, #4]
      __shared_count(const __shared_count& __r) noexcept
      : _M_pi(__r._M_pi)
      {
	if (_M_pi != 0)
	  _M_pi->_M_add_ref_copy();
      }
   d71ec:	4770      	bx	lr

000d71ee <_ZN8particle17BleCharacteristicC1ERKS0_>:
        SPARK_ASSERT(false);
    }
    DEBUG("BleCharacteristic(), 0x%08X -> 0x%08X, count: %d", this, impl(), impl_.use_count());
}

BleCharacteristic::BleCharacteristic(const BleCharacteristic& characteristic)
   d71ee:	b510      	push	{r4, lr}
      template<typename _Tp1>
	__shared_ptr(const __shared_ptr<_Tp1, _Lp>& __r, _Tp* __p) noexcept
	: _M_ptr(__p), _M_refcount(__r._M_refcount) // never throws
	{ }

      __shared_ptr(const __shared_ptr&) noexcept = default;
   d71f0:	f851 3b04 	ldr.w	r3, [r1], #4
   d71f4:	4604      	mov	r4, r0
   d71f6:	f840 3b04 	str.w	r3, [r0], #4
   d71fa:	f7ff fff1 	bl	d71e0 <_ZNSt14__shared_countILN9__gnu_cxx12_Lock_policyE0EEC1ERKS2_>
        : impl_(characteristic.impl_) {
    if (!impl()) {
   d71fe:	6823      	ldr	r3, [r4, #0]
   d7200:	b90b      	cbnz	r3, d7206 <_ZN8particle17BleCharacteristicC1ERKS0_+0x18>
   d7202:	f7ff fab5 	bl	d6770 <_ZN8particle10BleServiceC2ERKNS_7BleUuidE.part.102>
        SPARK_ASSERT(false);
    }
    DEBUG("BleCharacteristic(copy), 0x%08X => 0x%08X -> 0x%08X, count: %d", &characteristic, this, impl(), impl_.use_count());
}
   d7206:	4620      	mov	r0, r4
   d7208:	bd10      	pop	{r4, pc}

000d720a <_ZNSt12__shared_ptrIN8particle14BleServiceImplELN9__gnu_cxx12_Lock_policyE0EEC1ERKS4_>:
   d720a:	b510      	push	{r4, lr}
   d720c:	f851 3b04 	ldr.w	r3, [r1], #4
   d7210:	4604      	mov	r4, r0
   d7212:	f840 3b04 	str.w	r3, [r0], #4
   d7216:	f7ff ffe3 	bl	d71e0 <_ZNSt14__shared_countILN9__gnu_cxx12_Lock_policyE0EEC1ERKS2_>
   d721a:	4620      	mov	r0, r4
   d721c:	bd10      	pop	{r4, pc}

000d721e <_ZN8particle17BleCharacteristicD1Ev>:
    impl_ = characteristic.impl_;
    DEBUG("now:0x%08X -> 0x%08X, count: %d", this, impl(), impl_.use_count());
    return *this;
}

BleCharacteristic::~BleCharacteristic() {
   d721e:	b510      	push	{r4, lr}
   d7220:	4604      	mov	r4, r0
      __shared_ptr& operator=(const __shared_ptr&) noexcept = default;
      ~__shared_ptr() = default;
   d7222:	3004      	adds	r0, #4
   d7224:	f7fd f9e4 	bl	d45f0 <_ZNSt14__shared_countILN9__gnu_cxx12_Lock_policyE0EED1Ev>
    DEBUG("~BleCharacteristic(), 0x%08X -> 0x%08X, count: %d", this, impl(), impl_.use_count() - 1);
}
   d7228:	4620      	mov	r0, r4
   d722a:	bd10      	pop	{r4, pc}

000d722c <_ZN8particle13BlePeerDeviceD1Ev>:
    if (!impl()) {
        SPARK_ASSERT(false);
    }
}

BlePeerDevice::~BlePeerDevice() {
   d722c:	b510      	push	{r4, lr}
   d722e:	4604      	mov	r4, r0
   d7230:	3004      	adds	r0, #4
   d7232:	f7fd f9dd 	bl	d45f0 <_ZNSt14__shared_countILN9__gnu_cxx12_Lock_policyE0EED1Ev>
    DEBUG("~BlePeerDevice(), 0x%08X -> 0x%08X, count: %d", this, impl(), impl_.use_count() - 1);
}
   d7236:	4620      	mov	r0, r4
   d7238:	bd10      	pop	{r4, pc}

000d723a <_ZN5spark6VectorIN8particle10BleServiceENS_16DefaultAllocatorEED1Ev>:
inline spark::Vector<T, AllocatorT>::Vector(Vector<T, AllocatorT>&& vector) : Vector() {
    swap(*this, vector);
}

template<typename T, typename AllocatorT>
inline spark::Vector<T, AllocatorT>::~Vector() {
   d723a:	b570      	push	{r4, r5, r6, lr}
    destruct(data_, data_ + size_);
   d723c:	6804      	ldr	r4, [r0, #0]
   d723e:	6843      	ldr	r3, [r0, #4]
inline spark::Vector<T, AllocatorT>::Vector(Vector<T, AllocatorT>&& vector) : Vector() {
    swap(*this, vector);
}

template<typename T, typename AllocatorT>
inline spark::Vector<T, AllocatorT>::~Vector() {
   d7240:	4605      	mov	r5, r0
    destruct(data_, data_ + size_);
   d7242:	eb04 06c3 	add.w	r6, r4, r3, lsl #3
            new(p) T(std::forward<ArgsT>(args)...);
        }
    }

    static void destruct(T* p, const T* end) {
        for (; p != end; ++p) {
   d7246:	42a6      	cmp	r6, r4
   d7248:	d004      	beq.n	d7254 <_ZN5spark6VectorIN8particle10BleServiceENS_16DefaultAllocatorEED1Ev+0x1a>
   d724a:	1d20      	adds	r0, r4, #4
   d724c:	f7fd f9d0 	bl	d45f0 <_ZNSt14__shared_countILN9__gnu_cxx12_Lock_policyE0EED1Ev>
   d7250:	3408      	adds	r4, #8
   d7252:	e7f8      	b.n	d7246 <_ZN5spark6VectorIN8particle10BleServiceENS_16DefaultAllocatorEED1Ev+0xc>
inline void* spark::DefaultAllocator::realloc(void* ptr, size_t size) {
    return ::realloc(ptr, size);
}

inline void spark::DefaultAllocator::free(void* ptr) {
    ::free(ptr);
   d7254:	6828      	ldr	r0, [r5, #0]
   d7256:	f7ff f8f9 	bl	d644c <free>

template<typename T, typename AllocatorT>
inline spark::Vector<T, AllocatorT>::~Vector() {
    destruct(data_, data_ + size_);
    AllocatorT::free(data_);
}
   d725a:	4628      	mov	r0, r5
   d725c:	bd70      	pop	{r4, r5, r6, pc}

000d725e <_ZN5spark6VectorIN8particle17BleCharacteristicENS_16DefaultAllocatorEED1Ev>:
inline spark::Vector<T, AllocatorT>::Vector(Vector<T, AllocatorT>&& vector) : Vector() {
    swap(*this, vector);
}

template<typename T, typename AllocatorT>
inline spark::Vector<T, AllocatorT>::~Vector() {
   d725e:	b570      	push	{r4, r5, r6, lr}
    destruct(data_, data_ + size_);
   d7260:	6804      	ldr	r4, [r0, #0]
   d7262:	6843      	ldr	r3, [r0, #4]
inline spark::Vector<T, AllocatorT>::Vector(Vector<T, AllocatorT>&& vector) : Vector() {
    swap(*this, vector);
}

template<typename T, typename AllocatorT>
inline spark::Vector<T, AllocatorT>::~Vector() {
   d7264:	4605      	mov	r5, r0
    destruct(data_, data_ + size_);
   d7266:	eb04 06c3 	add.w	r6, r4, r3, lsl #3
            new(p) T(std::forward<ArgsT>(args)...);
        }
    }

    static void destruct(T* p, const T* end) {
        for (; p != end; ++p) {
   d726a:	42a6      	cmp	r6, r4
   d726c:	d004      	beq.n	d7278 <_ZN5spark6VectorIN8particle17BleCharacteristicENS_16DefaultAllocatorEED1Ev+0x1a>
   d726e:	1d20      	adds	r0, r4, #4
   d7270:	f7fd f9be 	bl	d45f0 <_ZNSt14__shared_countILN9__gnu_cxx12_Lock_policyE0EED1Ev>
   d7274:	3408      	adds	r4, #8
   d7276:	e7f8      	b.n	d726a <_ZN5spark6VectorIN8particle17BleCharacteristicENS_16DefaultAllocatorEED1Ev+0xc>
inline void* spark::DefaultAllocator::realloc(void* ptr, size_t size) {
    return ::realloc(ptr, size);
}

inline void spark::DefaultAllocator::free(void* ptr) {
    ::free(ptr);
   d7278:	6828      	ldr	r0, [r5, #0]
   d727a:	f7ff f8e7 	bl	d644c <free>

template<typename T, typename AllocatorT>
inline spark::Vector<T, AllocatorT>::~Vector() {
    destruct(data_, data_ + size_);
    AllocatorT::free(data_);
}
   d727e:	4628      	mov	r0, r5
   d7280:	bd70      	pop	{r4, r5, r6, pc}

000d7282 <_ZNSt19_Sp_counted_deleterIPN8particle17BlePeerDeviceImplENSt12__shared_ptrIS1_LN9__gnu_cxx12_Lock_policyE0EE8_DeleterISaIS1_EEES8_LS5_0EE10_M_disposeEv>:
      : _M_impl(__p, __d, __a) { }

      ~_Sp_counted_deleter() noexcept { }

      virtual void
      _M_dispose() noexcept
   d7282:	b510      	push	{r4, lr}
      { _M_impl._M_del()(_M_impl._M_ptr); }
   d7284:	6904      	ldr	r4, [r0, #16]
              address_(),
              servicesDiscovered_(false),
              characteristicsDiscovered_(false) {
    }

    ~BlePeerDeviceImpl() = default;
   d7286:	f104 0018 	add.w	r0, r4, #24
   d728a:	f7ff ffe8 	bl	d725e <_ZN5spark6VectorIN8particle17BleCharacteristicENS_16DefaultAllocatorEED1Ev>
   d728e:	f104 000c 	add.w	r0, r4, #12
   d7292:	f7ff ffd2 	bl	d723a <_ZN5spark6VectorIN8particle10BleServiceENS_16DefaultAllocatorEED1Ev>
   d7296:	4620      	mov	r0, r4
   d7298:	e8bd 4010 	ldmia.w	sp!, {r4, lr}
   d729c:	f7fc beff 	b.w	d409e <_ZdlPv>

000d72a0 <_ZN8particle14BleLocalDeviceD1Ev>:
        return impl_.get();
    }

private:
    BleLocalDevice();
    ~BleLocalDevice() = default;
   d72a0:	b5f8      	push	{r3, r4, r5, r6, r7, lr}

      /// Destructor, invokes the deleter if the stored pointer is not null.
      ~unique_ptr() noexcept
      {
	auto& __ptr = std::get<0>(_M_t);
	if (__ptr != nullptr)
   d72a2:	6804      	ldr	r4, [r0, #0]
   d72a4:	4607      	mov	r7, r0
   d72a6:	b1c4      	cbz	r4, d72da <_ZN8particle14BleLocalDeviceD1Ev+0x3a>
    swap(*this, vector);
}

template<typename T, typename AllocatorT>
inline spark::Vector<T, AllocatorT>::~Vector() {
    destruct(data_, data_ + size_);
   d72a8:	69a5      	ldr	r5, [r4, #24]
   d72aa:	69e3      	ldr	r3, [r4, #28]
   d72ac:	eb05 06c3 	add.w	r6, r5, r3, lsl #3
            new(p) T(std::forward<ArgsT>(args)...);
        }
    }

    static void destruct(T* p, const T* end) {
        for (; p != end; ++p) {
   d72b0:	42ae      	cmp	r6, r5
   d72b2:	d004      	beq.n	d72be <_ZN8particle14BleLocalDeviceD1Ev+0x1e>
	: _M_ptr(__p), _M_refcount(__r._M_refcount) // never throws
	{ }

      __shared_ptr(const __shared_ptr&) noexcept = default;
      __shared_ptr& operator=(const __shared_ptr&) noexcept = default;
      ~__shared_ptr() = default;
   d72b4:	1d28      	adds	r0, r5, #4
   d72b6:	f7fd f99b 	bl	d45f0 <_ZNSt14__shared_countILN9__gnu_cxx12_Lock_policyE0EED1Ev>
   d72ba:	3508      	adds	r5, #8
   d72bc:	e7f8      	b.n	d72b0 <_ZN8particle14BleLocalDeviceD1Ev+0x10>
inline void* spark::DefaultAllocator::realloc(void* ptr, size_t size) {
    return ::realloc(ptr, size);
}

inline void spark::DefaultAllocator::free(void* ptr) {
    ::free(ptr);
   d72be:	69a0      	ldr	r0, [r4, #24]
   d72c0:	f7ff f8c4 	bl	d644c <free>
              disconnectedCb_(nullptr),
              connectedContext_(nullptr),
              disconnectedContext_(nullptr) {
    }

    ~BleLocalDeviceImpl() = default;
   d72c4:	f104 000c 	add.w	r0, r4, #12
   d72c8:	f7ff ffc9 	bl	d725e <_ZN5spark6VectorIN8particle17BleCharacteristicENS_16DefaultAllocatorEED1Ev>
   d72cc:	4620      	mov	r0, r4
   d72ce:	f7ff ffb4 	bl	d723a <_ZN5spark6VectorIN8particle10BleServiceENS_16DefaultAllocatorEED1Ev>
      {
	static_assert(!is_void<_Tp>::value,
		      "can't delete pointer to incomplete type");
	static_assert(sizeof(_Tp)>0,
		      "can't delete pointer to incomplete type");
	delete __ptr;
   d72d2:	2134      	movs	r1, #52	; 0x34
   d72d4:	4620      	mov	r0, r4
   d72d6:	f003 f9bb 	bl	da650 <_ZdlPvj>
   d72da:	4638      	mov	r0, r7
   d72dc:	bdf8      	pop	{r3, r4, r5, r6, r7, pc}
	...

000d72e0 <_ZN8particle13BlePeerDeviceC1Ev>:


/*******************************************************
 * BlePeerDevice class
 */
BlePeerDevice::BlePeerDevice()
   d72e0:	b573      	push	{r0, r1, r4, r5, r6, lr}
        };

      template<typename _Alloc, typename... _Args>
	__shared_ptr(_Sp_make_shared_tag __tag, const _Alloc& __a,
		     _Args&&... __args)
	: _M_ptr(), _M_refcount()
   d72e2:	2500      	movs	r5, #0
   d72e4:	6005      	str	r5, [r0, #0]

  template<_Lock_policy _Lp>
    class __shared_count
    {
    public:
      constexpr __shared_count() noexcept : _M_pi(0)
   d72e6:	6045      	str	r5, [r0, #4]
   d72e8:	4606      	mov	r6, r0
      allocate(size_type __n, const void* = 0)
      { 
	if (__n > this->max_size())
	  std::__throw_bad_alloc();

	return static_cast<_Tp*>(::operator new(__n * sizeof(_Tp)));
   d72ea:	2024      	movs	r0, #36	; 0x24
   d72ec:	f7fc fed3 	bl	d4096 <_Znwj>

#if __cplusplus >= 201103L
      template<typename _Up, typename... _Args>
        void
        construct(_Up* __p, _Args&&... __args)
	{ ::new((void *)__p) _Up(std::forward<_Args>(__args)...); }
   d72f0:	4604      	mov	r4, r0
   d72f2:	b178      	cbz	r0, d7314 <_ZN8particle13BlePeerDeviceC1Ev+0x34>
public:
    BlePeerDeviceImpl()
            : connHandle_(BLE_INVALID_CONN_HANDLE),
              address_(),
              servicesDiscovered_(false),
              characteristicsDiscovered_(false) {
   d72f4:	4603      	mov	r3, r0
   d72f6:	f64f 72ff 	movw	r2, #65535	; 0xffff
   d72fa:	f823 2b02 	strh.w	r2, [r3], #2

/*******************************************************
 * BleAddress class
 */
BleAddress::BleAddress()
        : address_{} {
   d72fe:	f8c0 5002 	str.w	r5, [r0, #2]
   d7302:	605d      	str	r5, [r3, #4]
public:
    BlePeerDeviceImpl()
            : connHandle_(BLE_INVALID_CONN_HANDLE),
              address_(),
              servicesDiscovered_(false),
              characteristicsDiscovered_(false) {
   d7304:	7285      	strb	r5, [r0, #10]
   d7306:	72c5      	strb	r5, [r0, #11]
// spark::Vector
template<typename T, typename AllocatorT>
inline spark::Vector<T, AllocatorT>::Vector() :
        data_(nullptr),
        size_(0),
        capacity_(0) {
   d7308:	60c5      	str	r5, [r0, #12]
   d730a:	6105      	str	r5, [r0, #16]
   d730c:	6145      	str	r5, [r0, #20]
   d730e:	6185      	str	r5, [r0, #24]
   d7310:	61c5      	str	r5, [r0, #28]
   d7312:	6205      	str	r5, [r0, #32]
	__shared_count(_Ptr __p, _Deleter __d)
	: __shared_count(__p, std::move(__d), allocator<void>())
	{ }

      template<typename _Ptr, typename _Deleter, typename _Alloc>
	__shared_count(_Ptr __p, _Deleter __d, _Alloc __a) : _M_pi(0)
   d7314:	2300      	movs	r3, #0
      allocate(size_type __n, const void* = 0)
      { 
	if (__n > this->max_size())
	  std::__throw_bad_alloc();

	return static_cast<_Tp*>(::operator new(__n * sizeof(_Tp)));
   d7316:	2014      	movs	r0, #20
   d7318:	9301      	str	r3, [sp, #4]
   d731a:	f7fc febc 	bl	d4096 <_Znwj>
	  __try
	    {
	      typename _Sp_cd_type::__allocator_type __a2(__a);
	      auto __guard = std::__allocate_guarded(__a2);
	      _Sp_cd_type* __mem = __guard.get();
	      ::new (__mem) _Sp_cd_type(__p, std::move(__d), std::move(__a));
   d731e:	4603      	mov	r3, r0
   d7320:	b128      	cbz	r0, d732e <_ZN8particle13BlePeerDeviceC1Ev+0x4e>
    class _Sp_counted_base
    : public _Mutex_base<_Lp>
    {
    public:  
      _Sp_counted_base() noexcept
      : _M_use_count(1), _M_weak_count(1) { }
   d7322:	2201      	movs	r2, #1
   d7324:	6042      	str	r2, [r0, #4]
   d7326:	6082      	str	r2, [r0, #8]
      _Sp_counted_deleter(_Ptr __p, _Deleter __d) noexcept
      : _M_impl(__p, __d, _Alloc()) { }

      // __d(__p) must not throw.
      _Sp_counted_deleter(_Ptr __p, _Deleter __d, const _Alloc& __a) noexcept
      : _M_impl(__p, __d, __a) { }
   d7328:	4a08      	ldr	r2, [pc, #32]	; (d734c <_ZN8particle13BlePeerDeviceC1Ev+0x6c>)
   d732a:	6002      	str	r2, [r0, #0]
	typedef _Sp_ebo_helper<0, _Deleter>	_Del_base;
	typedef _Sp_ebo_helper<1, _Alloc>	_Alloc_base;

      public:
	_Impl(_Ptr __p, _Deleter __d, const _Alloc& __a) noexcept
	: _M_ptr(__p), _Del_base(__d), _Alloc_base(__a)
   d732c:	6104      	str	r4, [r0, #16]

      void
      _M_swap(__shared_count& __r) noexcept
      {
	_Sp_counted_base<_Lp>* __tmp = __r._M_pi;
	__r._M_pi = _M_pi;
   d732e:	a802      	add	r0, sp, #8
   d7330:	6872      	ldr	r2, [r6, #4]
   d7332:	f840 2d04 	str.w	r2, [r0, #-4]!
	_M_pi = __tmp;
   d7336:	6073      	str	r3, [r6, #4]
	  __traits::construct(__del._M_alloc, __ptr,
			      std::forward<_Args>(__args)...);
	  __guard = nullptr;
	  __shared_count<_Lp> __count(__ptr, __del, __del._M_alloc);
	  _M_refcount._M_swap(__count);
	  _M_ptr = __ptr;
   d7338:	6034      	str	r4, [r6, #0]
	  // _GLIBCXX_RESOLVE_LIB_DEFECTS
	  // 2070. allocate_shared should use allocator_traits<A>::construct
	  __traits::construct(__del._M_alloc, __ptr,
			      std::forward<_Args>(__args)...);
	  __guard = nullptr;
	  __shared_count<_Lp> __count(__ptr, __del, __del._M_alloc);
   d733a:	f7fd f959 	bl	d45f0 <_ZNSt14__shared_countILN9__gnu_cxx12_Lock_policyE0EED1Ev>
/*******************************************************
 * BlePeerDevice class
 */
BlePeerDevice::BlePeerDevice()
        : impl_(std::make_shared<BlePeerDeviceImpl>()) {
    if (!impl()) {
   d733e:	6833      	ldr	r3, [r6, #0]
   d7340:	b90b      	cbnz	r3, d7346 <_ZN8particle13BlePeerDeviceC1Ev+0x66>
   d7342:	f7ff fa15 	bl	d6770 <_ZN8particle10BleServiceC2ERKNS_7BleUuidE.part.102>
        SPARK_ASSERT(false);
    }
}
   d7346:	4630      	mov	r0, r6
   d7348:	b002      	add	sp, #8
   d734a:	bd70      	pop	{r4, r5, r6, pc}
   d734c:	000dba50 	.word	0x000dba50

000d7350 <_ZNSt14__shared_countILN9__gnu_cxx12_Lock_policyE0EEaSERKS2_>:
	if (_M_pi != 0)
	  _M_pi->_M_add_ref_copy();
      }

      __shared_count&
      operator=(const __shared_count& __r) noexcept
   d7350:	b538      	push	{r3, r4, r5, lr}
      {
	_Sp_counted_base<_Lp>* __tmp = __r._M_pi;
   d7352:	680c      	ldr	r4, [r1, #0]
	if (__tmp != _M_pi)
   d7354:	6803      	ldr	r3, [r0, #0]
   d7356:	429c      	cmp	r4, r3
	if (_M_pi != 0)
	  _M_pi->_M_add_ref_copy();
      }

      __shared_count&
      operator=(const __shared_count& __r) noexcept
   d7358:	4605      	mov	r5, r0
      {
	_Sp_counted_base<_Lp>* __tmp = __r._M_pi;
	if (__tmp != _M_pi)
   d735a:	d00c      	beq.n	d7376 <_ZNSt14__shared_countILN9__gnu_cxx12_Lock_policyE0EEaSERKS2_+0x26>
	  {
	    if (__tmp != 0)
   d735c:	b114      	cbz	r4, d7364 <_ZNSt14__shared_countILN9__gnu_cxx12_Lock_policyE0EEaSERKS2_+0x14>
    }

  template<>
    inline void
    _Sp_counted_base<_S_single>::_M_add_ref_copy()
    { ++_M_use_count; }
   d735e:	6863      	ldr	r3, [r4, #4]
   d7360:	3301      	adds	r3, #1
   d7362:	6063      	str	r3, [r4, #4]
	_Sp_counted_base<_Lp>* __tmp = __r._M_pi;
	if (__tmp != _M_pi)
	  {
	    if (__tmp != 0)
	      __tmp->_M_add_ref_copy();
	    if (_M_pi != 0)
   d7364:	6828      	ldr	r0, [r5, #0]
   d7366:	b128      	cbz	r0, d7374 <_ZNSt14__shared_countILN9__gnu_cxx12_Lock_policyE0EEaSERKS2_+0x24>

  template<>
    inline void
    _Sp_counted_base<_S_single>::_M_release() noexcept
    {
      if (--_M_use_count == 0)
   d7368:	6843      	ldr	r3, [r0, #4]
   d736a:	3b01      	subs	r3, #1
   d736c:	6043      	str	r3, [r0, #4]
   d736e:	b90b      	cbnz	r3, d7374 <_ZNSt14__shared_countILN9__gnu_cxx12_Lock_policyE0EEaSERKS2_+0x24>
   d7370:	f7ff fa08 	bl	d6784 <_ZNSt16_Sp_counted_baseILN9__gnu_cxx12_Lock_policyE0EE10_M_releaseEv.part.4.constprop.112>
	  {
	    if (__tmp != 0)
	      __tmp->_M_add_ref_copy();
	    if (_M_pi != 0)
	      _M_pi->_M_release();
	    _M_pi = __tmp;
   d7374:	602c      	str	r4, [r5, #0]
	  }
	return *this;
      }
   d7376:	4628      	mov	r0, r5
   d7378:	bd38      	pop	{r3, r4, r5, pc}

000d737a <_ZN8particle17BleCharacteristicaSERKS0_>:
        SPARK_ASSERT(false);
    }
    DEBUG("BleCharacteristic(), construct(...):0x%08X -> 0x%08X, count: %d", this, impl(), impl_.use_count());
}

BleCharacteristic& BleCharacteristic::operator=(const BleCharacteristic& characteristic) {
   d737a:	b510      	push	{r4, lr}
   d737c:	6802      	ldr	r2, [r0, #0]
   d737e:	680b      	ldr	r3, [r1, #0]
   d7380:	4604      	mov	r4, r0
        callback_ = callback;
        context_ = context;
    }

    void inheritCallback(BleCharacteristicImpl& charImpl) {
        if (charImpl.callback_) {
   d7382:	6cd0      	ldr	r0, [r2, #76]	; 0x4c
   d7384:	b110      	cbz	r0, d738c <_ZN8particle17BleCharacteristicaSERKS0_+0x12>
            callback_ = charImpl.callback_;
   d7386:	64d8      	str	r0, [r3, #76]	; 0x4c
            context_ = charImpl.context_;
   d7388:	6d12      	ldr	r2, [r2, #80]	; 0x50
   d738a:	651a      	str	r2, [r3, #80]	; 0x50
    __enable_shared_from_this_helper(const __shared_count<_Lp>&, ...) noexcept
    { }


  template<typename _Tp, _Lock_policy _Lp>
    class __shared_ptr
   d738c:	4620      	mov	r0, r4
   d738e:	f851 3b04 	ldr.w	r3, [r1], #4
   d7392:	f840 3b04 	str.w	r3, [r0], #4
   d7396:	f7ff ffdb 	bl	d7350 <_ZNSt14__shared_countILN9__gnu_cxx12_Lock_policyE0EEaSERKS2_>
    DEBUG("BleCharacteristic(), operator=:0x%08X -> 0x%08X, count: %d", this, impl(), impl_.use_count());
    characteristic.impl()->inheritCallback(*this->impl());
    impl_ = characteristic.impl_;
    DEBUG("now:0x%08X -> 0x%08X, count: %d", this, impl(), impl_.use_count());
    return *this;
}
   d739a:	4620      	mov	r0, r4
   d739c:	bd10      	pop	{r4, pc}

000d739e <_ZNK8particle13BlePeerDevice23getCharacteristicByUUIDERNS_17BleCharacteristicERKNS_7BleUuidE>:

bool BlePeerDevice::getCharacteristicByDescription(BleCharacteristic& characteristic, const String& desc) const {
    return getCharacteristicByDescription(characteristic, desc.c_str());
}

bool BlePeerDevice::getCharacteristicByUUID(BleCharacteristic& characteristic, const BleUuid& uuid) const {
   d739e:	e92d 43f0 	stmdb	sp!, {r4, r5, r6, r7, r8, r9, lr}
   d73a2:	6803      	ldr	r3, [r0, #0]
   d73a4:	699c      	ldr	r4, [r3, #24]
    return data_;
}

template<typename T, typename AllocatorT>
T* spark::Vector<T, AllocatorT>::end() {
    return data_ + size_;
   d73a6:	69de      	ldr	r6, [r3, #28]
   d73a8:	b087      	sub	sp, #28
   d73aa:	460f      	mov	r7, r1
   d73ac:	4690      	mov	r8, r2
   d73ae:	eb04 06c6 	add.w	r6, r4, r6, lsl #3
    for (auto& existChar : impl()->characteristics()) {
   d73b2:	42b4      	cmp	r4, r6
   d73b4:	46a1      	mov	r9, r4
   d73b6:	d011      	beq.n	d73dc <_ZNK8particle13BlePeerDevice23getCharacteristicByUUIDERNS_17BleCharacteristicERKNS_7BleUuidE+0x3e>
    BleCharacteristicHandles& attrHandles() {
        return attrHandles_;
    }

    BleUuid& charUUID() {
        return charUuid_;
   d73b8:	f854 1b08 	ldr.w	r1, [r4], #8
bool BleCharacteristic::valid() const {
    return (impl()->local() || impl()->connHandle() != BLE_INVALID_CONN_HANDLE);
}

BleUuid BleCharacteristic::UUID() const {
    return impl()->charUUID();
   d73bc:	a801      	add	r0, sp, #4
   d73be:	3114      	adds	r1, #20
   d73c0:	f7ff faf4 	bl	d69ac <_ZN8particle7BleUuidC1ERKS0_>
    return getCharacteristicByDescription(characteristic, desc.c_str());
}

bool BlePeerDevice::getCharacteristicByUUID(BleCharacteristic& characteristic, const BleUuid& uuid) const {
    for (auto& existChar : impl()->characteristics()) {
        if (existChar.UUID() == uuid) {
   d73c4:	4641      	mov	r1, r8
   d73c6:	a801      	add	r0, sp, #4
   d73c8:	f7ff fb5c 	bl	d6a84 <_ZNK8particle7BleUuideqERKS0_>
   d73cc:	4605      	mov	r5, r0
   d73ce:	2800      	cmp	r0, #0
   d73d0:	d0ef      	beq.n	d73b2 <_ZNK8particle13BlePeerDevice23getCharacteristicByUUIDERNS_17BleCharacteristicERKNS_7BleUuidE+0x14>
            characteristic = existChar;
   d73d2:	4649      	mov	r1, r9
   d73d4:	4638      	mov	r0, r7
   d73d6:	f7ff ffd0 	bl	d737a <_ZN8particle17BleCharacteristicaSERKS0_>
            return true;
   d73da:	e000      	b.n	d73de <_ZNK8particle13BlePeerDevice23getCharacteristicByUUIDERNS_17BleCharacteristicERKNS_7BleUuidE+0x40>
        }
    }
    return false;
   d73dc:	2500      	movs	r5, #0
}
   d73de:	4628      	mov	r0, r5
   d73e0:	b007      	add	sp, #28
   d73e2:	e8bd 83f0 	ldmia.w	sp!, {r4, r5, r6, r7, r8, r9, pc}

000d73e6 <_ZN8particle13BlePeerDeviceaSERKS0_>:

BlePeerDevice::~BlePeerDevice() {
    DEBUG("~BlePeerDevice(), 0x%08X -> 0x%08X, count: %d", this, impl(), impl_.use_count() - 1);
}

BlePeerDevice& BlePeerDevice::operator=(const BlePeerDevice& peer) {
   d73e6:	b510      	push	{r4, lr}
   d73e8:	f851 3b04 	ldr.w	r3, [r1], #4
   d73ec:	4604      	mov	r4, r0
   d73ee:	f840 3b04 	str.w	r3, [r0], #4
   d73f2:	f7ff ffad 	bl	d7350 <_ZNSt14__shared_countILN9__gnu_cxx12_Lock_policyE0EEaSERKS2_>
    impl_ = peer.impl_;
    return *this;
}
   d73f6:	4620      	mov	r0, r4
   d73f8:	bd10      	pop	{r4, pc}

000d73fa <_ZN5spark6VectorIN8particle13BlePeerDeviceENS_16DefaultAllocatorEE4moveIS2_Li0EEEvPS2_S6_S6_>:
        ::memmove(dest, p, (end - p) * sizeof(T));
    }

    template<PARTICLE_VECTOR_ENABLE_IF_NOT_TRIVIALLY_COPYABLE(T)>
    static void move(T* dest, T* p, T* end) {
        if (dest > p && dest < end) {
   d73fa:	4288      	cmp	r0, r1
    static void move(T* dest, const T* p, const T* end) {
        ::memmove(dest, p, (end - p) * sizeof(T));
    }

    template<PARTICLE_VECTOR_ENABLE_IF_NOT_TRIVIALLY_COPYABLE(T)>
    static void move(T* dest, T* p, T* end) {
   d73fc:	b570      	push	{r4, r5, r6, lr}
   d73fe:	4615      	mov	r5, r2
        if (dest > p && dest < end) {
   d7400:	d91a      	bls.n	d7438 <_ZN5spark6VectorIN8particle13BlePeerDeviceENS_16DefaultAllocatorEE4moveIS2_Li0EEEvPS2_S6_S6_+0x3e>
   d7402:	4290      	cmp	r0, r2
   d7404:	d219      	bcs.n	d743a <_ZN5spark6VectorIN8particle13BlePeerDeviceENS_16DefaultAllocatorEE4moveIS2_Li0EEEvPS2_S6_S6_+0x40>
            // Move elements in reverse order
            --p;
            --end;
            dest += end - p - 1;
   d7406:	f1a1 0608 	sub.w	r6, r1, #8
   d740a:	1a51      	subs	r1, r2, r1
   d740c:	3904      	subs	r1, #4
   d740e:	1f15      	subs	r5, r2, #4
   d7410:	1844      	adds	r4, r0, r1
            for (; end != p; --end, --dest) {
   d7412:	1f2b      	subs	r3, r5, #4
   d7414:	429e      	cmp	r6, r3
   d7416:	d025      	beq.n	d7464 <_ZN5spark6VectorIN8particle13BlePeerDeviceENS_16DefaultAllocatorEE4moveIS2_Li0EEEvPS2_S6_S6_+0x6a>
                new(dest) T(std::move(*end));
   d7418:	2c04      	cmp	r4, #4
   d741a:	d007      	beq.n	d742c <_ZN5spark6VectorIN8particle13BlePeerDeviceENS_16DefaultAllocatorEE4moveIS2_Li0EEEvPS2_S6_S6_+0x32>
      template<typename _Tp1>
	__shared_ptr(const __shared_ptr<_Tp1, _Lp>& __r, _Tp* __p) noexcept
	: _M_ptr(__p), _M_refcount(__r._M_refcount) // never throws
	{ }

      __shared_ptr(const __shared_ptr&) noexcept = default;
   d741c:	f855 3c04 	ldr.w	r3, [r5, #-4]
   d7420:	f844 3c04 	str.w	r3, [r4, #-4]
   d7424:	4629      	mov	r1, r5
   d7426:	4620      	mov	r0, r4
   d7428:	f7ff feda 	bl	d71e0 <_ZNSt14__shared_countILN9__gnu_cxx12_Lock_policyE0EEC1ERKS2_>
      __shared_ptr& operator=(const __shared_ptr&) noexcept = default;
      ~__shared_ptr() = default;
   d742c:	4628      	mov	r0, r5
   d742e:	f7fd f8df 	bl	d45f0 <_ZNSt14__shared_countILN9__gnu_cxx12_Lock_policyE0EED1Ev>
   d7432:	3d08      	subs	r5, #8
   d7434:	3c08      	subs	r4, #8
   d7436:	e7ec      	b.n	d7412 <_ZN5spark6VectorIN8particle13BlePeerDeviceENS_16DefaultAllocatorEE4moveIS2_Li0EEEvPS2_S6_S6_+0x18>
                end->~T();
            }
        } else if (dest != p) {
   d7438:	d014      	beq.n	d7464 <_ZN5spark6VectorIN8particle13BlePeerDeviceENS_16DefaultAllocatorEE4moveIS2_Li0EEEvPS2_S6_S6_+0x6a>
   d743a:	1d0c      	adds	r4, r1, #4
   d743c:	1d06      	adds	r6, r0, #4
            for (; p != end; ++p, ++dest) {
   d743e:	1f23      	subs	r3, r4, #4
   d7440:	429d      	cmp	r5, r3
   d7442:	d00f      	beq.n	d7464 <_ZN5spark6VectorIN8particle13BlePeerDeviceENS_16DefaultAllocatorEE4moveIS2_Li0EEEvPS2_S6_S6_+0x6a>
                new(dest) T(std::move(*p));
   d7444:	2e04      	cmp	r6, #4
   d7446:	d007      	beq.n	d7458 <_ZN5spark6VectorIN8particle13BlePeerDeviceENS_16DefaultAllocatorEE4moveIS2_Li0EEEvPS2_S6_S6_+0x5e>
      template<typename _Tp1>
	__shared_ptr(const __shared_ptr<_Tp1, _Lp>& __r, _Tp* __p) noexcept
	: _M_ptr(__p), _M_refcount(__r._M_refcount) // never throws
	{ }

      __shared_ptr(const __shared_ptr&) noexcept = default;
   d7448:	f854 3c04 	ldr.w	r3, [r4, #-4]
   d744c:	f846 3c04 	str.w	r3, [r6, #-4]
   d7450:	4621      	mov	r1, r4
   d7452:	4630      	mov	r0, r6
   d7454:	f7ff fec4 	bl	d71e0 <_ZNSt14__shared_countILN9__gnu_cxx12_Lock_policyE0EEC1ERKS2_>
      __shared_ptr& operator=(const __shared_ptr&) noexcept = default;
      ~__shared_ptr() = default;
   d7458:	4620      	mov	r0, r4
   d745a:	f7fd f8c9 	bl	d45f0 <_ZNSt14__shared_countILN9__gnu_cxx12_Lock_policyE0EED1Ev>
   d745e:	3408      	adds	r4, #8
   d7460:	3608      	adds	r6, #8
            for (; end != p; --end, --dest) {
                new(dest) T(std::move(*end));
                end->~T();
            }
        } else if (dest != p) {
            for (; p != end; ++p, ++dest) {
   d7462:	e7ec      	b.n	d743e <_ZN5spark6VectorIN8particle13BlePeerDeviceENS_16DefaultAllocatorEE4moveIS2_Li0EEEvPS2_S6_S6_+0x44>
   d7464:	bd70      	pop	{r4, r5, r6, pc}

000d7466 <_ZN5spark6VectorIN8particle13BlePeerDeviceENS_16DefaultAllocatorEE9removeOneERKS2_>:
    move(p, p + n, data_ + size_);
    size_ -= n;
}

template<typename T, typename AllocatorT>
inline bool spark::Vector<T, AllocatorT>::removeOne(const T &value) {
   d7466:	e92d 41f0 	stmdb	sp!, {r4, r5, r6, r7, r8, lr}
    T* const p = find(data_, data_ + size_, value);
   d746a:	6804      	ldr	r4, [r0, #0]
   d746c:	6843      	ldr	r3, [r0, #4]
    move(p, p + n, data_ + size_);
    size_ -= n;
}

template<typename T, typename AllocatorT>
inline bool spark::Vector<T, AllocatorT>::removeOne(const T &value) {
   d746e:	4605      	mov	r5, r0
   d7470:	4688      	mov	r8, r1
    T* const p = find(data_, data_ + size_, value);
   d7472:	eb04 07c3 	add.w	r7, r4, r3, lsl #3
            }
        }
    }

    static T* find(T* p, const T* end, const T& value) {
        for (; p != end; ++p) {
   d7476:	42a7      	cmp	r7, r4
   d7478:	d018      	beq.n	d74ac <_ZN5spark6VectorIN8particle13BlePeerDeviceENS_16DefaultAllocatorEE9removeOneERKS2_+0x46>
            if (*p == value) {
   d747a:	4641      	mov	r1, r8
   d747c:	4620      	mov	r0, r4
   d747e:	f7ff fde7 	bl	d7050 <_ZNK8particle13BlePeerDeviceeqERKS0_>
   d7482:	4606      	mov	r6, r0
   d7484:	b908      	cbnz	r0, d748a <_ZN5spark6VectorIN8particle13BlePeerDeviceENS_16DefaultAllocatorEE9removeOneERKS2_+0x24>
            }
        }
    }

    static T* find(T* p, const T* end, const T& value) {
        for (; p != end; ++p) {
   d7486:	3408      	adds	r4, #8
   d7488:	e7f5      	b.n	d7476 <_ZN5spark6VectorIN8particle13BlePeerDeviceENS_16DefaultAllocatorEE9removeOneERKS2_+0x10>
}

template<typename T, typename AllocatorT>
inline bool spark::Vector<T, AllocatorT>::removeOne(const T &value) {
    T* const p = find(data_, data_ + size_, value);
    if (!p) {
   d748a:	b18c      	cbz	r4, d74b0 <_ZN5spark6VectorIN8particle13BlePeerDeviceENS_16DefaultAllocatorEE9removeOneERKS2_+0x4a>
   d748c:	1d20      	adds	r0, r4, #4
   d748e:	f7fd f8af 	bl	d45f0 <_ZNSt14__shared_countILN9__gnu_cxx12_Lock_policyE0EED1Ev>
        return false;
    }
    p->~T();
    move(p, p + 1, data_ + size_);
   d7492:	682b      	ldr	r3, [r5, #0]
   d7494:	686a      	ldr	r2, [r5, #4]
   d7496:	f104 0108 	add.w	r1, r4, #8
   d749a:	eb03 02c2 	add.w	r2, r3, r2, lsl #3
   d749e:	4620      	mov	r0, r4
   d74a0:	f7ff ffab 	bl	d73fa <_ZN5spark6VectorIN8particle13BlePeerDeviceENS_16DefaultAllocatorEE4moveIS2_Li0EEEvPS2_S6_S6_>
    --size_;
   d74a4:	686b      	ldr	r3, [r5, #4]
   d74a6:	3b01      	subs	r3, #1
   d74a8:	606b      	str	r3, [r5, #4]
    return true;
   d74aa:	e002      	b.n	d74b2 <_ZN5spark6VectorIN8particle13BlePeerDeviceENS_16DefaultAllocatorEE9removeOneERKS2_+0x4c>

template<typename T, typename AllocatorT>
inline bool spark::Vector<T, AllocatorT>::removeOne(const T &value) {
    T* const p = find(data_, data_ + size_, value);
    if (!p) {
        return false;
   d74ac:	2600      	movs	r6, #0
   d74ae:	e000      	b.n	d74b2 <_ZN5spark6VectorIN8particle13BlePeerDeviceENS_16DefaultAllocatorEE9removeOneERKS2_+0x4c>
   d74b0:	4626      	mov	r6, r4
    }
    p->~T();
    move(p, p + 1, data_ + size_);
    --size_;
    return true;
}
   d74b2:	4630      	mov	r0, r6
   d74b4:	e8bd 81f0 	ldmia.w	sp!, {r4, r5, r6, r7, r8, pc}

000d74b8 <_ZN5spark6VectorIN8particle13BlePeerDeviceENS_16DefaultAllocatorEE6appendES2_>:
    destruct(data_, data_ + size_);
    AllocatorT::free(data_);
}

template<typename T, typename AllocatorT>
inline bool spark::Vector<T, AllocatorT>::append(T value) {
   d74b8:	b5f7      	push	{r0, r1, r2, r4, r5, r6, r7, lr}
   d74ba:	4604      	mov	r4, r0
      template<typename _Tp1>
	__shared_ptr(const __shared_ptr<_Tp1, _Lp>& __r, _Tp* __p) noexcept
	: _M_ptr(__p), _M_refcount(__r._M_refcount) // never throws
	{ }

      __shared_ptr(const __shared_ptr&) noexcept = default;
   d74bc:	f851 3b04 	ldr.w	r3, [r1], #4
    return insert(size_, std::move(value));
   d74c0:	6847      	ldr	r7, [r0, #4]
   d74c2:	9300      	str	r3, [sp, #0]
   d74c4:	a801      	add	r0, sp, #4
   d74c6:	f7ff fe8b 	bl	d71e0 <_ZNSt14__shared_countILN9__gnu_cxx12_Lock_policyE0EEC1ERKS2_>
    return insert(0, vector);
}

template<typename T, typename AllocatorT>
inline bool spark::Vector<T, AllocatorT>::insert(int i, T value) {
    if (size_ + 1 > capacity_ && !realloc(size_ + 1)) {
   d74ca:	6866      	ldr	r6, [r4, #4]
   d74cc:	68a3      	ldr	r3, [r4, #8]
   d74ce:	429e      	cmp	r6, r3
   d74d0:	db14      	blt.n	d74fc <_ZN5spark6VectorIN8particle13BlePeerDeviceENS_16DefaultAllocatorEE6appendES2_+0x44>
   d74d2:	3601      	adds	r6, #1
    }

    template<PARTICLE_VECTOR_ENABLE_IF_NOT_TRIVIALLY_COPYABLE(T)>
    bool realloc(int n) {
        T* d = nullptr;
        if (n > 0) {
   d74d4:	2e00      	cmp	r6, #0
   d74d6:	dd0b      	ble.n	d74f0 <_ZN5spark6VectorIN8particle13BlePeerDeviceENS_16DefaultAllocatorEE6appendES2_+0x38>

} // particle

// spark::DefaultAllocator
inline void* spark::DefaultAllocator::malloc(size_t size) {
    return ::malloc(size);
   d74d8:	00f0      	lsls	r0, r6, #3
   d74da:	f7fe ffaf 	bl	d643c <malloc>
    template<PARTICLE_VECTOR_ENABLE_IF_NOT_TRIVIALLY_COPYABLE(T)>
    bool realloc(int n) {
        T* d = nullptr;
        if (n > 0) {
            d = (T*)AllocatorT::malloc(n * sizeof(T));
            if (!d) {
   d74de:	4605      	mov	r5, r0
   d74e0:	b318      	cbz	r0, d752a <_ZN5spark6VectorIN8particle13BlePeerDeviceENS_16DefaultAllocatorEE6appendES2_+0x72>
                return false;
            }
            move(d, data_, data_ + size_);
   d74e2:	e894 0006 	ldmia.w	r4, {r1, r2}
   d74e6:	eb01 02c2 	add.w	r2, r1, r2, lsl #3
   d74ea:	f7ff ff86 	bl	d73fa <_ZN5spark6VectorIN8particle13BlePeerDeviceENS_16DefaultAllocatorEE4moveIS2_Li0EEEvPS2_S6_S6_>
   d74ee:	e000      	b.n	d74f2 <_ZN5spark6VectorIN8particle13BlePeerDeviceENS_16DefaultAllocatorEE6appendES2_+0x3a>
        return true;
    }

    template<PARTICLE_VECTOR_ENABLE_IF_NOT_TRIVIALLY_COPYABLE(T)>
    bool realloc(int n) {
        T* d = nullptr;
   d74f0:	2500      	movs	r5, #0
inline void* spark::DefaultAllocator::realloc(void* ptr, size_t size) {
    return ::realloc(ptr, size);
}

inline void spark::DefaultAllocator::free(void* ptr) {
    ::free(ptr);
   d74f2:	6820      	ldr	r0, [r4, #0]
   d74f4:	f7fe ffaa 	bl	d644c <free>
                return false;
            }
            move(d, data_, data_ + size_);
        }
        AllocatorT::free(data_);
        data_ = d;
   d74f8:	6025      	str	r5, [r4, #0]
        capacity_ = n;
   d74fa:	60a6      	str	r6, [r4, #8]
template<typename T, typename AllocatorT>
inline bool spark::Vector<T, AllocatorT>::insert(int i, T value) {
    if (size_ + 1 > capacity_ && !realloc(size_ + 1)) {
        return false;
    }
    T* const p = data_ + i;
   d74fc:	6826      	ldr	r6, [r4, #0]
    move(p + 1, p, data_ + size_);
   d74fe:	6862      	ldr	r2, [r4, #4]
template<typename T, typename AllocatorT>
inline bool spark::Vector<T, AllocatorT>::insert(int i, T value) {
    if (size_ + 1 > capacity_ && !realloc(size_ + 1)) {
        return false;
    }
    T* const p = data_ + i;
   d7500:	eb06 05c7 	add.w	r5, r6, r7, lsl #3
    move(p + 1, p, data_ + size_);
   d7504:	eb06 02c2 	add.w	r2, r6, r2, lsl #3
   d7508:	4629      	mov	r1, r5
   d750a:	f105 0008 	add.w	r0, r5, #8
   d750e:	f7ff ff74 	bl	d73fa <_ZN5spark6VectorIN8particle13BlePeerDeviceENS_16DefaultAllocatorEE4moveIS2_Li0EEEvPS2_S6_S6_>
    new(p) T(std::move(value));
   d7512:	b135      	cbz	r5, d7522 <_ZN5spark6VectorIN8particle13BlePeerDeviceENS_16DefaultAllocatorEE6appendES2_+0x6a>
   d7514:	9b00      	ldr	r3, [sp, #0]
   d7516:	f846 3037 	str.w	r3, [r6, r7, lsl #3]
   d751a:	a901      	add	r1, sp, #4
   d751c:	1d28      	adds	r0, r5, #4
   d751e:	f7ff fe5f 	bl	d71e0 <_ZNSt14__shared_countILN9__gnu_cxx12_Lock_policyE0EEC1ERKS2_>
    ++size_;
   d7522:	6863      	ldr	r3, [r4, #4]
   d7524:	3301      	adds	r3, #1
   d7526:	6063      	str	r3, [r4, #4]
   d7528:	2501      	movs	r5, #1
      __shared_ptr& operator=(const __shared_ptr&) noexcept = default;
      ~__shared_ptr() = default;
   d752a:	a801      	add	r0, sp, #4
   d752c:	f7fd f860 	bl	d45f0 <_ZNSt14__shared_countILN9__gnu_cxx12_Lock_policyE0EED1Ev>
}

template<typename T, typename AllocatorT>
inline bool spark::Vector<T, AllocatorT>::append(T value) {
    return insert(size_, std::move(value));
}
   d7530:	4628      	mov	r0, r5
   d7532:	b003      	add	sp, #12
   d7534:	bdf0      	pop	{r4, r5, r6, r7, pc}
	...

000d7538 <_ZN8particle18BleLocalDeviceImpl15onBleLinkEventsEPK18hal_ble_link_evt_tPv>:
            }
        }
        return nullptr;
    }

    static void onBleLinkEvents(const hal_ble_link_evt_t* event, void* context) {
   d7538:	e92d 41f0 	stmdb	sp!, {r4, r5, r6, r7, r8, lr}
   d753c:	4604      	mov	r4, r0
   d753e:	b08e      	sub	sp, #56	; 0x38
        auto impl = static_cast<BleLocalDeviceImpl*>(context);
        WiringBleLock lk;
   d7540:	a803      	add	r0, sp, #12
            }
        }
        return nullptr;
    }

    static void onBleLinkEvents(const hal_ble_link_evt_t* event, void* context) {
   d7542:	460d      	mov	r5, r1
        auto impl = static_cast<BleLocalDeviceImpl*>(context);
        WiringBleLock lk;
   d7544:	f7ff f964 	bl	d6810 <_ZN8particle3ble13WiringBleLockC1Ev>
        switch (event->type) {
   d7548:	6823      	ldr	r3, [r4, #0]
   d754a:	2b03      	cmp	r3, #3
   d754c:	d002      	beq.n	d7554 <_ZN8particle18BleLocalDeviceImpl15onBleLinkEventsEPK18hal_ble_link_evt_tPv+0x1c>
   d754e:	2b04      	cmp	r3, #4
   d7550:	d042      	beq.n	d75d8 <_ZN8particle18BleLocalDeviceImpl15onBleLinkEventsEPK18hal_ble_link_evt_tPv+0xa0>
   d7552:	e087      	b.n	d7664 <_ZN8particle18BleLocalDeviceImpl15onBleLinkEventsEPK18hal_ble_link_evt_tPv+0x12c>
            case BLE_EVT_CONNECTED: {
                BlePeerDevice peer;
   d7554:	a804      	add	r0, sp, #16
   d7556:	f7ff fec3 	bl	d72e0 <_ZN8particle13BlePeerDeviceC1Ev>
                peer.impl()->connHandle() = event->conn_handle;
   d755a:	9b04      	ldr	r3, [sp, #16]
   d755c:	8922      	ldrh	r2, [r4, #8]
   d755e:	801a      	strh	r2, [r3, #0]
    }
    return address_.addr[i];
}

BleAddress& BleAddress::operator=(const hal_ble_addr_t& addr) {
    address_ = addr;
   d7560:	6862      	ldr	r2, [r4, #4]
   d7562:	9904      	ldr	r1, [sp, #16]
   d7564:	f852 3f08 	ldr.w	r3, [r2, #8]!
   d7568:	f8c1 3002 	str.w	r3, [r1, #2]
   d756c:	6853      	ldr	r3, [r2, #4]
   d756e:	f8c1 3006 	str.w	r3, [r1, #6]
      template<typename _Tp1>
	__shared_ptr(const __shared_ptr<_Tp1, _Lp>& __r, _Tp* __p) noexcept
	: _M_ptr(__p), _M_refcount(__r._M_refcount) // never throws
	{ }

      __shared_ptr(const __shared_ptr&) noexcept = default;
   d7572:	a807      	add	r0, sp, #28
   d7574:	9b04      	ldr	r3, [sp, #16]
   d7576:	9306      	str	r3, [sp, #24]
   d7578:	a905      	add	r1, sp, #20
   d757a:	f7ff fe31 	bl	d71e0 <_ZNSt14__shared_countILN9__gnu_cxx12_Lock_policyE0EEC1ERKS2_>
        switch (event->type) {
            case BLE_EVT_CONNECTED: {
                BlePeerDevice peer;
                peer.impl()->connHandle() = event->conn_handle;
                peer.impl()->address() = event->params.connected.info->address;
                if (!impl->peers_.append(peer)) {
   d757e:	a906      	add	r1, sp, #24
   d7580:	f105 0018 	add.w	r0, r5, #24
   d7584:	f7ff ff98 	bl	d74b8 <_ZN5spark6VectorIN8particle13BlePeerDeviceENS_16DefaultAllocatorEE6appendES2_>
   d7588:	4604      	mov	r4, r0
      __shared_ptr& operator=(const __shared_ptr&) noexcept = default;
      ~__shared_ptr() = default;
   d758a:	a807      	add	r0, sp, #28
   d758c:	f7fd f830 	bl	d45f0 <_ZNSt14__shared_countILN9__gnu_cxx12_Lock_policyE0EED1Ev>
   d7590:	2320      	movs	r3, #32
                    LOG(ERROR, "Failed to append peer Central device.");
   d7592:	9306      	str	r3, [sp, #24]
        switch (event->type) {
            case BLE_EVT_CONNECTED: {
                BlePeerDevice peer;
                peer.impl()->connHandle() = event->conn_handle;
                peer.impl()->address() = event->params.connected.info->address;
                if (!impl->peers_.append(peer)) {
   d7594:	b974      	cbnz	r4, d75b4 <_ZN8particle18BleLocalDeviceImpl15onBleLinkEventsEPK18hal_ble_link_evt_tPv+0x7c>
                    LOG(ERROR, "Failed to append peer Central device.");
   d7596:	4b36      	ldr	r3, [pc, #216]	; (d7670 <_ZN8particle18BleLocalDeviceImpl15onBleLinkEventsEPK18hal_ble_link_evt_tPv+0x138>)
   d7598:	9300      	str	r3, [sp, #0]
   d759a:	aa06      	add	r2, sp, #24
   d759c:	4623      	mov	r3, r4
   d759e:	4935      	ldr	r1, [pc, #212]	; (d7674 <_ZN8particle18BleLocalDeviceImpl15onBleLinkEventsEPK18hal_ble_link_evt_tPv+0x13c>)
   d75a0:	9407      	str	r4, [sp, #28]
   d75a2:	2032      	movs	r0, #50	; 0x32
   d75a4:	f7fe fe96 	bl	d62d4 <log_message>
                    hal_ble_gap_disconnect(peer.impl()->connHandle(), nullptr);
   d75a8:	9b04      	ldr	r3, [sp, #16]
   d75aa:	4621      	mov	r1, r4
   d75ac:	8818      	ldrh	r0, [r3, #0]
   d75ae:	f7fe fd33 	bl	d6018 <hal_ble_gap_disconnect>
   d75b2:	e00d      	b.n	d75d0 <_ZN8particle18BleLocalDeviceImpl15onBleLinkEventsEPK18hal_ble_link_evt_tPv+0x98>
                    return;
                }
                LOG(TRACE, "Connected by Central device.");
   d75b4:	4a30      	ldr	r2, [pc, #192]	; (d7678 <_ZN8particle18BleLocalDeviceImpl15onBleLinkEventsEPK18hal_ble_link_evt_tPv+0x140>)
   d75b6:	9200      	str	r2, [sp, #0]
   d75b8:	2300      	movs	r3, #0
   d75ba:	aa06      	add	r2, sp, #24
   d75bc:	492d      	ldr	r1, [pc, #180]	; (d7674 <_ZN8particle18BleLocalDeviceImpl15onBleLinkEventsEPK18hal_ble_link_evt_tPv+0x13c>)
   d75be:	9307      	str	r3, [sp, #28]
   d75c0:	2001      	movs	r0, #1
   d75c2:	f7fe fe87 	bl	d62d4 <log_message>
                if (impl->connectedCb_) {
   d75c6:	6a6b      	ldr	r3, [r5, #36]	; 0x24
   d75c8:	b113      	cbz	r3, d75d0 <_ZN8particle18BleLocalDeviceImpl15onBleLinkEventsEPK18hal_ble_link_evt_tPv+0x98>
                    impl->connectedCb_(peer, impl->connectedContext_);
   d75ca:	6ae9      	ldr	r1, [r5, #44]	; 0x2c
   d75cc:	a804      	add	r0, sp, #16
   d75ce:	4798      	blx	r3
   d75d0:	a805      	add	r0, sp, #20
   d75d2:	f7fd f80d 	bl	d45f0 <_ZNSt14__shared_countILN9__gnu_cxx12_Lock_policyE0EED1Ev>
   d75d6:	e045      	b.n	d7664 <_ZN8particle18BleLocalDeviceImpl15onBleLinkEventsEPK18hal_ble_link_evt_tPv+0x12c>
                }
                break;
            }
            case BLE_EVT_DISCONNECTED: {
                BlePeerDevice* peer = impl->findPeerDevice(event->conn_handle);
   d75d8:	8921      	ldrh	r1, [r4, #8]
   d75da:	4628      	mov	r0, r5
   d75dc:	f7ff fc60 	bl	d6ea0 <_ZN8particle18BleLocalDeviceImpl14findPeerDeviceEt>
                if (peer) {
   d75e0:	4607      	mov	r7, r0
   d75e2:	2800      	cmp	r0, #0
   d75e4:	d03e      	beq.n	d7664 <_ZN8particle18BleLocalDeviceImpl15onBleLinkEventsEPK18hal_ble_link_evt_tPv+0x12c>
   d75e6:	6804      	ldr	r4, [r0, #0]
   d75e8:	69a3      	ldr	r3, [r4, #24]
    return data_;
}

template<typename T, typename AllocatorT>
T* spark::Vector<T, AllocatorT>::end() {
    return data_ + size_;
   d75ea:	69e1      	ldr	r1, [r4, #28]
    Vector<BleCharacteristic>& characteristics() {
        return characteristics_;
    }

    void onDisconnected() {
        connHandle_ = BLE_INVALID_CONN_HANDLE;
   d75ec:	f64f 72ff 	movw	r2, #65535	; 0xffff
   d75f0:	8022      	strh	r2, [r4, #0]
   d75f2:	eb03 01c1 	add.w	r1, r3, r1, lsl #3
        for (auto& characteristic : characteristics_) {
   d75f6:	4299      	cmp	r1, r3
   d75f8:	d003      	beq.n	d7602 <_ZN8particle18BleLocalDeviceImpl15onBleLinkEventsEPK18hal_ble_link_evt_tPv+0xca>
   d75fa:	f853 0b08 	ldr.w	r0, [r3], #8
            characteristic.impl()->connHandle() = BLE_INVALID_CONN_HANDLE;
   d75fe:	8042      	strh	r2, [r0, #2]
   d7600:	e7f9      	b.n	d75f6 <_ZN8particle18BleLocalDeviceImpl15onBleLinkEventsEPK18hal_ble_link_evt_tPv+0xbe>
    return true;
}

template<typename T, typename AllocatorT>
inline void spark::Vector<T, AllocatorT>::clear() {
    destruct(data_, data_ + size_);
   d7602:	68e6      	ldr	r6, [r4, #12]
   d7604:	6923      	ldr	r3, [r4, #16]
   d7606:	eb06 08c3 	add.w	r8, r6, r3, lsl #3
            new(p) T(std::forward<ArgsT>(args)...);
        }
    }

    static void destruct(T* p, const T* end) {
        for (; p != end; ++p) {
   d760a:	45b0      	cmp	r8, r6
   d760c:	d004      	beq.n	d7618 <_ZN8particle18BleLocalDeviceImpl15onBleLinkEventsEPK18hal_ble_link_evt_tPv+0xe0>
   d760e:	1d30      	adds	r0, r6, #4
   d7610:	f7fc ffee 	bl	d45f0 <_ZNSt14__shared_countILN9__gnu_cxx12_Lock_policyE0EED1Ev>
   d7614:	3608      	adds	r6, #8
   d7616:	e7f8      	b.n	d760a <_ZN8particle18BleLocalDeviceImpl15onBleLinkEventsEPK18hal_ble_link_evt_tPv+0xd2>
}

template<typename T, typename AllocatorT>
inline void spark::Vector<T, AllocatorT>::clear() {
    destruct(data_, data_ + size_);
    size_ = 0;
   d7618:	2300      	movs	r3, #0
   d761a:	6123      	str	r3, [r4, #16]
    return true;
}

template<typename T, typename AllocatorT>
inline void spark::Vector<T, AllocatorT>::clear() {
    destruct(data_, data_ + size_);
   d761c:	69a6      	ldr	r6, [r4, #24]
   d761e:	69e3      	ldr	r3, [r4, #28]
   d7620:	eb06 08c3 	add.w	r8, r6, r3, lsl #3
            new(p) T(std::forward<ArgsT>(args)...);
        }
    }

    static void destruct(T* p, const T* end) {
        for (; p != end; ++p) {
   d7624:	45b0      	cmp	r8, r6
   d7626:	d004      	beq.n	d7632 <_ZN8particle18BleLocalDeviceImpl15onBleLinkEventsEPK18hal_ble_link_evt_tPv+0xfa>
   d7628:	1d30      	adds	r0, r6, #4
   d762a:	f7fc ffe1 	bl	d45f0 <_ZNSt14__shared_countILN9__gnu_cxx12_Lock_policyE0EED1Ev>
   d762e:	3608      	adds	r6, #8
   d7630:	e7f8      	b.n	d7624 <_ZN8particle18BleLocalDeviceImpl15onBleLinkEventsEPK18hal_ble_link_evt_tPv+0xec>
}

template<typename T, typename AllocatorT>
inline void spark::Vector<T, AllocatorT>::clear() {
    destruct(data_, data_ + size_);
    size_ = 0;
   d7632:	2300      	movs	r3, #0
   d7634:	61e3      	str	r3, [r4, #28]
        }
        services_.clear();
        characteristics_.clear();
        servicesDiscovered_ = false;
   d7636:	72a3      	strb	r3, [r4, #10]
        characteristicsDiscovered_ = false;
   d7638:	72e3      	strb	r3, [r4, #11]
            }
            case BLE_EVT_DISCONNECTED: {
                BlePeerDevice* peer = impl->findPeerDevice(event->conn_handle);
                if (peer) {
                    peer->impl()->onDisconnected();
                    if (impl->disconnectedCb_) {
   d763a:	6aab      	ldr	r3, [r5, #40]	; 0x28
   d763c:	b113      	cbz	r3, d7644 <_ZN8particle18BleLocalDeviceImpl15onBleLinkEventsEPK18hal_ble_link_evt_tPv+0x10c>
                        impl->disconnectedCb_(*peer, impl->disconnectedContext_);
   d763e:	6b29      	ldr	r1, [r5, #48]	; 0x30
   d7640:	4638      	mov	r0, r7
   d7642:	4798      	blx	r3
                    }
                    LOG(TRACE, "Disconnected by remote device.");
   d7644:	2320      	movs	r3, #32
   d7646:	4a0d      	ldr	r2, [pc, #52]	; (d767c <_ZN8particle18BleLocalDeviceImpl15onBleLinkEventsEPK18hal_ble_link_evt_tPv+0x144>)
   d7648:	9306      	str	r3, [sp, #24]
   d764a:	9200      	str	r2, [sp, #0]
   d764c:	2300      	movs	r3, #0
   d764e:	4909      	ldr	r1, [pc, #36]	; (d7674 <_ZN8particle18BleLocalDeviceImpl15onBleLinkEventsEPK18hal_ble_link_evt_tPv+0x13c>)
   d7650:	9307      	str	r3, [sp, #28]
   d7652:	2001      	movs	r0, #1
   d7654:	aa06      	add	r2, sp, #24
   d7656:	f7fe fe3d 	bl	d62d4 <log_message>
                    impl->peers_.removeOne(*peer);
   d765a:	4639      	mov	r1, r7
   d765c:	f105 0018 	add.w	r0, r5, #24
   d7660:	f7ff ff01 	bl	d7466 <_ZN5spark6VectorIN8particle13BlePeerDeviceENS_16DefaultAllocatorEE9removeOneERKS2_>
        return nullptr;
    }

    static void onBleLinkEvents(const hal_ble_link_evt_t* event, void* context) {
        auto impl = static_cast<BleLocalDeviceImpl*>(context);
        WiringBleLock lk;
   d7664:	a803      	add	r0, sp, #12
   d7666:	f7ff f8e1 	bl	d682c <_ZN8particle3ble13WiringBleLockD1Ev>
            }
            default: {
                break;
            }
        }
    }
   d766a:	b00e      	add	sp, #56	; 0x38
   d766c:	e8bd 81f0 	ldmia.w	sp!, {r4, r5, r6, r7, r8, pc}
   d7670:	000dbac6 	.word	0x000dbac6
   d7674:	000dba64 	.word	0x000dba64
   d7678:	000dbaec 	.word	0x000dbaec
   d767c:	000dbb09 	.word	0x000dbb09

000d7680 <_ZN5spark6VectorIN8particle13BleScanResultENS_16DefaultAllocatorEE7reallocIS2_Li0EEEbi>:
private:
    T* data_;
    int size_, capacity_;

    template<PARTICLE_VECTOR_ENABLE_IF_TRIVIALLY_COPYABLE(T)>
    bool realloc(int n) {
   d7680:	b538      	push	{r3, r4, r5, lr}
        T* d = nullptr;
        if (n > 0) {
   d7682:	1e0d      	subs	r5, r1, #0
private:
    T* data_;
    int size_, capacity_;

    template<PARTICLE_VECTOR_ENABLE_IF_TRIVIALLY_COPYABLE(T)>
    bool realloc(int n) {
   d7684:	4604      	mov	r4, r0
        T* d = nullptr;
        if (n > 0) {
   d7686:	dd06      	ble.n	d7696 <_ZN5spark6VectorIN8particle13BleScanResultENS_16DefaultAllocatorEE7reallocIS2_Li0EEEbi+0x16>
inline void* spark::DefaultAllocator::malloc(size_t size) {
    return ::malloc(size);
}

inline void* spark::DefaultAllocator::realloc(void* ptr, size_t size) {
    return ::realloc(ptr, size);
   d7688:	2154      	movs	r1, #84	; 0x54
   d768a:	4369      	muls	r1, r5
   d768c:	6800      	ldr	r0, [r0, #0]
   d768e:	f7fe fee5 	bl	d645c <realloc>
    template<PARTICLE_VECTOR_ENABLE_IF_TRIVIALLY_COPYABLE(T)>
    bool realloc(int n) {
        T* d = nullptr;
        if (n > 0) {
            d = (T*)AllocatorT::realloc(data_, n * sizeof(T));
            if (!d) {
   d7692:	b920      	cbnz	r0, d769e <_ZN5spark6VectorIN8particle13BleScanResultENS_16DefaultAllocatorEE7reallocIS2_Li0EEEbi+0x1e>
   d7694:	bd38      	pop	{r3, r4, r5, pc}
inline void* spark::DefaultAllocator::realloc(void* ptr, size_t size) {
    return ::realloc(ptr, size);
}

inline void spark::DefaultAllocator::free(void* ptr) {
    ::free(ptr);
   d7696:	6800      	ldr	r0, [r0, #0]
   d7698:	f7fe fed8 	bl	d644c <free>
    T* data_;
    int size_, capacity_;

    template<PARTICLE_VECTOR_ENABLE_IF_TRIVIALLY_COPYABLE(T)>
    bool realloc(int n) {
        T* d = nullptr;
   d769c:	2000      	movs	r0, #0
                return false;
            }
        } else {
            AllocatorT::free(data_);
        }
        data_ = d;
   d769e:	6020      	str	r0, [r4, #0]
        capacity_ = n;
   d76a0:	60a5      	str	r5, [r4, #8]
        return true;
   d76a2:	2001      	movs	r0, #1
    }
   d76a4:	bd38      	pop	{r3, r4, r5, pc}

000d76a6 <_ZN8particle16BleScanDelegator20onScanResultCallbackEPK25hal_ble_scan_result_evt_tPv>:
     * WARN: This is executed from HAL ble thread. The current thread which starts the scanning procedure
     * has acquired the BLE HAL lock. Calling BLE HAL APIs those acquiring the BLE HAL lock in this function
     * will suspend the execution of the callback until the current thread release the BLE HAL lock. Or the BLE HAL
     * APIs those are invoked here must not acquire the BLE HAL lock.
     */
    static void onScanResultCallback(const hal_ble_scan_result_evt_t* event, void* context) {
   d76a6:	b570      	push	{r4, r5, r6, lr}
        BleScanDelegator* delegator = static_cast<BleScanDelegator*>(context);
        BleScanResult result = {};
   d76a8:	2654      	movs	r6, #84	; 0x54
     * WARN: This is executed from HAL ble thread. The current thread which starts the scanning procedure
     * has acquired the BLE HAL lock. Calling BLE HAL APIs those acquiring the BLE HAL lock in this function
     * will suspend the execution of the callback until the current thread release the BLE HAL lock. Or the BLE HAL
     * APIs those are invoked here must not acquire the BLE HAL lock.
     */
    static void onScanResultCallback(const hal_ble_scan_result_evt_t* event, void* context) {
   d76aa:	b0c0      	sub	sp, #256	; 0x100
   d76ac:	4605      	mov	r5, r0
        BleScanDelegator* delegator = static_cast<BleScanDelegator*>(context);
        BleScanResult result = {};
   d76ae:	4632      	mov	r2, r6
     * WARN: This is executed from HAL ble thread. The current thread which starts the scanning procedure
     * has acquired the BLE HAL lock. Calling BLE HAL APIs those acquiring the BLE HAL lock in this function
     * will suspend the execution of the callback until the current thread release the BLE HAL lock. Or the BLE HAL
     * APIs those are invoked here must not acquire the BLE HAL lock.
     */
    static void onScanResultCallback(const hal_ble_scan_result_evt_t* event, void* context) {
   d76b0:	460c      	mov	r4, r1
        BleScanDelegator* delegator = static_cast<BleScanDelegator*>(context);
        BleScanResult result = {};
   d76b2:	a801      	add	r0, sp, #4
   d76b4:	2100      	movs	r1, #0
   d76b6:	f003 f96a 	bl	da98e <memset>
   d76ba:	a803      	add	r0, sp, #12
   d76bc:	f7ff fb51 	bl	d6d62 <_ZN8particle18BleAdvertisingDataC1Ev>
   d76c0:	a80c      	add	r0, sp, #48	; 0x30
   d76c2:	f7ff fb4e 	bl	d6d62 <_ZN8particle18BleAdvertisingDataC1Ev>
    }
    return address_.addr[i];
}

BleAddress& BleAddress::operator=(const hal_ble_addr_t& addr) {
    address_ = addr;
   d76c6:	462a      	mov	r2, r5
   d76c8:	ab01      	add	r3, sp, #4
   d76ca:	f852 0f10 	ldr.w	r0, [r2, #16]!
   d76ce:	6851      	ldr	r1, [r2, #4]
    static void onScanResultCallback(const hal_ble_scan_result_evt_t* event, void* context) {
        BleScanDelegator* delegator = static_cast<BleScanDelegator*>(context);
        BleScanResult result = {};
        result.address = event->peer_addr;
        result.rssi = event->rssi;
        result.scanResponse.set(event->sr_data, event->sr_data_len);
   d76d0:	89ea      	ldrh	r2, [r5, #14]
    }
    return address_.addr[i];
}

BleAddress& BleAddress::operator=(const hal_ble_addr_t& addr) {
    address_ = addr;
   d76d2:	c303      	stmia	r3!, {r0, r1}
     */
    static void onScanResultCallback(const hal_ble_scan_result_evt_t* event, void* context) {
        BleScanDelegator* delegator = static_cast<BleScanDelegator*>(context);
        BleScanResult result = {};
        result.address = event->peer_addr;
        result.rssi = event->rssi;
   d76d4:	782b      	ldrb	r3, [r5, #0]
        result.scanResponse.set(event->sr_data, event->sr_data_len);
   d76d6:	68a9      	ldr	r1, [r5, #8]
     */
    static void onScanResultCallback(const hal_ble_scan_result_evt_t* event, void* context) {
        BleScanDelegator* delegator = static_cast<BleScanDelegator*>(context);
        BleScanResult result = {};
        result.address = event->peer_addr;
        result.rssi = event->rssi;
   d76d8:	f88d 3054 	strb.w	r3, [sp, #84]	; 0x54
        result.scanResponse.set(event->sr_data, event->sr_data_len);
   d76dc:	a80c      	add	r0, sp, #48	; 0x30
   d76de:	f7ff fad1 	bl	d6c84 <_ZN8particle18BleAdvertisingData3setEPKhj>
        result.advertisingData.set(event->adv_data, event->adv_data_len);
   d76e2:	89aa      	ldrh	r2, [r5, #12]
   d76e4:	6869      	ldr	r1, [r5, #4]
   d76e6:	a803      	add	r0, sp, #12
   d76e8:	f7ff facc 	bl	d6c84 <_ZN8particle18BleAdvertisingData3setEPKhj>
        if (delegator->callback_) {
   d76ec:	69a5      	ldr	r5, [r4, #24]
   d76ee:	b11d      	cbz	r5, d76f8 <_ZN8particle16BleScanDelegator20onScanResultCallbackEPK25hal_ble_scan_result_evt_tPv+0x52>
            delegator->callback_(&result, delegator->context_);
   d76f0:	69e1      	ldr	r1, [r4, #28]
   d76f2:	a801      	add	r0, sp, #4
   d76f4:	47a8      	blx	r5
   d76f6:	e03c      	b.n	d7772 <_ZN8particle16BleScanDelegator20onScanResultCallbackEPK25hal_ble_scan_result_evt_tPv+0xcc>
            delegator->foundCount_++;
            return;
        }
        if (delegator->resultsPtr_) {
   d76f8:	68e0      	ldr	r0, [r4, #12]
   d76fa:	b198      	cbz	r0, d7724 <_ZN8particle16BleScanDelegator20onScanResultCallbackEPK25hal_ble_scan_result_evt_tPv+0x7e>
            if (delegator->foundCount_ < delegator->targetCount_) {
   d76fc:	6963      	ldr	r3, [r4, #20]
   d76fe:	6922      	ldr	r2, [r4, #16]
   d7700:	4293      	cmp	r3, r2
   d7702:	d239      	bcs.n	d7778 <_ZN8particle16BleScanDelegator20onScanResultCallbackEPK25hal_ble_scan_result_evt_tPv+0xd2>
                delegator->resultsPtr_[delegator->foundCount_++] = result;
   d7704:	1c5a      	adds	r2, r3, #1
   d7706:	6162      	str	r2, [r4, #20]
   d7708:	fb06 0003 	mla	r0, r6, r3, r0
   d770c:	2251      	movs	r2, #81	; 0x51
   d770e:	a901      	add	r1, sp, #4
   d7710:	f003 f917 	bl	da942 <memcpy>
                if (delegator->foundCount_ >= delegator->targetCount_) {
   d7714:	6962      	ldr	r2, [r4, #20]
   d7716:	6923      	ldr	r3, [r4, #16]
   d7718:	429a      	cmp	r2, r3
   d771a:	d32d      	bcc.n	d7778 <_ZN8particle16BleScanDelegator20onScanResultCallbackEPK25hal_ble_scan_result_evt_tPv+0xd2>
                    LOG_DEBUG(TRACE, "Target number of devices found. Stop scanning...");
                    hal_ble_gap_stop_scan(nullptr);
   d771c:	4628      	mov	r0, r5
   d771e:	f7fe fc71 	bl	d6004 <hal_ble_gap_stop_scan>
   d7722:	e029      	b.n	d7778 <_ZN8particle16BleScanDelegator20onScanResultCallbackEPK25hal_ble_scan_result_evt_tPv+0xd2>
   d7724:	4632      	mov	r2, r6
   d7726:	a901      	add	r1, sp, #4
   d7728:	a816      	add	r0, sp, #88	; 0x58
   d772a:	f003 f90a 	bl	da942 <memcpy>
   d772e:	4632      	mov	r2, r6
   d7730:	a916      	add	r1, sp, #88	; 0x58
   d7732:	a82b      	add	r0, sp, #172	; 0xac
    AllocatorT::free(data_);
}

template<typename T, typename AllocatorT>
inline bool spark::Vector<T, AllocatorT>::append(T value) {
    return insert(size_, std::move(value));
   d7734:	6865      	ldr	r5, [r4, #4]
   d7736:	f003 f904 	bl	da942 <memcpy>
    return insert(0, vector);
}

template<typename T, typename AllocatorT>
inline bool spark::Vector<T, AllocatorT>::insert(int i, T value) {
    if (size_ + 1 > capacity_ && !realloc(size_ + 1)) {
   d773a:	68a3      	ldr	r3, [r4, #8]
   d773c:	429d      	cmp	r5, r3
   d773e:	db04      	blt.n	d774a <_ZN8particle16BleScanDelegator20onScanResultCallbackEPK25hal_ble_scan_result_evt_tPv+0xa4>
   d7740:	1c69      	adds	r1, r5, #1
   d7742:	4620      	mov	r0, r4
   d7744:	f7ff ff9c 	bl	d7680 <_ZN5spark6VectorIN8particle13BleScanResultENS_16DefaultAllocatorEE7reallocIS2_Li0EEEbi>
   d7748:	b1b0      	cbz	r0, d7778 <_ZN8particle16BleScanDelegator20onScanResultCallbackEPK25hal_ble_scan_result_evt_tPv+0xd2>
        }
    }

    template<PARTICLE_VECTOR_ENABLE_IF_TRIVIALLY_COPYABLE(T)>
    static void move(T* dest, const T* p, const T* end) {
        ::memmove(dest, p, (end - p) * sizeof(T));
   d774a:	6863      	ldr	r3, [r4, #4]
template<typename T, typename AllocatorT>
inline bool spark::Vector<T, AllocatorT>::insert(int i, T value) {
    if (size_ + 1 > capacity_ && !realloc(size_ + 1)) {
        return false;
    }
    T* const p = data_ + i;
   d774c:	6822      	ldr	r2, [r4, #0]
   d774e:	2654      	movs	r6, #84	; 0x54
   d7750:	fb06 2505 	mla	r5, r6, r5, r2
        }
    }

    template<PARTICLE_VECTOR_ENABLE_IF_TRIVIALLY_COPYABLE(T)>
    static void move(T* dest, const T* p, const T* end) {
        ::memmove(dest, p, (end - p) * sizeof(T));
   d7754:	fb06 2203 	mla	r2, r6, r3, r2
   d7758:	1b52      	subs	r2, r2, r5
   d775a:	4629      	mov	r1, r5
   d775c:	19a8      	adds	r0, r5, r6
   d775e:	f003 f8fb 	bl	da958 <memmove>
    if (size_ + 1 > capacity_ && !realloc(size_ + 1)) {
        return false;
    }
    T* const p = data_ + i;
    move(p + 1, p, data_ + size_);
    new(p) T(std::move(value));
   d7762:	4632      	mov	r2, r6
   d7764:	a92b      	add	r1, sp, #172	; 0xac
   d7766:	4628      	mov	r0, r5
   d7768:	f003 f8eb 	bl	da942 <memcpy>
    ++size_;
   d776c:	6863      	ldr	r3, [r4, #4]
   d776e:	3301      	adds	r3, #1
   d7770:	6063      	str	r3, [r4, #4]
                }
            }
            return;
        }
        if (delegator->resultsVector_.append(result)) {
            delegator->foundCount_++;
   d7772:	6963      	ldr	r3, [r4, #20]
   d7774:	3301      	adds	r3, #1
   d7776:	6163      	str	r3, [r4, #20]
        }
    }
   d7778:	b040      	add	sp, #256	; 0x100
   d777a:	bd70      	pop	{r4, r5, r6, pc}

000d777c <_ZN5spark6VectorIN8particle10BleServiceENS_16DefaultAllocatorEE4moveIS2_Li0EEEvPS2_S6_S6_>:
        ::memmove(dest, p, (end - p) * sizeof(T));
    }

    template<PARTICLE_VECTOR_ENABLE_IF_NOT_TRIVIALLY_COPYABLE(T)>
    static void move(T* dest, T* p, T* end) {
        if (dest > p && dest < end) {
   d777c:	4288      	cmp	r0, r1
    static void move(T* dest, const T* p, const T* end) {
        ::memmove(dest, p, (end - p) * sizeof(T));
    }

    template<PARTICLE_VECTOR_ENABLE_IF_NOT_TRIVIALLY_COPYABLE(T)>
    static void move(T* dest, T* p, T* end) {
   d777e:	b5f8      	push	{r3, r4, r5, r6, r7, lr}
   d7780:	4606      	mov	r6, r0
   d7782:	460c      	mov	r4, r1
   d7784:	4615      	mov	r5, r2
        if (dest > p && dest < end) {
   d7786:	d914      	bls.n	d77b2 <_ZN5spark6VectorIN8particle10BleServiceENS_16DefaultAllocatorEE4moveIS2_Li0EEEvPS2_S6_S6_+0x36>
   d7788:	4290      	cmp	r0, r2
   d778a:	d213      	bcs.n	d77b4 <_ZN5spark6VectorIN8particle10BleServiceENS_16DefaultAllocatorEE4moveIS2_Li0EEEvPS2_S6_S6_+0x38>
            // Move elements in reverse order
            --p;
            --end;
   d778c:	f1a2 0508 	sub.w	r5, r2, #8
            dest += end - p - 1;
   d7790:	1a6c      	subs	r4, r5, r1
   d7792:	f1a1 0708 	sub.w	r7, r1, #8
   d7796:	4404      	add	r4, r0
            for (; end != p; --end, --dest) {
   d7798:	42af      	cmp	r7, r5
   d779a:	d018      	beq.n	d77ce <_ZN5spark6VectorIN8particle10BleServiceENS_16DefaultAllocatorEE4moveIS2_Li0EEEvPS2_S6_S6_+0x52>
                new(dest) T(std::move(*end));
   d779c:	b11c      	cbz	r4, d77a6 <_ZN5spark6VectorIN8particle10BleServiceENS_16DefaultAllocatorEE4moveIS2_Li0EEEvPS2_S6_S6_+0x2a>
       *  @post   use_count()==0 && get()==0
       */
      constexpr shared_ptr() noexcept
      : __shared_ptr<_Tp>() { }

      shared_ptr(const shared_ptr&) noexcept = default;
   d779e:	4629      	mov	r1, r5
   d77a0:	4620      	mov	r0, r4
   d77a2:	f7ff fd32 	bl	d720a <_ZNSt12__shared_ptrIN8particle14BleServiceImplELN9__gnu_cxx12_Lock_policyE0EEC1ERKS4_>
   d77a6:	1d28      	adds	r0, r5, #4
   d77a8:	f7fc ff22 	bl	d45f0 <_ZNSt14__shared_countILN9__gnu_cxx12_Lock_policyE0EED1Ev>
        if (dest > p && dest < end) {
            // Move elements in reverse order
            --p;
            --end;
            dest += end - p - 1;
            for (; end != p; --end, --dest) {
   d77ac:	3d08      	subs	r5, #8
   d77ae:	3c08      	subs	r4, #8
   d77b0:	e7f2      	b.n	d7798 <_ZN5spark6VectorIN8particle10BleServiceENS_16DefaultAllocatorEE4moveIS2_Li0EEEvPS2_S6_S6_+0x1c>
                new(dest) T(std::move(*end));
                end->~T();
            }
        } else if (dest != p) {
   d77b2:	d00c      	beq.n	d77ce <_ZN5spark6VectorIN8particle10BleServiceENS_16DefaultAllocatorEE4moveIS2_Li0EEEvPS2_S6_S6_+0x52>
            for (; p != end; ++p, ++dest) {
   d77b4:	42ac      	cmp	r4, r5
   d77b6:	d00a      	beq.n	d77ce <_ZN5spark6VectorIN8particle10BleServiceENS_16DefaultAllocatorEE4moveIS2_Li0EEEvPS2_S6_S6_+0x52>
                new(dest) T(std::move(*p));
   d77b8:	b11e      	cbz	r6, d77c2 <_ZN5spark6VectorIN8particle10BleServiceENS_16DefaultAllocatorEE4moveIS2_Li0EEEvPS2_S6_S6_+0x46>
   d77ba:	4621      	mov	r1, r4
   d77bc:	4630      	mov	r0, r6
   d77be:	f7ff fd24 	bl	d720a <_ZNSt12__shared_ptrIN8particle14BleServiceImplELN9__gnu_cxx12_Lock_policyE0EEC1ERKS4_>
   d77c2:	1d20      	adds	r0, r4, #4
   d77c4:	f7fc ff14 	bl	d45f0 <_ZNSt14__shared_countILN9__gnu_cxx12_Lock_policyE0EED1Ev>
            for (; end != p; --end, --dest) {
                new(dest) T(std::move(*end));
                end->~T();
            }
        } else if (dest != p) {
            for (; p != end; ++p, ++dest) {
   d77c8:	3408      	adds	r4, #8
   d77ca:	3608      	adds	r6, #8
   d77cc:	e7f2      	b.n	d77b4 <_ZN5spark6VectorIN8particle10BleServiceENS_16DefaultAllocatorEE4moveIS2_Li0EEEvPS2_S6_S6_+0x38>
   d77ce:	bdf8      	pop	{r3, r4, r5, r6, r7, pc}

000d77d0 <_ZN5spark6VectorIN8particle10BleServiceENS_16DefaultAllocatorEE7reallocIS2_Li0EEEbi>:
        capacity_ = n;
        return true;
    }

    template<PARTICLE_VECTOR_ENABLE_IF_NOT_TRIVIALLY_COPYABLE(T)>
    bool realloc(int n) {
   d77d0:	b570      	push	{r4, r5, r6, lr}
        T* d = nullptr;
        if (n > 0) {
   d77d2:	1e0e      	subs	r6, r1, #0
        capacity_ = n;
        return true;
    }

    template<PARTICLE_VECTOR_ENABLE_IF_NOT_TRIVIALLY_COPYABLE(T)>
    bool realloc(int n) {
   d77d4:	4605      	mov	r5, r0
        T* d = nullptr;
        if (n > 0) {
   d77d6:	dd0b      	ble.n	d77f0 <_ZN5spark6VectorIN8particle10BleServiceENS_16DefaultAllocatorEE7reallocIS2_Li0EEEbi+0x20>

} // particle

// spark::DefaultAllocator
inline void* spark::DefaultAllocator::malloc(size_t size) {
    return ::malloc(size);
   d77d8:	00f0      	lsls	r0, r6, #3
   d77da:	f7fe fe2f 	bl	d643c <malloc>
    template<PARTICLE_VECTOR_ENABLE_IF_NOT_TRIVIALLY_COPYABLE(T)>
    bool realloc(int n) {
        T* d = nullptr;
        if (n > 0) {
            d = (T*)AllocatorT::malloc(n * sizeof(T));
            if (!d) {
   d77de:	4604      	mov	r4, r0
   d77e0:	b170      	cbz	r0, d7800 <_ZN5spark6VectorIN8particle10BleServiceENS_16DefaultAllocatorEE7reallocIS2_Li0EEEbi+0x30>
                return false;
            }
            move(d, data_, data_ + size_);
   d77e2:	e895 0006 	ldmia.w	r5, {r1, r2}
   d77e6:	eb01 02c2 	add.w	r2, r1, r2, lsl #3
   d77ea:	f7ff ffc7 	bl	d777c <_ZN5spark6VectorIN8particle10BleServiceENS_16DefaultAllocatorEE4moveIS2_Li0EEEvPS2_S6_S6_>
   d77ee:	e000      	b.n	d77f2 <_ZN5spark6VectorIN8particle10BleServiceENS_16DefaultAllocatorEE7reallocIS2_Li0EEEbi+0x22>
        return true;
    }

    template<PARTICLE_VECTOR_ENABLE_IF_NOT_TRIVIALLY_COPYABLE(T)>
    bool realloc(int n) {
        T* d = nullptr;
   d77f0:	2400      	movs	r4, #0
inline void* spark::DefaultAllocator::realloc(void* ptr, size_t size) {
    return ::realloc(ptr, size);
}

inline void spark::DefaultAllocator::free(void* ptr) {
    ::free(ptr);
   d77f2:	6828      	ldr	r0, [r5, #0]
   d77f4:	f7fe fe2a 	bl	d644c <free>
                return false;
            }
            move(d, data_, data_ + size_);
        }
        AllocatorT::free(data_);
        data_ = d;
   d77f8:	602c      	str	r4, [r5, #0]
        capacity_ = n;
   d77fa:	60ae      	str	r6, [r5, #8]
        return true;
   d77fc:	2001      	movs	r0, #1
   d77fe:	bd70      	pop	{r4, r5, r6, pc}
    }
   d7800:	bd70      	pop	{r4, r5, r6, pc}

000d7802 <_ZN5spark6VectorIN8particle10BleServiceENS_16DefaultAllocatorEEC1ERKS4_>:
        size_ = n;
    }
}

template<typename T, typename AllocatorT>
inline spark::Vector<T, AllocatorT>::Vector(const Vector<T, AllocatorT>& vector) : Vector() {
   d7802:	e92d 41f0 	stmdb	sp!, {r4, r5, r6, r7, r8, lr}
// spark::Vector
template<typename T, typename AllocatorT>
inline spark::Vector<T, AllocatorT>::Vector() :
        data_(nullptr),
        size_(0),
        capacity_(0) {
   d7806:	2300      	movs	r3, #0
   d7808:	6003      	str	r3, [r0, #0]
   d780a:	6043      	str	r3, [r0, #4]
   d780c:	6083      	str	r3, [r0, #8]
        size_ = n;
    }
}

template<typename T, typename AllocatorT>
inline spark::Vector<T, AllocatorT>::Vector(const Vector<T, AllocatorT>& vector) : Vector() {
   d780e:	460e      	mov	r6, r1
    if (vector.size_ > 0 && realloc(vector.size_)) {
   d7810:	6849      	ldr	r1, [r1, #4]
   d7812:	4299      	cmp	r1, r3
        size_ = n;
    }
}

template<typename T, typename AllocatorT>
inline spark::Vector<T, AllocatorT>::Vector(const Vector<T, AllocatorT>& vector) : Vector() {
   d7814:	4604      	mov	r4, r0
    if (vector.size_ > 0 && realloc(vector.size_)) {
   d7816:	dd13      	ble.n	d7840 <_ZN5spark6VectorIN8particle10BleServiceENS_16DefaultAllocatorEEC1ERKS4_+0x3e>
   d7818:	f7ff ffda 	bl	d77d0 <_ZN5spark6VectorIN8particle10BleServiceENS_16DefaultAllocatorEE7reallocIS2_Li0EEEbi>
   d781c:	b180      	cbz	r0, d7840 <_ZN5spark6VectorIN8particle10BleServiceENS_16DefaultAllocatorEEC1ERKS4_+0x3e>
        copy(data_, vector.data_, vector.data_ + vector.size_);
   d781e:	6835      	ldr	r5, [r6, #0]
   d7820:	6873      	ldr	r3, [r6, #4]
   d7822:	6827      	ldr	r7, [r4, #0]
   d7824:	eb05 08c3 	add.w	r8, r5, r3, lsl #3
        }
    }

    template<typename IteratorT>
    static void copy(IteratorT dest, IteratorT it, IteratorT end) {
        for (; it != end; ++it, ++dest) {
   d7828:	4545      	cmp	r5, r8
   d782a:	d007      	beq.n	d783c <_ZN5spark6VectorIN8particle10BleServiceENS_16DefaultAllocatorEEC1ERKS4_+0x3a>
            new(dest) T(*it);
   d782c:	b11f      	cbz	r7, d7836 <_ZN5spark6VectorIN8particle10BleServiceENS_16DefaultAllocatorEEC1ERKS4_+0x34>
   d782e:	4629      	mov	r1, r5
   d7830:	4638      	mov	r0, r7
   d7832:	f7ff fcea 	bl	d720a <_ZNSt12__shared_ptrIN8particle14BleServiceImplELN9__gnu_cxx12_Lock_policyE0EEC1ERKS4_>
        }
    }

    template<typename IteratorT>
    static void copy(IteratorT dest, IteratorT it, IteratorT end) {
        for (; it != end; ++it, ++dest) {
   d7836:	3508      	adds	r5, #8
   d7838:	3708      	adds	r7, #8
   d783a:	e7f5      	b.n	d7828 <_ZN5spark6VectorIN8particle10BleServiceENS_16DefaultAllocatorEEC1ERKS4_+0x26>

template<typename T, typename AllocatorT>
inline spark::Vector<T, AllocatorT>::Vector(const Vector<T, AllocatorT>& vector) : Vector() {
    if (vector.size_ > 0 && realloc(vector.size_)) {
        copy(data_, vector.data_, vector.data_ + vector.size_);
        size_ = vector.size_;
   d783c:	6873      	ldr	r3, [r6, #4]
   d783e:	6063      	str	r3, [r4, #4]
    }
}
   d7840:	4620      	mov	r0, r4
   d7842:	e8bd 81f0 	ldmia.w	sp!, {r4, r5, r6, r7, r8, pc}

000d7846 <_ZN8particle13BlePeerDevice19discoverAllServicesEv>:
BlePeerDevice& BlePeerDevice::operator=(const BlePeerDevice& peer) {
    impl_ = peer.impl_;
    return *this;
}

Vector<BleService> BlePeerDevice::discoverAllServices() {
   d7846:	b538      	push	{r3, r4, r5, lr}
    if (!impl()->servicesDiscovered()) {
   d7848:	680b      	ldr	r3, [r1, #0]
   d784a:	7a9b      	ldrb	r3, [r3, #10]
BlePeerDevice& BlePeerDevice::operator=(const BlePeerDevice& peer) {
    impl_ = peer.impl_;
    return *this;
}

Vector<BleService> BlePeerDevice::discoverAllServices() {
   d784c:	4605      	mov	r5, r0
   d784e:	460c      	mov	r4, r1
    if (!impl()->servicesDiscovered()) {
   d7850:	b933      	cbnz	r3, d7860 <_ZN8particle13BlePeerDevice19discoverAllServicesEv+0x1a>
        BleDiscoveryDelegator discovery;
        if (discovery.discoverAllServices(*this) == SYSTEM_ERROR_NONE) {
   d7852:	4608      	mov	r0, r1
   d7854:	f7fe ff6e 	bl	d6734 <_ZN8particle21BleDiscoveryDelegator19discoverAllServicesERNS_13BlePeerDeviceE.isra.20>
   d7858:	b910      	cbnz	r0, d7860 <_ZN8particle13BlePeerDevice19discoverAllServicesEv+0x1a>
   d785a:	6823      	ldr	r3, [r4, #0]
            impl()->servicesDiscovered() = true;
   d785c:	2201      	movs	r2, #1
   d785e:	729a      	strb	r2, [r3, #10]
    bool& characteristicsDiscovered() {
        return characteristicsDiscovered_;
    }

    Vector<BleService>& services() {
        return services_;
   d7860:	6821      	ldr	r1, [r4, #0]
    }
    return characteristics(chars, count);
}

Vector<BleService> BlePeerDevice::services() {
    return impl()->services();
   d7862:	4628      	mov	r0, r5
   d7864:	310c      	adds	r1, #12
   d7866:	f7ff ffcc 	bl	d7802 <_ZN5spark6VectorIN8particle10BleServiceENS_16DefaultAllocatorEEC1ERKS4_>
        if (discovery.discoverAllServices(*this) == SYSTEM_ERROR_NONE) {
            impl()->servicesDiscovered() = true;
        }
    }
    return services();
}
   d786a:	4628      	mov	r0, r5
   d786c:	bd38      	pop	{r3, r4, r5, pc}

000d786e <_ZN5spark6VectorIN8particle10BleServiceENS_16DefaultAllocatorEE6appendES2_>:
    destruct(data_, data_ + size_);
    AllocatorT::free(data_);
}

template<typename T, typename AllocatorT>
inline bool spark::Vector<T, AllocatorT>::append(T value) {
   d786e:	b573      	push	{r0, r1, r4, r5, r6, lr}
   d7870:	4604      	mov	r4, r0
    return insert(size_, std::move(value));
   d7872:	6845      	ldr	r5, [r0, #4]
   d7874:	4668      	mov	r0, sp
   d7876:	f7ff fcc8 	bl	d720a <_ZNSt12__shared_ptrIN8particle14BleServiceImplELN9__gnu_cxx12_Lock_policyE0EEC1ERKS4_>
    return insert(0, vector);
}

template<typename T, typename AllocatorT>
inline bool spark::Vector<T, AllocatorT>::insert(int i, T value) {
    if (size_ + 1 > capacity_ && !realloc(size_ + 1)) {
   d787a:	6861      	ldr	r1, [r4, #4]
   d787c:	68a3      	ldr	r3, [r4, #8]
   d787e:	4299      	cmp	r1, r3
   d7880:	db05      	blt.n	d788e <_ZN5spark6VectorIN8particle10BleServiceENS_16DefaultAllocatorEE6appendES2_+0x20>
   d7882:	3101      	adds	r1, #1
   d7884:	4620      	mov	r0, r4
   d7886:	f7ff ffa3 	bl	d77d0 <_ZN5spark6VectorIN8particle10BleServiceENS_16DefaultAllocatorEE7reallocIS2_Li0EEEbi>
   d788a:	4606      	mov	r6, r0
   d788c:	b198      	cbz	r0, d78b6 <_ZN5spark6VectorIN8particle10BleServiceENS_16DefaultAllocatorEE6appendES2_+0x48>
        return false;
    }
    T* const p = data_ + i;
   d788e:	6823      	ldr	r3, [r4, #0]
    move(p + 1, p, data_ + size_);
   d7890:	6862      	ldr	r2, [r4, #4]
template<typename T, typename AllocatorT>
inline bool spark::Vector<T, AllocatorT>::insert(int i, T value) {
    if (size_ + 1 > capacity_ && !realloc(size_ + 1)) {
        return false;
    }
    T* const p = data_ + i;
   d7892:	eb03 05c5 	add.w	r5, r3, r5, lsl #3
    move(p + 1, p, data_ + size_);
   d7896:	eb03 02c2 	add.w	r2, r3, r2, lsl #3
   d789a:	4629      	mov	r1, r5
   d789c:	f105 0008 	add.w	r0, r5, #8
   d78a0:	f7ff ff6c 	bl	d777c <_ZN5spark6VectorIN8particle10BleServiceENS_16DefaultAllocatorEE4moveIS2_Li0EEEvPS2_S6_S6_>
    new(p) T(std::move(value));
   d78a4:	b11d      	cbz	r5, d78ae <_ZN5spark6VectorIN8particle10BleServiceENS_16DefaultAllocatorEE6appendES2_+0x40>
   d78a6:	4669      	mov	r1, sp
   d78a8:	4628      	mov	r0, r5
   d78aa:	f7ff fcae 	bl	d720a <_ZNSt12__shared_ptrIN8particle14BleServiceImplELN9__gnu_cxx12_Lock_policyE0EEC1ERKS4_>
    ++size_;
   d78ae:	6863      	ldr	r3, [r4, #4]
   d78b0:	3301      	adds	r3, #1
   d78b2:	6063      	str	r3, [r4, #4]
   d78b4:	2601      	movs	r6, #1
   d78b6:	a801      	add	r0, sp, #4
   d78b8:	f7fc fe9a 	bl	d45f0 <_ZNSt14__shared_countILN9__gnu_cxx12_Lock_policyE0EED1Ev>
}

template<typename T, typename AllocatorT>
inline bool spark::Vector<T, AllocatorT>::append(T value) {
    return insert(size_, std::move(value));
}
   d78bc:	4630      	mov	r0, r6
   d78be:	b002      	add	sp, #8
   d78c0:	bd70      	pop	{r4, r5, r6, pc}

000d78c2 <_ZN5spark6VectorIN8particle17BleCharacteristicENS_16DefaultAllocatorEE4moveIS2_Li0EEEvPS2_S6_S6_>:
        ::memmove(dest, p, (end - p) * sizeof(T));
    }

    template<PARTICLE_VECTOR_ENABLE_IF_NOT_TRIVIALLY_COPYABLE(T)>
    static void move(T* dest, T* p, T* end) {
        if (dest > p && dest < end) {
   d78c2:	4288      	cmp	r0, r1
    static void move(T* dest, const T* p, const T* end) {
        ::memmove(dest, p, (end - p) * sizeof(T));
    }

    template<PARTICLE_VECTOR_ENABLE_IF_NOT_TRIVIALLY_COPYABLE(T)>
    static void move(T* dest, T* p, T* end) {
   d78c4:	b5f8      	push	{r3, r4, r5, r6, r7, lr}
   d78c6:	4606      	mov	r6, r0
   d78c8:	460c      	mov	r4, r1
   d78ca:	4615      	mov	r5, r2
        if (dest > p && dest < end) {
   d78cc:	d914      	bls.n	d78f8 <_ZN5spark6VectorIN8particle17BleCharacteristicENS_16DefaultAllocatorEE4moveIS2_Li0EEEvPS2_S6_S6_+0x36>
   d78ce:	4290      	cmp	r0, r2
   d78d0:	d213      	bcs.n	d78fa <_ZN5spark6VectorIN8particle17BleCharacteristicENS_16DefaultAllocatorEE4moveIS2_Li0EEEvPS2_S6_S6_+0x38>
            // Move elements in reverse order
            --p;
            --end;
   d78d2:	f1a2 0508 	sub.w	r5, r2, #8
            dest += end - p - 1;
   d78d6:	1a6c      	subs	r4, r5, r1
   d78d8:	f1a1 0708 	sub.w	r7, r1, #8
   d78dc:	4404      	add	r4, r0
            for (; end != p; --end, --dest) {
   d78de:	42af      	cmp	r7, r5
   d78e0:	d018      	beq.n	d7914 <_ZN5spark6VectorIN8particle17BleCharacteristicENS_16DefaultAllocatorEE4moveIS2_Li0EEEvPS2_S6_S6_+0x52>
                new(dest) T(std::move(*end));
   d78e2:	b11c      	cbz	r4, d78ec <_ZN5spark6VectorIN8particle17BleCharacteristicENS_16DefaultAllocatorEE4moveIS2_Li0EEEvPS2_S6_S6_+0x2a>
   d78e4:	4629      	mov	r1, r5
   d78e6:	4620      	mov	r0, r4
   d78e8:	f7ff fc81 	bl	d71ee <_ZN8particle17BleCharacteristicC1ERKS0_>
   d78ec:	1d28      	adds	r0, r5, #4
   d78ee:	f7fc fe7f 	bl	d45f0 <_ZNSt14__shared_countILN9__gnu_cxx12_Lock_policyE0EED1Ev>
        if (dest > p && dest < end) {
            // Move elements in reverse order
            --p;
            --end;
            dest += end - p - 1;
            for (; end != p; --end, --dest) {
   d78f2:	3d08      	subs	r5, #8
   d78f4:	3c08      	subs	r4, #8
   d78f6:	e7f2      	b.n	d78de <_ZN5spark6VectorIN8particle17BleCharacteristicENS_16DefaultAllocatorEE4moveIS2_Li0EEEvPS2_S6_S6_+0x1c>
                new(dest) T(std::move(*end));
                end->~T();
            }
        } else if (dest != p) {
   d78f8:	d00c      	beq.n	d7914 <_ZN5spark6VectorIN8particle17BleCharacteristicENS_16DefaultAllocatorEE4moveIS2_Li0EEEvPS2_S6_S6_+0x52>
            for (; p != end; ++p, ++dest) {
   d78fa:	42ac      	cmp	r4, r5
   d78fc:	d00a      	beq.n	d7914 <_ZN5spark6VectorIN8particle17BleCharacteristicENS_16DefaultAllocatorEE4moveIS2_Li0EEEvPS2_S6_S6_+0x52>
                new(dest) T(std::move(*p));
   d78fe:	b11e      	cbz	r6, d7908 <_ZN5spark6VectorIN8particle17BleCharacteristicENS_16DefaultAllocatorEE4moveIS2_Li0EEEvPS2_S6_S6_+0x46>
   d7900:	4621      	mov	r1, r4
   d7902:	4630      	mov	r0, r6
   d7904:	f7ff fc73 	bl	d71ee <_ZN8particle17BleCharacteristicC1ERKS0_>
   d7908:	1d20      	adds	r0, r4, #4
   d790a:	f7fc fe71 	bl	d45f0 <_ZNSt14__shared_countILN9__gnu_cxx12_Lock_policyE0EED1Ev>
            for (; end != p; --end, --dest) {
                new(dest) T(std::move(*end));
                end->~T();
            }
        } else if (dest != p) {
            for (; p != end; ++p, ++dest) {
   d790e:	3408      	adds	r4, #8
   d7910:	3608      	adds	r6, #8
   d7912:	e7f2      	b.n	d78fa <_ZN5spark6VectorIN8particle17BleCharacteristicENS_16DefaultAllocatorEE4moveIS2_Li0EEEvPS2_S6_S6_+0x38>
   d7914:	bdf8      	pop	{r3, r4, r5, r6, r7, pc}

000d7916 <_ZN5spark6VectorIN8particle17BleCharacteristicENS_16DefaultAllocatorEE7reallocIS2_Li0EEEbi>:
        capacity_ = n;
        return true;
    }

    template<PARTICLE_VECTOR_ENABLE_IF_NOT_TRIVIALLY_COPYABLE(T)>
    bool realloc(int n) {
   d7916:	b570      	push	{r4, r5, r6, lr}
        T* d = nullptr;
        if (n > 0) {
   d7918:	1e0e      	subs	r6, r1, #0
        capacity_ = n;
        return true;
    }

    template<PARTICLE_VECTOR_ENABLE_IF_NOT_TRIVIALLY_COPYABLE(T)>
    bool realloc(int n) {
   d791a:	4605      	mov	r5, r0
        T* d = nullptr;
        if (n > 0) {
   d791c:	dd0b      	ble.n	d7936 <_ZN5spark6VectorIN8particle17BleCharacteristicENS_16DefaultAllocatorEE7reallocIS2_Li0EEEbi+0x20>

} // particle

// spark::DefaultAllocator
inline void* spark::DefaultAllocator::malloc(size_t size) {
    return ::malloc(size);
   d791e:	00f0      	lsls	r0, r6, #3
   d7920:	f7fe fd8c 	bl	d643c <malloc>
    template<PARTICLE_VECTOR_ENABLE_IF_NOT_TRIVIALLY_COPYABLE(T)>
    bool realloc(int n) {
        T* d = nullptr;
        if (n > 0) {
            d = (T*)AllocatorT::malloc(n * sizeof(T));
            if (!d) {
   d7924:	4604      	mov	r4, r0
   d7926:	b170      	cbz	r0, d7946 <_ZN5spark6VectorIN8particle17BleCharacteristicENS_16DefaultAllocatorEE7reallocIS2_Li0EEEbi+0x30>
                return false;
            }
            move(d, data_, data_ + size_);
   d7928:	e895 0006 	ldmia.w	r5, {r1, r2}
   d792c:	eb01 02c2 	add.w	r2, r1, r2, lsl #3
   d7930:	f7ff ffc7 	bl	d78c2 <_ZN5spark6VectorIN8particle17BleCharacteristicENS_16DefaultAllocatorEE4moveIS2_Li0EEEvPS2_S6_S6_>
   d7934:	e000      	b.n	d7938 <_ZN5spark6VectorIN8particle17BleCharacteristicENS_16DefaultAllocatorEE7reallocIS2_Li0EEEbi+0x22>
        return true;
    }

    template<PARTICLE_VECTOR_ENABLE_IF_NOT_TRIVIALLY_COPYABLE(T)>
    bool realloc(int n) {
        T* d = nullptr;
   d7936:	2400      	movs	r4, #0
inline void* spark::DefaultAllocator::realloc(void* ptr, size_t size) {
    return ::realloc(ptr, size);
}

inline void spark::DefaultAllocator::free(void* ptr) {
    ::free(ptr);
   d7938:	6828      	ldr	r0, [r5, #0]
   d793a:	f7fe fd87 	bl	d644c <free>
                return false;
            }
            move(d, data_, data_ + size_);
        }
        AllocatorT::free(data_);
        data_ = d;
   d793e:	602c      	str	r4, [r5, #0]
        capacity_ = n;
   d7940:	60ae      	str	r6, [r5, #8]
        return true;
   d7942:	2001      	movs	r0, #1
   d7944:	bd70      	pop	{r4, r5, r6, pc}
    }
   d7946:	bd70      	pop	{r4, r5, r6, pc}

000d7948 <_ZN5spark6VectorIN8particle17BleCharacteristicENS_16DefaultAllocatorEEC1ERKS4_>:
        size_ = n;
    }
}

template<typename T, typename AllocatorT>
inline spark::Vector<T, AllocatorT>::Vector(const Vector<T, AllocatorT>& vector) : Vector() {
   d7948:	e92d 41f0 	stmdb	sp!, {r4, r5, r6, r7, r8, lr}
// spark::Vector
template<typename T, typename AllocatorT>
inline spark::Vector<T, AllocatorT>::Vector() :
        data_(nullptr),
        size_(0),
        capacity_(0) {
   d794c:	2300      	movs	r3, #0
   d794e:	6003      	str	r3, [r0, #0]
   d7950:	6043      	str	r3, [r0, #4]
   d7952:	6083      	str	r3, [r0, #8]
        size_ = n;
    }
}

template<typename T, typename AllocatorT>
inline spark::Vector<T, AllocatorT>::Vector(const Vector<T, AllocatorT>& vector) : Vector() {
   d7954:	460e      	mov	r6, r1
    if (vector.size_ > 0 && realloc(vector.size_)) {
   d7956:	6849      	ldr	r1, [r1, #4]
   d7958:	4299      	cmp	r1, r3
        size_ = n;
    }
}

template<typename T, typename AllocatorT>
inline spark::Vector<T, AllocatorT>::Vector(const Vector<T, AllocatorT>& vector) : Vector() {
   d795a:	4604      	mov	r4, r0
    if (vector.size_ > 0 && realloc(vector.size_)) {
   d795c:	dd13      	ble.n	d7986 <_ZN5spark6VectorIN8particle17BleCharacteristicENS_16DefaultAllocatorEEC1ERKS4_+0x3e>
   d795e:	f7ff ffda 	bl	d7916 <_ZN5spark6VectorIN8particle17BleCharacteristicENS_16DefaultAllocatorEE7reallocIS2_Li0EEEbi>
   d7962:	b180      	cbz	r0, d7986 <_ZN5spark6VectorIN8particle17BleCharacteristicENS_16DefaultAllocatorEEC1ERKS4_+0x3e>
        copy(data_, vector.data_, vector.data_ + vector.size_);
   d7964:	6835      	ldr	r5, [r6, #0]
   d7966:	6873      	ldr	r3, [r6, #4]
   d7968:	6827      	ldr	r7, [r4, #0]
   d796a:	eb05 08c3 	add.w	r8, r5, r3, lsl #3
        }
    }

    template<typename IteratorT>
    static void copy(IteratorT dest, IteratorT it, IteratorT end) {
        for (; it != end; ++it, ++dest) {
   d796e:	4545      	cmp	r5, r8
   d7970:	d007      	beq.n	d7982 <_ZN5spark6VectorIN8particle17BleCharacteristicENS_16DefaultAllocatorEEC1ERKS4_+0x3a>
            new(dest) T(*it);
   d7972:	b11f      	cbz	r7, d797c <_ZN5spark6VectorIN8particle17BleCharacteristicENS_16DefaultAllocatorEEC1ERKS4_+0x34>
   d7974:	4629      	mov	r1, r5
   d7976:	4638      	mov	r0, r7
   d7978:	f7ff fc39 	bl	d71ee <_ZN8particle17BleCharacteristicC1ERKS0_>
        }
    }

    template<typename IteratorT>
    static void copy(IteratorT dest, IteratorT it, IteratorT end) {
        for (; it != end; ++it, ++dest) {
   d797c:	3508      	adds	r5, #8
   d797e:	3708      	adds	r7, #8
   d7980:	e7f5      	b.n	d796e <_ZN5spark6VectorIN8particle17BleCharacteristicENS_16DefaultAllocatorEEC1ERKS4_+0x26>

template<typename T, typename AllocatorT>
inline spark::Vector<T, AllocatorT>::Vector(const Vector<T, AllocatorT>& vector) : Vector() {
    if (vector.size_ > 0 && realloc(vector.size_)) {
        copy(data_, vector.data_, vector.data_ + vector.size_);
        size_ = vector.size_;
   d7982:	6873      	ldr	r3, [r6, #4]
   d7984:	6063      	str	r3, [r4, #4]
    }
}
   d7986:	4620      	mov	r0, r4
   d7988:	e8bd 81f0 	ldmia.w	sp!, {r4, r5, r6, r7, r8, pc}

000d798c <_ZN8particle13BlePeerDevice26discoverAllCharacteristicsEv>:
        impl()->servicesDiscovered() = true;
    }
    return services(svcs, count);
}

Vector<BleCharacteristic> BlePeerDevice::discoverAllCharacteristics() {
   d798c:	b530      	push	{r4, r5, lr}
    if (!impl()->servicesDiscovered()) {
   d798e:	680b      	ldr	r3, [r1, #0]
   d7990:	7a9b      	ldrb	r3, [r3, #10]
        impl()->servicesDiscovered() = true;
    }
    return services(svcs, count);
}

Vector<BleCharacteristic> BlePeerDevice::discoverAllCharacteristics() {
   d7992:	b085      	sub	sp, #20
   d7994:	4605      	mov	r5, r0
   d7996:	460c      	mov	r4, r1
    if (!impl()->servicesDiscovered()) {
   d7998:	b92b      	cbnz	r3, d79a6 <_ZN8particle13BlePeerDevice26discoverAllCharacteristicsEv+0x1a>
        discoverAllServices();
   d799a:	a801      	add	r0, sp, #4
   d799c:	f7ff ff53 	bl	d7846 <_ZN8particle13BlePeerDevice19discoverAllServicesEv>
   d79a0:	a801      	add	r0, sp, #4
   d79a2:	f7ff fc4a 	bl	d723a <_ZN5spark6VectorIN8particle10BleServiceENS_16DefaultAllocatorEED1Ev>
    }
    if (!impl()->characteristicsDiscovered()) {
   d79a6:	6823      	ldr	r3, [r4, #0]
   d79a8:	7adb      	ldrb	r3, [r3, #11]
   d79aa:	b93b      	cbnz	r3, d79bc <_ZN8particle13BlePeerDevice26discoverAllCharacteristicsEv+0x30>
        BleDiscoveryDelegator discovery;
        if (discovery.discoverAllCharacteristics(*this) == SYSTEM_ERROR_NONE) {
   d79ac:	4621      	mov	r1, r4
   d79ae:	a801      	add	r0, sp, #4
   d79b0:	f7ff facc 	bl	d6f4c <_ZN8particle21BleDiscoveryDelegator26discoverAllCharacteristicsERNS_13BlePeerDeviceE>
   d79b4:	b910      	cbnz	r0, d79bc <_ZN8particle13BlePeerDevice26discoverAllCharacteristicsEv+0x30>
   d79b6:	6823      	ldr	r3, [r4, #0]
            impl()->characteristicsDiscovered() = true;
   d79b8:	2201      	movs	r2, #1
   d79ba:	72da      	strb	r2, [r3, #11]
    Vector<BleService>& services() {
        return services_;
    }

    Vector<BleCharacteristic>& characteristics() {
        return characteristics_;
   d79bc:	6821      	ldr	r1, [r4, #0]
    }
    return false;
}

Vector<BleCharacteristic> BlePeerDevice::characteristics() {
    return impl()->characteristics();
   d79be:	4628      	mov	r0, r5
   d79c0:	3118      	adds	r1, #24
   d79c2:	f7ff ffc1 	bl	d7948 <_ZN5spark6VectorIN8particle17BleCharacteristicENS_16DefaultAllocatorEEC1ERKS4_>
        if (discovery.discoverAllCharacteristics(*this) == SYSTEM_ERROR_NONE) {
            impl()->characteristicsDiscovered() = true;
        }
    }
    return characteristics();
}
   d79c6:	4628      	mov	r0, r5
   d79c8:	b005      	add	sp, #20
   d79ca:	bd30      	pop	{r4, r5, pc}

000d79cc <_ZN8particle13BlePeerDevice7connectERKNS_10BleAddressEPKNS_19BleConnectionParamsEb>:
        }
    }
    return false;
}

int BlePeerDevice::connect(const BleAddress& addr, const BleConnectionParams* params, bool automatic) {
   d79cc:	e92d 43f0 	stmdb	sp!, {r4, r5, r6, r7, r8, r9, lr}
   d79d0:	460d      	mov	r5, r1
   d79d2:	b093      	sub	sp, #76	; 0x4c
    hal_ble_conn_cfg_t connCfg = {};
   d79d4:	f04f 0818 	mov.w	r8, #24
        }
    }
    return false;
}

int BlePeerDevice::connect(const BleAddress& addr, const BleConnectionParams* params, bool automatic) {
   d79d8:	4617      	mov	r7, r2
   d79da:	4606      	mov	r6, r0
    hal_ble_conn_cfg_t connCfg = {};
   d79dc:	4642      	mov	r2, r8
   d79de:	2100      	movs	r1, #0
   d79e0:	a804      	add	r0, sp, #16
        }
    }
    return false;
}

int BlePeerDevice::connect(const BleAddress& addr, const BleConnectionParams* params, bool automatic) {
   d79e2:	461c      	mov	r4, r3
    hal_ble_conn_cfg_t connCfg = {};
   d79e4:	f002 ffd3 	bl	da98e <memset>
void BleAddress::octets(uint8_t addr[BLE_SIG_ADDR_LEN]) const {
    memcpy(addr, address_.addr, BLE_SIG_ADDR_LEN);
}

hal_ble_addr_t BleAddress::halAddress() const {
    return address_;
   d79e8:	6869      	ldr	r1, [r5, #4]
   d79ea:	6828      	ldr	r0, [r5, #0]
int BlePeerDevice::connect(const BleAddress& addr, const BleConnectionParams* params, bool automatic) {
    hal_ble_conn_cfg_t connCfg = {};
    connCfg.version = BLE_API_VERSION;
    connCfg.size = sizeof(hal_ble_conn_cfg_t);
    connCfg.address = addr.halAddress();
    connCfg.conn_params = params;
   d79ec:	9707      	str	r7, [sp, #28]
void BleAddress::octets(uint8_t addr[BLE_SIG_ADDR_LEN]) const {
    memcpy(addr, address_.addr, BLE_SIG_ADDR_LEN);
}

hal_ble_addr_t BleAddress::halAddress() const {
    return address_;
   d79ee:	ab02      	add	r3, sp, #8
   d79f0:	c303      	stmia	r3!, {r0, r1}
    return false;
}

int BlePeerDevice::connect(const BleAddress& addr, const BleConnectionParams* params, bool automatic) {
    hal_ble_conn_cfg_t connCfg = {};
    connCfg.version = BLE_API_VERSION;
   d79f2:	f04f 0901 	mov.w	r9, #1
    connCfg.size = sizeof(hal_ble_conn_cfg_t);
    connCfg.address = addr.halAddress();
   d79f6:	ab05      	add	r3, sp, #20
   d79f8:	e883 0003 	stmia.w	r3, {r0, r1}
    return false;
}

int BlePeerDevice::connect(const BleAddress& addr, const BleConnectionParams* params, bool automatic) {
    hal_ble_conn_cfg_t connCfg = {};
    connCfg.version = BLE_API_VERSION;
   d79fc:	f8ad 9010 	strh.w	r9, [sp, #16]
    connCfg.size = sizeof(hal_ble_conn_cfg_t);
   d7a00:	f8ad 8012 	strh.w	r8, [sp, #18]
    connCfg.address = addr.halAddress();
    connCfg.conn_params = params;
    connCfg.callback = BleLocalDevice::getInstance().impl()->onBleLinkEvents;
   d7a04:	f7ff fb6c 	bl	d70e0 <_ZN8particle14BleLocalDevice11getInstanceEv>
   d7a08:	4b34      	ldr	r3, [pc, #208]	; (d7adc <_ZN8particle13BlePeerDevice7connectERKNS_10BleAddressEPKNS_19BleConnectionParamsEb+0x110>)
   d7a0a:	9308      	str	r3, [sp, #32]
    connCfg.context = BleLocalDevice::getInstance().impl();
   d7a0c:	f7ff fb68 	bl	d70e0 <_ZN8particle14BleLocalDevice11getInstanceEv>
    int ret = hal_ble_gap_connect(&connCfg, &impl()->connHandle(), nullptr);
   d7a10:	2200      	movs	r2, #0
      }

      /// Return the stored pointer.
      pointer
      get() const noexcept
      { return std::get<0>(_M_t); }
   d7a12:	6803      	ldr	r3, [r0, #0]
   d7a14:	6831      	ldr	r1, [r6, #0]
    connCfg.version = BLE_API_VERSION;
    connCfg.size = sizeof(hal_ble_conn_cfg_t);
    connCfg.address = addr.halAddress();
    connCfg.conn_params = params;
    connCfg.callback = BleLocalDevice::getInstance().impl()->onBleLinkEvents;
    connCfg.context = BleLocalDevice::getInstance().impl();
   d7a16:	9309      	str	r3, [sp, #36]	; 0x24
    int ret = hal_ble_gap_connect(&connCfg, &impl()->connHandle(), nullptr);
   d7a18:	a804      	add	r0, sp, #16
   d7a1a:	f7fe fb25 	bl	d6068 <hal_ble_gap_connect>
    if (ret != SYSTEM_ERROR_NONE) {
   d7a1e:	4607      	mov	r7, r0
   d7a20:	b120      	cbz	r0, d7a2c <_ZN8particle13BlePeerDevice7connectERKNS_10BleAddressEPKNS_19BleConnectionParamsEb+0x60>
   d7a22:	6833      	ldr	r3, [r6, #0]
        impl()->connHandle() = BLE_INVALID_CONN_HANDLE;
   d7a24:	f64f 72ff 	movw	r2, #65535	; 0xffff
   d7a28:	801a      	strh	r2, [r3, #0]
        return ret;
   d7a2a:	e053      	b.n	d7ad4 <_ZN8particle13BlePeerDevice7connectERKNS_10BleAddressEPKNS_19BleConnectionParamsEb+0x108>
    }
    bind(addr);
   d7a2c:	4629      	mov	r1, r5
   d7a2e:	4630      	mov	r0, r6
   d7a30:	f7ff fafe 	bl	d7030 <_ZNK8particle13BlePeerDevice4bindERKNS_10BleAddressE>
    if (!BleLocalDevice::getInstance().impl()->peers().append(*this)) {
   d7a34:	f7ff fb54 	bl	d70e0 <_ZN8particle14BleLocalDevice11getInstanceEv>
      template<typename _Tp1>
	__shared_ptr(const __shared_ptr<_Tp1, _Lp>& __r, _Tp* __p) noexcept
	: _M_ptr(__p), _M_refcount(__r._M_refcount) // never throws
	{ }

      __shared_ptr(const __shared_ptr&) noexcept = default;
   d7a38:	4631      	mov	r1, r6
    Vector<BleCharacteristic>& characteristics() {
        return characteristics_;
    }

    Vector<BlePeerDevice>& peers() {
        return peers_;
   d7a3a:	6803      	ldr	r3, [r0, #0]
   d7a3c:	ad12      	add	r5, sp, #72	; 0x48
   d7a3e:	f103 0818 	add.w	r8, r3, #24
   d7a42:	f851 3b04 	ldr.w	r3, [r1], #4
   d7a46:	f845 3d20 	str.w	r3, [r5, #-32]!
   d7a4a:	a80b      	add	r0, sp, #44	; 0x2c
   d7a4c:	f7ff fbc8 	bl	d71e0 <_ZNSt14__shared_countILN9__gnu_cxx12_Lock_policyE0EEC1ERKS2_>
    if (ret != SYSTEM_ERROR_NONE) {
        impl()->connHandle() = BLE_INVALID_CONN_HANDLE;
        return ret;
    }
    bind(addr);
    if (!BleLocalDevice::getInstance().impl()->peers().append(*this)) {
   d7a50:	4629      	mov	r1, r5
   d7a52:	4640      	mov	r0, r8
   d7a54:	f7ff fd30 	bl	d74b8 <_ZN5spark6VectorIN8particle13BlePeerDeviceENS_16DefaultAllocatorEE6appendES2_>
   d7a58:	4680      	mov	r8, r0
      __shared_ptr& operator=(const __shared_ptr&) noexcept = default;
      ~__shared_ptr() = default;
   d7a5a:	a80b      	add	r0, sp, #44	; 0x2c
   d7a5c:	f7fc fdc8 	bl	d45f0 <_ZNSt14__shared_countILN9__gnu_cxx12_Lock_policyE0EED1Ev>
   d7a60:	2320      	movs	r3, #32
        LOG(ERROR, "Cannot add new peer device.");
   d7a62:	930a      	str	r3, [sp, #40]	; 0x28
    if (ret != SYSTEM_ERROR_NONE) {
        impl()->connHandle() = BLE_INVALID_CONN_HANDLE;
        return ret;
    }
    bind(addr);
    if (!BleLocalDevice::getInstance().impl()->peers().append(*this)) {
   d7a64:	f1b8 0f00 	cmp.w	r8, #0
   d7a68:	d114      	bne.n	d7a94 <_ZN8particle13BlePeerDevice7connectERKNS_10BleAddressEPKNS_19BleConnectionParamsEb+0xc8>
        LOG(ERROR, "Cannot add new peer device.");
   d7a6a:	4b1d      	ldr	r3, [pc, #116]	; (d7ae0 <_ZN8particle13BlePeerDevice7connectERKNS_10BleAddressEPKNS_19BleConnectionParamsEb+0x114>)
   d7a6c:	9300      	str	r3, [sp, #0]
   d7a6e:	462a      	mov	r2, r5
   d7a70:	4643      	mov	r3, r8
   d7a72:	491c      	ldr	r1, [pc, #112]	; (d7ae4 <_ZN8particle13BlePeerDevice7connectERKNS_10BleAddressEPKNS_19BleConnectionParamsEb+0x118>)
   d7a74:	f8cd 802c 	str.w	r8, [sp, #44]	; 0x2c
   d7a78:	2032      	movs	r0, #50	; 0x32
   d7a7a:	f7fe fc2b 	bl	d62d4 <log_message>
        hal_ble_gap_disconnect(impl()->connHandle(), nullptr);
   d7a7e:	6833      	ldr	r3, [r6, #0]
   d7a80:	4641      	mov	r1, r8
   d7a82:	8818      	ldrh	r0, [r3, #0]
   d7a84:	f7fe fac8 	bl	d6018 <hal_ble_gap_disconnect>
   d7a88:	6833      	ldr	r3, [r6, #0]
        impl()->connHandle() = BLE_INVALID_CONN_HANDLE;
        return SYSTEM_ERROR_NO_MEMORY;
   d7a8a:	4817      	ldr	r0, [pc, #92]	; (d7ae8 <_ZN8particle13BlePeerDevice7connectERKNS_10BleAddressEPKNS_19BleConnectionParamsEb+0x11c>)
    }
    bind(addr);
    if (!BleLocalDevice::getInstance().impl()->peers().append(*this)) {
        LOG(ERROR, "Cannot add new peer device.");
        hal_ble_gap_disconnect(impl()->connHandle(), nullptr);
        impl()->connHandle() = BLE_INVALID_CONN_HANDLE;
   d7a8c:	f64f 72ff 	movw	r2, #65535	; 0xffff
   d7a90:	801a      	strh	r2, [r3, #0]
   d7a92:	e01f      	b.n	d7ad4 <_ZN8particle13BlePeerDevice7connectERKNS_10BleAddressEPKNS_19BleConnectionParamsEb+0x108>
        return SYSTEM_ERROR_NO_MEMORY;
    }
    LOG(TRACE, "New peripheral is connected.");
   d7a94:	4b15      	ldr	r3, [pc, #84]	; (d7aec <_ZN8particle13BlePeerDevice7connectERKNS_10BleAddressEPKNS_19BleConnectionParamsEb+0x120>)
   d7a96:	9300      	str	r3, [sp, #0]
   d7a98:	462a      	mov	r2, r5
   d7a9a:	463b      	mov	r3, r7
   d7a9c:	4911      	ldr	r1, [pc, #68]	; (d7ae4 <_ZN8particle13BlePeerDevice7connectERKNS_10BleAddressEPKNS_19BleConnectionParamsEb+0x118>)
   d7a9e:	970b      	str	r7, [sp, #44]	; 0x2c
   d7aa0:	4648      	mov	r0, r9
   d7aa2:	f7fe fc17 	bl	d62d4 <log_message>
    if (automatic) {
   d7aa6:	b1a4      	cbz	r4, d7ad2 <_ZN8particle13BlePeerDevice7connectERKNS_10BleAddressEPKNS_19BleConnectionParamsEb+0x106>
        Vector<BleCharacteristic> characteristics = discoverAllCharacteristics();
   d7aa8:	4631      	mov	r1, r6
   d7aaa:	4628      	mov	r0, r5
   d7aac:	f7ff ff6e 	bl	d798c <_ZN8particle13BlePeerDevice26discoverAllCharacteristicsEv>
   d7ab0:	9c0a      	ldr	r4, [sp, #40]	; 0x28
    return data_;
}

template<typename T, typename AllocatorT>
T* spark::Vector<T, AllocatorT>::end() {
    return data_ + size_;
   d7ab2:	9b0b      	ldr	r3, [sp, #44]	; 0x2c
   d7ab4:	eb04 06c3 	add.w	r6, r4, r3, lsl #3
        for (auto& characteristic : characteristics) {
   d7ab8:	42a6      	cmp	r6, r4
   d7aba:	d005      	beq.n	d7ac8 <_ZN8particle13BlePeerDevice7connectERKNS_10BleAddressEPKNS_19BleConnectionParamsEb+0xfc>
            characteristic.subscribe(true);
   d7abc:	4620      	mov	r0, r4
   d7abe:	2101      	movs	r1, #1
   d7ac0:	f7ff fa00 	bl	d6ec4 <_ZNK8particle17BleCharacteristic9subscribeEb>
   d7ac4:	3408      	adds	r4, #8
   d7ac6:	e7f7      	b.n	d7ab8 <_ZN8particle13BlePeerDevice7connectERKNS_10BleAddressEPKNS_19BleConnectionParamsEb+0xec>
        impl()->connHandle() = BLE_INVALID_CONN_HANDLE;
        return SYSTEM_ERROR_NO_MEMORY;
    }
    LOG(TRACE, "New peripheral is connected.");
    if (automatic) {
        Vector<BleCharacteristic> characteristics = discoverAllCharacteristics();
   d7ac8:	4628      	mov	r0, r5
   d7aca:	f7ff fbc8 	bl	d725e <_ZN5spark6VectorIN8particle17BleCharacteristicENS_16DefaultAllocatorEED1Ev>
        for (auto& characteristic : characteristics) {
            characteristic.subscribe(true);
        }
    }
    return SYSTEM_ERROR_NONE;
   d7ace:	2000      	movs	r0, #0
   d7ad0:	e000      	b.n	d7ad4 <_ZN8particle13BlePeerDevice7connectERKNS_10BleAddressEPKNS_19BleConnectionParamsEb+0x108>
   d7ad2:	4620      	mov	r0, r4
}
   d7ad4:	b013      	add	sp, #76	; 0x4c
   d7ad6:	e8bd 83f0 	ldmia.w	sp!, {r4, r5, r6, r7, r8, r9, pc}
   d7ada:	bf00      	nop
   d7adc:	000d7539 	.word	0x000d7539
   d7ae0:	000dbb28 	.word	0x000dbb28
   d7ae4:	000dba64 	.word	0x000dba64
   d7ae8:	fffffefc 	.word	0xfffffefc
   d7aec:	000dbb44 	.word	0x000dbb44

000d7af0 <_ZNK8particle14BleLocalDevice7connectERKNS_10BleAddressEb>:
    BlePeerDevice peer;
    peer.connect(addr, interval, latency, timeout, automatic);
    return peer;
}

BlePeerDevice BleLocalDevice::connect(const BleAddress& addr, bool automatic) const {
   d7af0:	b570      	push	{r4, r5, r6, lr}
   d7af2:	4604      	mov	r4, r0
   d7af4:	4615      	mov	r5, r2
   d7af6:	461e      	mov	r6, r3
    return (impl()->peers().size() > 0);
}

BlePeerDevice BleLocalDevice::connect(const BleAddress& addr, const BleConnectionParams* params, bool automatic) const {
    // Do not lock here. This thread is guarded by BLE HAL lock. But it allows the BLE thread to access the wiring data.
    BlePeerDevice peer;
   d7af8:	f7ff fbf2 	bl	d72e0 <_ZN8particle13BlePeerDeviceC1Ev>
    peer.connect(addr, params, automatic);
   d7afc:	4633      	mov	r3, r6
   d7afe:	2200      	movs	r2, #0
   d7b00:	4629      	mov	r1, r5
   d7b02:	4620      	mov	r0, r4
   d7b04:	f7ff ff62 	bl	d79cc <_ZN8particle13BlePeerDevice7connectERKNS_10BleAddressEPKNS_19BleConnectionParamsEb>
}

BlePeerDevice BleLocalDevice::connect(const BleAddress& addr, bool automatic) const {
    // Do not lock here. This thread is guarded by BLE HAL lock. But it allows the BLE thread to access the wiring data.
    return connect(addr, nullptr, automatic);
}
   d7b08:	4620      	mov	r0, r4
   d7b0a:	bd70      	pop	{r4, r5, r6, pc}

000d7b0c <_ZN5spark6VectorIN8particle17BleCharacteristicENS_16DefaultAllocatorEE6appendES2_>:
    destruct(data_, data_ + size_);
    AllocatorT::free(data_);
}

template<typename T, typename AllocatorT>
inline bool spark::Vector<T, AllocatorT>::append(T value) {
   d7b0c:	b573      	push	{r0, r1, r4, r5, r6, lr}
   d7b0e:	4604      	mov	r4, r0
    return insert(size_, std::move(value));
   d7b10:	6845      	ldr	r5, [r0, #4]
   d7b12:	4668      	mov	r0, sp
   d7b14:	f7ff fb6b 	bl	d71ee <_ZN8particle17BleCharacteristicC1ERKS0_>
    return insert(0, vector);
}

template<typename T, typename AllocatorT>
inline bool spark::Vector<T, AllocatorT>::insert(int i, T value) {
    if (size_ + 1 > capacity_ && !realloc(size_ + 1)) {
   d7b18:	6861      	ldr	r1, [r4, #4]
   d7b1a:	68a3      	ldr	r3, [r4, #8]
   d7b1c:	4299      	cmp	r1, r3
   d7b1e:	db05      	blt.n	d7b2c <_ZN5spark6VectorIN8particle17BleCharacteristicENS_16DefaultAllocatorEE6appendES2_+0x20>
   d7b20:	3101      	adds	r1, #1
   d7b22:	4620      	mov	r0, r4
   d7b24:	f7ff fef7 	bl	d7916 <_ZN5spark6VectorIN8particle17BleCharacteristicENS_16DefaultAllocatorEE7reallocIS2_Li0EEEbi>
   d7b28:	4606      	mov	r6, r0
   d7b2a:	b198      	cbz	r0, d7b54 <_ZN5spark6VectorIN8particle17BleCharacteristicENS_16DefaultAllocatorEE6appendES2_+0x48>
        return false;
    }
    T* const p = data_ + i;
   d7b2c:	6823      	ldr	r3, [r4, #0]
    move(p + 1, p, data_ + size_);
   d7b2e:	6862      	ldr	r2, [r4, #4]
template<typename T, typename AllocatorT>
inline bool spark::Vector<T, AllocatorT>::insert(int i, T value) {
    if (size_ + 1 > capacity_ && !realloc(size_ + 1)) {
        return false;
    }
    T* const p = data_ + i;
   d7b30:	eb03 05c5 	add.w	r5, r3, r5, lsl #3
    move(p + 1, p, data_ + size_);
   d7b34:	eb03 02c2 	add.w	r2, r3, r2, lsl #3
   d7b38:	4629      	mov	r1, r5
   d7b3a:	f105 0008 	add.w	r0, r5, #8
   d7b3e:	f7ff fec0 	bl	d78c2 <_ZN5spark6VectorIN8particle17BleCharacteristicENS_16DefaultAllocatorEE4moveIS2_Li0EEEvPS2_S6_S6_>
    new(p) T(std::move(value));
   d7b42:	b11d      	cbz	r5, d7b4c <_ZN5spark6VectorIN8particle17BleCharacteristicENS_16DefaultAllocatorEE6appendES2_+0x40>
   d7b44:	4669      	mov	r1, sp
   d7b46:	4628      	mov	r0, r5
   d7b48:	f7ff fb51 	bl	d71ee <_ZN8particle17BleCharacteristicC1ERKS0_>
    ++size_;
   d7b4c:	6863      	ldr	r3, [r4, #4]
   d7b4e:	3301      	adds	r3, #1
   d7b50:	6063      	str	r3, [r4, #4]
   d7b52:	2601      	movs	r6, #1
   d7b54:	a801      	add	r0, sp, #4
   d7b56:	f7fc fd4b 	bl	d45f0 <_ZNSt14__shared_countILN9__gnu_cxx12_Lock_policyE0EED1Ev>
}

template<typename T, typename AllocatorT>
inline bool spark::Vector<T, AllocatorT>::append(T value) {
    return insert(size_, std::move(value));
}
   d7b5a:	4630      	mov	r0, r6
   d7b5c:	b002      	add	sp, #8
   d7b5e:	bd70      	pop	{r4, r5, r6, pc}

000d7b60 <_ZNSt15__allocated_ptrISaIN8particle21BleCharacteristicImplEEED1Ev>:
      __allocated_ptr(__allocated_ptr&& __gd) noexcept
      : _M_alloc(__gd._M_alloc), _M_ptr(__gd._M_ptr)
      { __gd._M_ptr = nullptr; }

      /// Deallocate the owned pointer
      ~__allocated_ptr()
   d7b60:	b510      	push	{r4, lr}
   d7b62:	4604      	mov	r4, r0
      {
	if (_M_ptr != nullptr)
   d7b64:	6840      	ldr	r0, [r0, #4]
   d7b66:	b108      	cbz	r0, d7b6c <_ZNSt15__allocated_ptrISaIN8particle21BleCharacteristicImplEEED1Ev+0xc>
      }

      // __p is not permitted to be a null pointer.
      void
      deallocate(pointer __p, size_type)
      { ::operator delete(__p); }
   d7b68:	f7fc fa99 	bl	d409e <_ZdlPv>
	  std::allocator_traits<_Alloc>::deallocate(*_M_alloc, _M_ptr, 1);
      }
   d7b6c:	4620      	mov	r0, r4
   d7b6e:	bd10      	pop	{r4, pc}

000d7b70 <_ZNSt19_Sp_counted_deleterIPN8particle21BleCharacteristicImplENSt12__shared_ptrIS1_LN9__gnu_cxx12_Lock_policyE0EE8_DeleterISaIS1_EEES8_LS5_0EE10_M_disposeEv>:
      : _M_impl(__p, __d, __a) { }

      ~_Sp_counted_deleter() noexcept { }

      virtual void
      _M_dispose() noexcept
   d7b70:	b507      	push	{r0, r1, r2, lr}
      { _M_impl._M_del()(_M_impl._M_ptr); }
   d7b72:	6903      	ldr	r3, [r0, #16]
      template<typename _Alloc>
        struct _Deleter
        {
          void operator()(typename _Alloc::value_type* __ptr)
          {
	    __allocated_ptr<_Alloc> __guard{ _M_alloc, __ptr };
   d7b74:	300c      	adds	r0, #12
      using pointer = typename allocator_traits<_Alloc>::pointer;
      using value_type = typename allocator_traits<_Alloc>::value_type;

      /// Take ownership of __ptr
      __allocated_ptr(_Alloc& __a, pointer __ptr) noexcept
      : _M_alloc(&__a), _M_ptr(__ptr)
   d7b76:	e88d 0009 	stmia.w	sp, {r0, r3}
            : BleCharacteristicImpl(desc, properties, callback, context) {
        charUuid_ = charUuid;
        svcUuid_ = svcUuid;
    }

    ~BleCharacteristicImpl() = default;
   d7b7a:	f103 003c 	add.w	r0, r3, #60	; 0x3c
   d7b7e:	f7fe fd05 	bl	d658c <_ZN6StringD1Ev>
   d7b82:	4668      	mov	r0, sp
   d7b84:	f7ff ffec 	bl	d7b60 <_ZNSt15__allocated_ptrISaIN8particle21BleCharacteristicImplEEED1Ev>

      ~_Sp_counted_deleter() noexcept { }

      virtual void
      _M_dispose() noexcept
      { _M_impl._M_del()(_M_impl._M_ptr); }
   d7b88:	b003      	add	sp, #12
   d7b8a:	f85d fb04 	ldr.w	pc, [sp], #4
	...

000d7b90 <_ZNSt14__shared_countILN9__gnu_cxx12_Lock_policyE0EEC1IPN8particle21BleCharacteristicImplENSt12__shared_ptrIS5_LS1_0EE8_DeleterISaIS5_EEESA_EET_T0_T1_>:
	__shared_count(_Ptr __p, _Deleter __d)
	: __shared_count(__p, std::move(__d), allocator<void>())
	{ }

      template<typename _Ptr, typename _Deleter, typename _Alloc>
	__shared_count(_Ptr __p, _Deleter __d, _Alloc __a) : _M_pi(0)
   d7b90:	b538      	push	{r3, r4, r5, lr}
   d7b92:	2300      	movs	r3, #0
   d7b94:	4604      	mov	r4, r0
   d7b96:	6003      	str	r3, [r0, #0]
      allocate(size_type __n, const void* = 0)
      { 
	if (__n > this->max_size())
	  std::__throw_bad_alloc();

	return static_cast<_Tp*>(::operator new(__n * sizeof(_Tp)));
   d7b98:	2014      	movs	r0, #20
   d7b9a:	460d      	mov	r5, r1
   d7b9c:	f7fc fa7b 	bl	d4096 <_Znwj>
	  __try
	    {
	      typename _Sp_cd_type::__allocator_type __a2(__a);
	      auto __guard = std::__allocate_guarded(__a2);
	      _Sp_cd_type* __mem = __guard.get();
	      ::new (__mem) _Sp_cd_type(__p, std::move(__d), std::move(__a));
   d7ba0:	b128      	cbz	r0, d7bae <_ZNSt14__shared_countILN9__gnu_cxx12_Lock_policyE0EEC1IPN8particle21BleCharacteristicImplENSt12__shared_ptrIS5_LS1_0EE8_DeleterISaIS5_EEESA_EET_T0_T1_+0x1e>
    class _Sp_counted_base
    : public _Mutex_base<_Lp>
    {
    public:  
      _Sp_counted_base() noexcept
      : _M_use_count(1), _M_weak_count(1) { }
   d7ba2:	2301      	movs	r3, #1
   d7ba4:	6043      	str	r3, [r0, #4]
   d7ba6:	6083      	str	r3, [r0, #8]
      _Sp_counted_deleter(_Ptr __p, _Deleter __d) noexcept
      : _M_impl(__p, __d, _Alloc()) { }

      // __d(__p) must not throw.
      _Sp_counted_deleter(_Ptr __p, _Deleter __d, const _Alloc& __a) noexcept
      : _M_impl(__p, __d, __a) { }
   d7ba8:	4b02      	ldr	r3, [pc, #8]	; (d7bb4 <_ZNSt14__shared_countILN9__gnu_cxx12_Lock_policyE0EEC1IPN8particle21BleCharacteristicImplENSt12__shared_ptrIS5_LS1_0EE8_DeleterISaIS5_EEESA_EET_T0_T1_+0x24>)
   d7baa:	6003      	str	r3, [r0, #0]
	typedef _Sp_ebo_helper<0, _Deleter>	_Del_base;
	typedef _Sp_ebo_helper<1, _Alloc>	_Alloc_base;

      public:
	_Impl(_Ptr __p, _Deleter __d, const _Alloc& __a) noexcept
	: _M_ptr(__p), _Del_base(__d), _Alloc_base(__a)
   d7bac:	6105      	str	r5, [r0, #16]
	    {
	      typename _Sp_cd_type::__allocator_type __a2(__a);
	      auto __guard = std::__allocate_guarded(__a2);
	      _Sp_cd_type* __mem = __guard.get();
	      ::new (__mem) _Sp_cd_type(__p, std::move(__d), std::move(__a));
	      _M_pi = __mem;
   d7bae:	6020      	str	r0, [r4, #0]
	  __catch(...)
	    {
	      __d(__p); // Call _Deleter on __p.
	      __throw_exception_again;
	    }
	}
   d7bb0:	4620      	mov	r0, r4
   d7bb2:	bd38      	pop	{r3, r4, r5, pc}
   d7bb4:	000dba18 	.word	0x000dba18

000d7bb8 <_ZN8particle17BleCharacteristicC1Ev>:


/*******************************************************
 * BleCharacteristic class
 */
BleCharacteristic::BleCharacteristic()
   d7bb8:	b570      	push	{r4, r5, r6, lr}
        };

      template<typename _Alloc, typename... _Args>
	__shared_ptr(_Sp_make_shared_tag __tag, const _Alloc& __a,
		     _Args&&... __args)
	: _M_ptr(), _M_refcount()
   d7bba:	2500      	movs	r5, #0
   d7bbc:	b086      	sub	sp, #24
   d7bbe:	6005      	str	r5, [r0, #0]

  template<_Lock_policy _Lp>
    class __shared_count
    {
    public:
      constexpr __shared_count() noexcept : _M_pi(0)
   d7bc0:	6045      	str	r5, [r0, #4]
   d7bc2:	4604      	mov	r4, r0
   d7bc4:	2054      	movs	r0, #84	; 0x54
   d7bc6:	f7fc fa66 	bl	d4096 <_Znwj>
   d7bca:	f8cd d010 	str.w	sp, [sp, #16]
   d7bce:	4606      	mov	r6, r0
   d7bd0:	9005      	str	r0, [sp, #20]

#if __cplusplus >= 201103L
      template<typename _Up, typename... _Args>
        void
        construct(_Up* __p, _Args&&... __args)
	{ ::new((void *)__p) _Up(std::forward<_Args>(__args)...); }
   d7bd2:	b108      	cbz	r0, d7bd8 <_ZN8particle17BleCharacteristicC1Ev+0x20>
   d7bd4:	f7ff f944 	bl	d6e60 <_ZN8particle21BleCharacteristicImplC1Ev>
	  // _GLIBCXX_RESOLVE_LIB_DEFECTS
	  // 2070. allocate_shared should use allocator_traits<A>::construct
	  __traits::construct(__del._M_alloc, __ptr,
			      std::forward<_Args>(__args)...);
	  __guard = nullptr;
	  __shared_count<_Lp> __count(__ptr, __del, __del._M_alloc);
   d7bd8:	4631      	mov	r1, r6
   d7bda:	ab01      	add	r3, sp, #4
   d7bdc:	aa02      	add	r2, sp, #8
   d7bde:	a803      	add	r0, sp, #12

      /// Release ownership of the owned pointer
      __allocated_ptr&
      operator=(std::nullptr_t) noexcept
      {
	_M_ptr = nullptr;
   d7be0:	9505      	str	r5, [sp, #20]
   d7be2:	f7ff ffd5 	bl	d7b90 <_ZNSt14__shared_countILN9__gnu_cxx12_Lock_policyE0EEC1IPN8particle21BleCharacteristicImplENSt12__shared_ptrIS5_LS1_0EE8_DeleterISaIS5_EEESA_EET_T0_T1_>
      }

      void
      _M_swap(__shared_count& __r) noexcept
      {
	_Sp_counted_base<_Lp>* __tmp = __r._M_pi;
   d7be6:	9b03      	ldr	r3, [sp, #12]
	__r._M_pi = _M_pi;
   d7be8:	6862      	ldr	r2, [r4, #4]
	  __traits::construct(__del._M_alloc, __ptr,
			      std::forward<_Args>(__args)...);
	  __guard = nullptr;
	  __shared_count<_Lp> __count(__ptr, __del, __del._M_alloc);
	  _M_refcount._M_swap(__count);
	  _M_ptr = __ptr;
   d7bea:	6026      	str	r6, [r4, #0]
      void
      _M_swap(__shared_count& __r) noexcept
      {
	_Sp_counted_base<_Lp>* __tmp = __r._M_pi;
	__r._M_pi = _M_pi;
	_M_pi = __tmp;
   d7bec:	6063      	str	r3, [r4, #4]
	  // _GLIBCXX_RESOLVE_LIB_DEFECTS
	  // 2070. allocate_shared should use allocator_traits<A>::construct
	  __traits::construct(__del._M_alloc, __ptr,
			      std::forward<_Args>(__args)...);
	  __guard = nullptr;
	  __shared_count<_Lp> __count(__ptr, __del, __del._M_alloc);
   d7bee:	a803      	add	r0, sp, #12

      void
      _M_swap(__shared_count& __r) noexcept
      {
	_Sp_counted_base<_Lp>* __tmp = __r._M_pi;
	__r._M_pi = _M_pi;
   d7bf0:	9203      	str	r2, [sp, #12]
	  // _GLIBCXX_RESOLVE_LIB_DEFECTS
	  // 2070. allocate_shared should use allocator_traits<A>::construct
	  __traits::construct(__del._M_alloc, __ptr,
			      std::forward<_Args>(__args)...);
	  __guard = nullptr;
	  __shared_count<_Lp> __count(__ptr, __del, __del._M_alloc);
   d7bf2:	f7fc fcfd 	bl	d45f0 <_ZNSt14__shared_countILN9__gnu_cxx12_Lock_policyE0EED1Ev>
	: _M_ptr(), _M_refcount()
	{
	  typedef typename allocator_traits<_Alloc>::template
	    rebind_traits<typename std::remove_cv<_Tp>::type> __traits;
	  _Deleter<typename __traits::allocator_type> __del = { __a };
	  auto __guard = std::__allocate_guarded(__del._M_alloc);
   d7bf6:	a804      	add	r0, sp, #16
   d7bf8:	f7ff ffb2 	bl	d7b60 <_ZNSt15__allocated_ptrISaIN8particle21BleCharacteristicImplEEED1Ev>
        : impl_(std::make_shared<BleCharacteristicImpl>()) {
    if (!impl()) {
   d7bfc:	6823      	ldr	r3, [r4, #0]
   d7bfe:	b90b      	cbnz	r3, d7c04 <_ZN8particle17BleCharacteristicC1Ev+0x4c>
   d7c00:	f7fe fdb6 	bl	d6770 <_ZN8particle10BleServiceC2ERKNS_7BleUuidE.part.102>
        SPARK_ASSERT(false);
    }
    DEBUG("BleCharacteristic(), 0x%08X -> 0x%08X, count: %d", this, impl(), impl_.use_count());
}
   d7c04:	4620      	mov	r0, r4
   d7c06:	b006      	add	sp, #24
   d7c08:	bd70      	pop	{r4, r5, r6, pc}
	...

000d7c0c <_ZN8particle21BleDiscoveryDelegator27onCharacteristicsDiscoveredEPK29hal_ble_char_discovered_evt_tPv>:
     * WARN: This is executed from HAL ble thread. The current thread which starts the characteristic discovery procedure
     * has acquired the BLE HAL lock. Calling BLE HAL APIs those acquiring the BLE HAL lock in this function
     * will suspend the execution of the callback until the current thread release the BLE HAL lock. Or the BLE HAL
     * APIs those are invoked here must not acquire the BLE HAL lock.
     */
    static void onCharacteristicsDiscovered(const hal_ble_char_discovered_evt_t* event, void* context) {
   d7c0c:	e92d 41f0 	stmdb	sp!, {r4, r5, r6, r7, r8, lr}
                characteristic.impl()->properties() |= BleCharacteristicProperty::INDICATE;
            }
            characteristic.impl()->charUUID() = event->characteristics[i].uuid;
            characteristic.impl()->attrHandles() = event->characteristics[i].charHandles;
            if (!peer->impl()->characteristics().append(characteristic)) {
                LOG(ERROR, "Failed to append discovered characteristic.");
   d7c10:	f8df 8104 	ldr.w	r8, [pc, #260]	; d7d18 <_ZN8particle21BleDiscoveryDelegator27onCharacteristicsDiscoveredEPK29hal_ble_char_discovered_evt_tPv+0x10c>
     * WARN: This is executed from HAL ble thread. The current thread which starts the characteristic discovery procedure
     * has acquired the BLE HAL lock. Calling BLE HAL APIs those acquiring the BLE HAL lock in this function
     * will suspend the execution of the callback until the current thread release the BLE HAL lock. Or the BLE HAL
     * APIs those are invoked here must not acquire the BLE HAL lock.
     */
    static void onCharacteristicsDiscovered(const hal_ble_char_discovered_evt_t* event, void* context) {
   d7c14:	b08c      	sub	sp, #48	; 0x30
   d7c16:	4605      	mov	r5, r0
   d7c18:	460f      	mov	r7, r1
        BlePeerDevice* peer = static_cast<BlePeerDevice*>(context);
        for (size_t i = 0; i < event->count; i++) {
   d7c1a:	2600      	movs	r6, #0
   d7c1c:	682b      	ldr	r3, [r5, #0]
   d7c1e:	429e      	cmp	r6, r3
   d7c20:	d275      	bcs.n	d7d0e <_ZN8particle21BleDiscoveryDelegator27onCharacteristicsDiscoveredEPK29hal_ble_char_discovered_evt_tPv+0x102>
            BleCharacteristic characteristic;
   d7c22:	a802      	add	r0, sp, #8
   d7c24:	f7ff ffc8 	bl	d7bb8 <_ZN8particle17BleCharacteristicC1Ev>
            characteristic.impl()->connHandle() = event->conn_handle;
   d7c28:	9b02      	ldr	r3, [sp, #8]
   d7c2a:	892a      	ldrh	r2, [r5, #8]
   d7c2c:	805a      	strh	r2, [r3, #2]
            if (event->characteristics[i].properties & BLE_SIG_CHAR_PROP_READ) {
   d7c2e:	686b      	ldr	r3, [r5, #4]
   d7c30:	9802      	ldr	r0, [sp, #8]
   d7c32:	242a      	movs	r4, #42	; 0x2a
   d7c34:	4374      	muls	r4, r6
   d7c36:	4423      	add	r3, r4
                characteristic.impl()->properties() |= BleCharacteristicProperty::NOTIFY;
            }
            if (event->characteristics[i].properties & BLE_SIG_CHAR_PROP_INDICATE) {
                characteristic.impl()->properties() |= BleCharacteristicProperty::INDICATE;
            }
            characteristic.impl()->charUUID() = event->characteristics[i].uuid;
   d7c38:	3014      	adds	r0, #20
    static void onCharacteristicsDiscovered(const hal_ble_char_discovered_evt_t* event, void* context) {
        BlePeerDevice* peer = static_cast<BlePeerDevice*>(context);
        for (size_t i = 0; i < event->count; i++) {
            BleCharacteristic characteristic;
            characteristic.impl()->connHandle() = event->conn_handle;
            if (event->characteristics[i].properties & BLE_SIG_CHAR_PROP_READ) {
   d7c3a:	7e5b      	ldrb	r3, [r3, #25]
   d7c3c:	f013 0f02 	tst.w	r3, #2
    return EnumFlags<T>(value_ | flags.value_);
}

template<typename T>
inline particle::EnumFlags<T>& particle::EnumFlags<T, typename std::enable_if_t<std::is_enum<T>::value>>::operator|=(const EnumFlags<T>& flags) {
    value_ |= flags.value_;
   d7c40:	bf1e      	ittt	ne
   d7c42:	f810 3c10 	ldrbne.w	r3, [r0, #-16]
   d7c46:	f043 0302 	orrne.w	r3, r3, #2
   d7c4a:	f800 3c10 	strbne.w	r3, [r0, #-16]
                characteristic.impl()->properties() |= BleCharacteristicProperty::READ;
            }
            if (event->characteristics[i].properties & BLE_SIG_CHAR_PROP_WRITE_WO_RESP) {
   d7c4e:	686b      	ldr	r3, [r5, #4]
   d7c50:	4423      	add	r3, r4
   d7c52:	7e5b      	ldrb	r3, [r3, #25]
   d7c54:	075b      	lsls	r3, r3, #29
   d7c56:	bf42      	ittt	mi
   d7c58:	f810 3c10 	ldrbmi.w	r3, [r0, #-16]
   d7c5c:	f043 0304 	orrmi.w	r3, r3, #4
   d7c60:	f800 3c10 	strbmi.w	r3, [r0, #-16]
                characteristic.impl()->properties() |= BleCharacteristicProperty::WRITE_WO_RSP;
            }
            if (event->characteristics[i].properties & BLE_SIG_CHAR_PROP_WRITE) {
   d7c64:	686b      	ldr	r3, [r5, #4]
   d7c66:	4423      	add	r3, r4
   d7c68:	7e5b      	ldrb	r3, [r3, #25]
   d7c6a:	0719      	lsls	r1, r3, #28
   d7c6c:	bf42      	ittt	mi
   d7c6e:	f810 3c10 	ldrbmi.w	r3, [r0, #-16]
   d7c72:	f043 0308 	orrmi.w	r3, r3, #8
   d7c76:	f800 3c10 	strbmi.w	r3, [r0, #-16]
                characteristic.impl()->properties() |= BleCharacteristicProperty::WRITE;
            }
            if (event->characteristics[i].properties & BLE_SIG_CHAR_PROP_NOTIFY) {
   d7c7a:	686b      	ldr	r3, [r5, #4]
   d7c7c:	4423      	add	r3, r4
   d7c7e:	7e5b      	ldrb	r3, [r3, #25]
   d7c80:	06da      	lsls	r2, r3, #27
   d7c82:	bf42      	ittt	mi
   d7c84:	f810 3c10 	ldrbmi.w	r3, [r0, #-16]
   d7c88:	f043 0310 	orrmi.w	r3, r3, #16
   d7c8c:	f800 3c10 	strbmi.w	r3, [r0, #-16]
                characteristic.impl()->properties() |= BleCharacteristicProperty::NOTIFY;
            }
            if (event->characteristics[i].properties & BLE_SIG_CHAR_PROP_INDICATE) {
   d7c90:	686b      	ldr	r3, [r5, #4]
   d7c92:	4423      	add	r3, r4
   d7c94:	7e5b      	ldrb	r3, [r3, #25]
   d7c96:	069b      	lsls	r3, r3, #26
   d7c98:	bf42      	ittt	mi
   d7c9a:	f810 3c10 	ldrbmi.w	r3, [r0, #-16]
   d7c9e:	f043 0320 	orrmi.w	r3, r3, #32
   d7ca2:	f800 3c10 	strbmi.w	r3, [r0, #-16]
                characteristic.impl()->properties() |= BleCharacteristicProperty::INDICATE;
            }
            characteristic.impl()->charUUID() = event->characteristics[i].uuid;
   d7ca6:	6869      	ldr	r1, [r5, #4]
   d7ca8:	4421      	add	r1, r4
   d7caa:	3104      	adds	r1, #4
   d7cac:	f7fe fede 	bl	d6a6c <_ZN8particle7BleUuidaSERK14hal_ble_uuid_t>
            characteristic.impl()->attrHandles() = event->characteristics[i].charHandles;
   d7cb0:	686a      	ldr	r2, [r5, #4]
   d7cb2:	9b02      	ldr	r3, [sp, #8]
   d7cb4:	4414      	add	r4, r2
            if (!peer->impl()->characteristics().append(characteristic)) {
   d7cb6:	a902      	add	r1, sp, #8
static_assert(std::is_pod<BleScanParams>::value, "BleScanParams is not a POD struct");

class BleCharacteristicHandles : public hal_ble_char_handles_t {
public:
    BleCharacteristicHandles& operator=(const hal_ble_char_handles_t& halHandles) {
        this->size = halHandles.size;
   d7cb8:	8be2      	ldrh	r2, [r4, #30]
   d7cba:	811a      	strh	r2, [r3, #8]
        this->decl_handle = halHandles.decl_handle;
   d7cbc:	8c22      	ldrh	r2, [r4, #32]
   d7cbe:	815a      	strh	r2, [r3, #10]
        this->value_handle = halHandles.value_handle;
   d7cc0:	8c62      	ldrh	r2, [r4, #34]	; 0x22
   d7cc2:	819a      	strh	r2, [r3, #12]
        this->user_desc_handle = halHandles.user_desc_handle;
   d7cc4:	8ca2      	ldrh	r2, [r4, #36]	; 0x24
   d7cc6:	81da      	strh	r2, [r3, #14]
        this->cccd_handle = halHandles.cccd_handle;
   d7cc8:	8ce2      	ldrh	r2, [r4, #38]	; 0x26
   d7cca:	821a      	strh	r2, [r3, #16]
        this->sccd_handle = halHandles.sccd_handle;
   d7ccc:	8d22      	ldrh	r2, [r4, #40]	; 0x28
   d7cce:	825a      	strh	r2, [r3, #18]
    Vector<BleService>& services() {
        return services_;
    }

    Vector<BleCharacteristic>& characteristics() {
        return characteristics_;
   d7cd0:	6838      	ldr	r0, [r7, #0]
   d7cd2:	f100 0418 	add.w	r4, r0, #24
            if (event->characteristics[i].properties & BLE_SIG_CHAR_PROP_INDICATE) {
                characteristic.impl()->properties() |= BleCharacteristicProperty::INDICATE;
            }
            characteristic.impl()->charUUID() = event->characteristics[i].uuid;
            characteristic.impl()->attrHandles() = event->characteristics[i].charHandles;
            if (!peer->impl()->characteristics().append(characteristic)) {
   d7cd6:	a804      	add	r0, sp, #16
   d7cd8:	f7ff fa89 	bl	d71ee <_ZN8particle17BleCharacteristicC1ERKS0_>
   d7cdc:	4620      	mov	r0, r4
   d7cde:	a904      	add	r1, sp, #16
   d7ce0:	f7ff ff14 	bl	d7b0c <_ZN5spark6VectorIN8particle17BleCharacteristicENS_16DefaultAllocatorEE6appendES2_>
   d7ce4:	4604      	mov	r4, r0
	: _M_ptr(__p), _M_refcount(__r._M_refcount) // never throws
	{ }

      __shared_ptr(const __shared_ptr&) noexcept = default;
      __shared_ptr& operator=(const __shared_ptr&) noexcept = default;
      ~__shared_ptr() = default;
   d7ce6:	a805      	add	r0, sp, #20
   d7ce8:	f7fc fc82 	bl	d45f0 <_ZNSt14__shared_countILN9__gnu_cxx12_Lock_policyE0EED1Ev>
   d7cec:	b954      	cbnz	r4, d7d04 <_ZN8particle21BleDiscoveryDelegator27onCharacteristicsDiscoveredEPK29hal_ble_char_discovered_evt_tPv+0xf8>
                LOG(ERROR, "Failed to append discovered characteristic.");
   d7cee:	2320      	movs	r3, #32
   d7cf0:	9304      	str	r3, [sp, #16]
   d7cf2:	f8cd 8000 	str.w	r8, [sp]
   d7cf6:	4623      	mov	r3, r4
   d7cf8:	aa04      	add	r2, sp, #16
   d7cfa:	4906      	ldr	r1, [pc, #24]	; (d7d14 <_ZN8particle21BleDiscoveryDelegator27onCharacteristicsDiscoveredEPK29hal_ble_char_discovered_evt_tPv+0x108>)
   d7cfc:	9405      	str	r4, [sp, #20]
   d7cfe:	2032      	movs	r0, #50	; 0x32
   d7d00:	f7fe fae8 	bl	d62d4 <log_message>
   d7d04:	a803      	add	r0, sp, #12
   d7d06:	f7fc fc73 	bl	d45f0 <_ZNSt14__shared_countILN9__gnu_cxx12_Lock_policyE0EED1Ev>
     * will suspend the execution of the callback until the current thread release the BLE HAL lock. Or the BLE HAL
     * APIs those are invoked here must not acquire the BLE HAL lock.
     */
    static void onCharacteristicsDiscovered(const hal_ble_char_discovered_evt_t* event, void* context) {
        BlePeerDevice* peer = static_cast<BlePeerDevice*>(context);
        for (size_t i = 0; i < event->count; i++) {
   d7d0a:	3601      	adds	r6, #1
   d7d0c:	e786      	b.n	d7c1c <_ZN8particle21BleDiscoveryDelegator27onCharacteristicsDiscoveredEPK29hal_ble_char_discovered_evt_tPv+0x10>
            characteristic.impl()->attrHandles() = event->characteristics[i].charHandles;
            if (!peer->impl()->characteristics().append(characteristic)) {
                LOG(ERROR, "Failed to append discovered characteristic.");
            }
        }
    }
   d7d0e:	b00c      	add	sp, #48	; 0x30
   d7d10:	e8bd 81f0 	ldmia.w	sp!, {r4, r5, r6, r7, r8, pc}
   d7d14:	000dba64 	.word	0x000dba64
   d7d18:	000dbb61 	.word	0x000dbb61

000d7d1c <_ZNSt15__allocated_ptrISaIN8particle14BleServiceImplEEED1Ev>:
      __allocated_ptr(__allocated_ptr&& __gd) noexcept
      : _M_alloc(__gd._M_alloc), _M_ptr(__gd._M_ptr)
      { __gd._M_ptr = nullptr; }

      /// Deallocate the owned pointer
      ~__allocated_ptr()
   d7d1c:	b510      	push	{r4, lr}
   d7d1e:	4604      	mov	r4, r0
      {
	if (_M_ptr != nullptr)
   d7d20:	6840      	ldr	r0, [r0, #4]
   d7d22:	b108      	cbz	r0, d7d28 <_ZNSt15__allocated_ptrISaIN8particle14BleServiceImplEEED1Ev+0xc>
      }

      // __p is not permitted to be a null pointer.
      void
      deallocate(pointer __p, size_type)
      { ::operator delete(__p); }
   d7d24:	f7fc f9bb 	bl	d409e <_ZdlPv>
	  std::allocator_traits<_Alloc>::deallocate(*_M_alloc, _M_ptr, 1);
      }
   d7d28:	4620      	mov	r0, r4
   d7d2a:	bd10      	pop	{r4, pc}

000d7d2c <_ZNSt19_Sp_counted_deleterIPN8particle14BleServiceImplENSt12__shared_ptrIS1_LN9__gnu_cxx12_Lock_policyE0EE8_DeleterISaIS1_EEES8_LS5_0EE10_M_disposeEv>:
      : _M_impl(__p, __d, __a) { }

      ~_Sp_counted_deleter() noexcept { }

      virtual void
      _M_dispose() noexcept
   d7d2c:	b507      	push	{r0, r1, r2, lr}
      { _M_impl._M_del()(_M_impl._M_ptr); }
   d7d2e:	6903      	ldr	r3, [r0, #16]
      template<typename _Alloc>
        struct _Deleter
        {
          void operator()(typename _Alloc::value_type* __ptr)
          {
	    __allocated_ptr<_Alloc> __guard{ _M_alloc, __ptr };
   d7d30:	300c      	adds	r0, #12
      using pointer = typename allocator_traits<_Alloc>::pointer;
      using value_type = typename allocator_traits<_Alloc>::value_type;

      /// Take ownership of __ptr
      __allocated_ptr(_Alloc& __a, pointer __ptr) noexcept
      : _M_alloc(&__a), _M_ptr(__ptr)
   d7d32:	e88d 0009 	stmia.w	sp, {r0, r3}
   d7d36:	4668      	mov	r0, sp
   d7d38:	f7ff fff0 	bl	d7d1c <_ZNSt15__allocated_ptrISaIN8particle14BleServiceImplEEED1Ev>

      ~_Sp_counted_deleter() noexcept { }

      virtual void
      _M_dispose() noexcept
      { _M_impl._M_del()(_M_impl._M_ptr); }
   d7d3c:	b003      	add	sp, #12
   d7d3e:	f85d fb04 	ldr.w	pc, [sp], #4
	...

000d7d44 <_ZNSt14__shared_countILN9__gnu_cxx12_Lock_policyE0EEC1IPN8particle14BleServiceImplENSt12__shared_ptrIS5_LS1_0EE8_DeleterISaIS5_EEESA_EET_T0_T1_>:
	__shared_count(_Ptr __p, _Deleter __d)
	: __shared_count(__p, std::move(__d), allocator<void>())
	{ }

      template<typename _Ptr, typename _Deleter, typename _Alloc>
	__shared_count(_Ptr __p, _Deleter __d, _Alloc __a) : _M_pi(0)
   d7d44:	b538      	push	{r3, r4, r5, lr}
   d7d46:	2300      	movs	r3, #0
   d7d48:	4604      	mov	r4, r0
   d7d4a:	6003      	str	r3, [r0, #0]
      allocate(size_type __n, const void* = 0)
      { 
	if (__n > this->max_size())
	  std::__throw_bad_alloc();

	return static_cast<_Tp*>(::operator new(__n * sizeof(_Tp)));
   d7d4c:	2014      	movs	r0, #20
   d7d4e:	460d      	mov	r5, r1
   d7d50:	f7fc f9a1 	bl	d4096 <_Znwj>
	  __try
	    {
	      typename _Sp_cd_type::__allocator_type __a2(__a);
	      auto __guard = std::__allocate_guarded(__a2);
	      _Sp_cd_type* __mem = __guard.get();
	      ::new (__mem) _Sp_cd_type(__p, std::move(__d), std::move(__a));
   d7d54:	b128      	cbz	r0, d7d62 <_ZNSt14__shared_countILN9__gnu_cxx12_Lock_policyE0EEC1IPN8particle14BleServiceImplENSt12__shared_ptrIS5_LS1_0EE8_DeleterISaIS5_EEESA_EET_T0_T1_+0x1e>
    class _Sp_counted_base
    : public _Mutex_base<_Lp>
    {
    public:  
      _Sp_counted_base() noexcept
      : _M_use_count(1), _M_weak_count(1) { }
   d7d56:	2301      	movs	r3, #1
   d7d58:	6043      	str	r3, [r0, #4]
   d7d5a:	6083      	str	r3, [r0, #8]
      _Sp_counted_deleter(_Ptr __p, _Deleter __d) noexcept
      : _M_impl(__p, __d, _Alloc()) { }

      // __d(__p) must not throw.
      _Sp_counted_deleter(_Ptr __p, _Deleter __d, const _Alloc& __a) noexcept
      : _M_impl(__p, __d, __a) { }
   d7d5c:	4b02      	ldr	r3, [pc, #8]	; (d7d68 <_ZNSt14__shared_countILN9__gnu_cxx12_Lock_policyE0EEC1IPN8particle14BleServiceImplENSt12__shared_ptrIS5_LS1_0EE8_DeleterISaIS5_EEESA_EET_T0_T1_+0x24>)
   d7d5e:	6003      	str	r3, [r0, #0]
	typedef _Sp_ebo_helper<0, _Deleter>	_Del_base;
	typedef _Sp_ebo_helper<1, _Alloc>	_Alloc_base;

      public:
	_Impl(_Ptr __p, _Deleter __d, const _Alloc& __a) noexcept
	: _M_ptr(__p), _Del_base(__d), _Alloc_base(__a)
   d7d60:	6105      	str	r5, [r0, #16]
	    {
	      typename _Sp_cd_type::__allocator_type __a2(__a);
	      auto __guard = std::__allocate_guarded(__a2);
	      _Sp_cd_type* __mem = __guard.get();
	      ::new (__mem) _Sp_cd_type(__p, std::move(__d), std::move(__a));
	      _M_pi = __mem;
   d7d62:	6020      	str	r0, [r4, #0]
	  __catch(...)
	    {
	      __d(__p); // Call _Deleter on __p.
	      __throw_exception_again;
	    }
	}
   d7d64:	4620      	mov	r0, r4
   d7d66:	bd38      	pop	{r3, r4, r5, pc}
   d7d68:	000dba34 	.word	0x000dba34

000d7d6c <_ZN8particle10BleServiceC1Ev>:


/*******************************************************
 * BleService class
 */
BleService::BleService()
   d7d6c:	b570      	push	{r4, r5, r6, lr}
        };

      template<typename _Alloc, typename... _Args>
	__shared_ptr(_Sp_make_shared_tag __tag, const _Alloc& __a,
		     _Args&&... __args)
	: _M_ptr(), _M_refcount()
   d7d6e:	2500      	movs	r5, #0
   d7d70:	b086      	sub	sp, #24
   d7d72:	6005      	str	r5, [r0, #0]

  template<_Lock_policy _Lp>
    class __shared_count
    {
    public:
      constexpr __shared_count() noexcept : _M_pi(0)
   d7d74:	6045      	str	r5, [r0, #4]
   d7d76:	4604      	mov	r4, r0
   d7d78:	2018      	movs	r0, #24
   d7d7a:	f7fc f98c 	bl	d4096 <_Znwj>
   d7d7e:	f8cd d010 	str.w	sp, [sp, #16]
   d7d82:	4606      	mov	r6, r0
   d7d84:	9005      	str	r0, [sp, #20]

#if __cplusplus >= 201103L
      template<typename _Up, typename... _Args>
        void
        construct(_Up* __p, _Args&&... __args)
	{ ::new((void *)__p) _Up(std::forward<_Args>(__args)...); }
   d7d86:	b118      	cbz	r0, d7d90 <_ZN8particle10BleServiceC1Ev+0x24>
class BleServiceImpl {
public:
    BleServiceImpl()
            : uuid_(),
              startHandle_(BLE_INVALID_ATTR_HANDLE),
              endHandle_(BLE_INVALID_ATTR_HANDLE) {
   d7d88:	f7fe fddc 	bl	d6944 <_ZN8particle7BleUuidC1Ev>
   d7d8c:	82b5      	strh	r5, [r6, #20]
   d7d8e:	82f5      	strh	r5, [r6, #22]
	  // _GLIBCXX_RESOLVE_LIB_DEFECTS
	  // 2070. allocate_shared should use allocator_traits<A>::construct
	  __traits::construct(__del._M_alloc, __ptr,
			      std::forward<_Args>(__args)...);
	  __guard = nullptr;
	  __shared_count<_Lp> __count(__ptr, __del, __del._M_alloc);
   d7d90:	4631      	mov	r1, r6
   d7d92:	ab01      	add	r3, sp, #4
   d7d94:	aa02      	add	r2, sp, #8
   d7d96:	a803      	add	r0, sp, #12

      /// Release ownership of the owned pointer
      __allocated_ptr&
      operator=(std::nullptr_t) noexcept
      {
	_M_ptr = nullptr;
   d7d98:	9505      	str	r5, [sp, #20]
   d7d9a:	f7ff ffd3 	bl	d7d44 <_ZNSt14__shared_countILN9__gnu_cxx12_Lock_policyE0EEC1IPN8particle14BleServiceImplENSt12__shared_ptrIS5_LS1_0EE8_DeleterISaIS5_EEESA_EET_T0_T1_>
      }

      void
      _M_swap(__shared_count& __r) noexcept
      {
	_Sp_counted_base<_Lp>* __tmp = __r._M_pi;
   d7d9e:	9b03      	ldr	r3, [sp, #12]
	__r._M_pi = _M_pi;
   d7da0:	6862      	ldr	r2, [r4, #4]
	  __traits::construct(__del._M_alloc, __ptr,
			      std::forward<_Args>(__args)...);
	  __guard = nullptr;
	  __shared_count<_Lp> __count(__ptr, __del, __del._M_alloc);
	  _M_refcount._M_swap(__count);
	  _M_ptr = __ptr;
   d7da2:	6026      	str	r6, [r4, #0]
      void
      _M_swap(__shared_count& __r) noexcept
      {
	_Sp_counted_base<_Lp>* __tmp = __r._M_pi;
	__r._M_pi = _M_pi;
	_M_pi = __tmp;
   d7da4:	6063      	str	r3, [r4, #4]
	  // _GLIBCXX_RESOLVE_LIB_DEFECTS
	  // 2070. allocate_shared should use allocator_traits<A>::construct
	  __traits::construct(__del._M_alloc, __ptr,
			      std::forward<_Args>(__args)...);
	  __guard = nullptr;
	  __shared_count<_Lp> __count(__ptr, __del, __del._M_alloc);
   d7da6:	a803      	add	r0, sp, #12

      void
      _M_swap(__shared_count& __r) noexcept
      {
	_Sp_counted_base<_Lp>* __tmp = __r._M_pi;
	__r._M_pi = _M_pi;
   d7da8:	9203      	str	r2, [sp, #12]
	  // _GLIBCXX_RESOLVE_LIB_DEFECTS
	  // 2070. allocate_shared should use allocator_traits<A>::construct
	  __traits::construct(__del._M_alloc, __ptr,
			      std::forward<_Args>(__args)...);
	  __guard = nullptr;
	  __shared_count<_Lp> __count(__ptr, __del, __del._M_alloc);
   d7daa:	f7fc fc21 	bl	d45f0 <_ZNSt14__shared_countILN9__gnu_cxx12_Lock_policyE0EED1Ev>
	: _M_ptr(), _M_refcount()
	{
	  typedef typename allocator_traits<_Alloc>::template
	    rebind_traits<typename std::remove_cv<_Tp>::type> __traits;
	  _Deleter<typename __traits::allocator_type> __del = { __a };
	  auto __guard = std::__allocate_guarded(__del._M_alloc);
   d7dae:	a804      	add	r0, sp, #16
   d7db0:	f7ff ffb4 	bl	d7d1c <_ZNSt15__allocated_ptrISaIN8particle14BleServiceImplEEED1Ev>
/*******************************************************
 * BleService class
 */
BleService::BleService()
        : impl_(std::make_shared<BleServiceImpl>()) {
    if (!impl()) {
   d7db4:	6823      	ldr	r3, [r4, #0]
   d7db6:	b90b      	cbnz	r3, d7dbc <_ZN8particle10BleServiceC1Ev+0x50>
   d7db8:	f7fe fcda 	bl	d6770 <_ZN8particle10BleServiceC2ERKNS_7BleUuidE.part.102>
        SPARK_ASSERT(false);
    }
}
   d7dbc:	4620      	mov	r0, r4
   d7dbe:	b006      	add	sp, #24
   d7dc0:	bd70      	pop	{r4, r5, r6, pc}
	...

000d7dc4 <_ZN8particle21BleDiscoveryDelegator20onServicesDiscoveredEPK28hal_ble_svc_discovered_evt_tPv>:
     * WARN: This is executed from HAL ble thread. The current thread which starts the service discovery procedure
     * has acquired the BLE HAL lock. Calling BLE HAL APIs those acquiring the BLE HAL lock in this function
     * will suspend the execution of the callback until the current thread release the BLE HAL lock. Or the BLE HAL
     * APIs those are invoked here must not acquire the BLE HAL lock.
     */
    static void onServicesDiscovered(const hal_ble_svc_discovered_evt_t* event, void* context) {
   d7dc4:	e92d 41f0 	stmdb	sp!, {r4, r5, r6, r7, r8, lr}
            BleService service;
            service.impl()->UUID() = event->services[i].uuid;
            service.impl()->startHandle() = event->services[i].start_handle;
            service.impl()->endHandle() = event->services[i].end_handle;
            if (!peer->impl()->services().append(service)) {
                LOG(ERROR, "Failed to append discovered service.");
   d7dc8:	f8df 8080 	ldr.w	r8, [pc, #128]	; d7e4c <_ZN8particle21BleDiscoveryDelegator20onServicesDiscoveredEPK28hal_ble_svc_discovered_evt_tPv+0x88>
     * WARN: This is executed from HAL ble thread. The current thread which starts the service discovery procedure
     * has acquired the BLE HAL lock. Calling BLE HAL APIs those acquiring the BLE HAL lock in this function
     * will suspend the execution of the callback until the current thread release the BLE HAL lock. Or the BLE HAL
     * APIs those are invoked here must not acquire the BLE HAL lock.
     */
    static void onServicesDiscovered(const hal_ble_svc_discovered_evt_t* event, void* context) {
   d7dcc:	b08c      	sub	sp, #48	; 0x30
   d7dce:	4606      	mov	r6, r0
   d7dd0:	460f      	mov	r7, r1
        BlePeerDevice* peer = static_cast<BlePeerDevice*>(context);
        for (size_t i = 0; i < event->count; i++) {
   d7dd2:	2500      	movs	r5, #0
   d7dd4:	6833      	ldr	r3, [r6, #0]
   d7dd6:	429d      	cmp	r5, r3
   d7dd8:	d233      	bcs.n	d7e42 <_ZN8particle21BleDiscoveryDelegator20onServicesDiscoveredEPK28hal_ble_svc_discovered_evt_tPv+0x7e>
            BleService service;
   d7dda:	a802      	add	r0, sp, #8
   d7ddc:	f7ff ffc6 	bl	d7d6c <_ZN8particle10BleServiceC1Ev>
   d7de0:	241c      	movs	r4, #28
            service.impl()->UUID() = event->services[i].uuid;
   d7de2:	6871      	ldr	r1, [r6, #4]
   d7de4:	9802      	ldr	r0, [sp, #8]
   d7de6:	436c      	muls	r4, r5
   d7de8:	4421      	add	r1, r4
   d7dea:	3104      	adds	r1, #4
   d7dec:	f7fe fe3e 	bl	d6a6c <_ZN8particle7BleUuidaSERK14hal_ble_uuid_t>
            service.impl()->startHandle() = event->services[i].start_handle;
   d7df0:	6873      	ldr	r3, [r6, #4]
   d7df2:	9a02      	ldr	r2, [sp, #8]
   d7df4:	4423      	add	r3, r4
   d7df6:	a902      	add	r1, sp, #8
   d7df8:	8b1b      	ldrh	r3, [r3, #24]
   d7dfa:	8293      	strh	r3, [r2, #20]
            service.impl()->endHandle() = event->services[i].end_handle;
   d7dfc:	6873      	ldr	r3, [r6, #4]
   d7dfe:	441c      	add	r4, r3
   d7e00:	8b63      	ldrh	r3, [r4, #26]
   d7e02:	82d3      	strh	r3, [r2, #22]
    bool& characteristicsDiscovered() {
        return characteristicsDiscovered_;
    }

    Vector<BleService>& services() {
        return services_;
   d7e04:	6838      	ldr	r0, [r7, #0]
   d7e06:	f100 040c 	add.w	r4, r0, #12
   d7e0a:	a804      	add	r0, sp, #16
   d7e0c:	f7ff f9fd 	bl	d720a <_ZNSt12__shared_ptrIN8particle14BleServiceImplELN9__gnu_cxx12_Lock_policyE0EEC1ERKS4_>
        for (size_t i = 0; i < event->count; i++) {
            BleService service;
            service.impl()->UUID() = event->services[i].uuid;
            service.impl()->startHandle() = event->services[i].start_handle;
            service.impl()->endHandle() = event->services[i].end_handle;
            if (!peer->impl()->services().append(service)) {
   d7e10:	4620      	mov	r0, r4
   d7e12:	a904      	add	r1, sp, #16
   d7e14:	f7ff fd2b 	bl	d786e <_ZN5spark6VectorIN8particle10BleServiceENS_16DefaultAllocatorEE6appendES2_>
   d7e18:	4604      	mov	r4, r0
	: _M_ptr(__p), _M_refcount(__r._M_refcount) // never throws
	{ }

      __shared_ptr(const __shared_ptr&) noexcept = default;
      __shared_ptr& operator=(const __shared_ptr&) noexcept = default;
      ~__shared_ptr() = default;
   d7e1a:	a805      	add	r0, sp, #20
   d7e1c:	f7fc fbe8 	bl	d45f0 <_ZNSt14__shared_countILN9__gnu_cxx12_Lock_policyE0EED1Ev>
   d7e20:	b954      	cbnz	r4, d7e38 <_ZN8particle21BleDiscoveryDelegator20onServicesDiscoveredEPK28hal_ble_svc_discovered_evt_tPv+0x74>
                LOG(ERROR, "Failed to append discovered service.");
   d7e22:	2320      	movs	r3, #32
   d7e24:	9304      	str	r3, [sp, #16]
   d7e26:	f8cd 8000 	str.w	r8, [sp]
   d7e2a:	4623      	mov	r3, r4
   d7e2c:	aa04      	add	r2, sp, #16
   d7e2e:	4906      	ldr	r1, [pc, #24]	; (d7e48 <_ZN8particle21BleDiscoveryDelegator20onServicesDiscoveredEPK28hal_ble_svc_discovered_evt_tPv+0x84>)
   d7e30:	9405      	str	r4, [sp, #20]
   d7e32:	2032      	movs	r0, #50	; 0x32
   d7e34:	f7fe fa4e 	bl	d62d4 <log_message>
   d7e38:	a803      	add	r0, sp, #12
   d7e3a:	f7fc fbd9 	bl	d45f0 <_ZNSt14__shared_countILN9__gnu_cxx12_Lock_policyE0EED1Ev>
     * will suspend the execution of the callback until the current thread release the BLE HAL lock. Or the BLE HAL
     * APIs those are invoked here must not acquire the BLE HAL lock.
     */
    static void onServicesDiscovered(const hal_ble_svc_discovered_evt_t* event, void* context) {
        BlePeerDevice* peer = static_cast<BlePeerDevice*>(context);
        for (size_t i = 0; i < event->count; i++) {
   d7e3e:	3501      	adds	r5, #1
   d7e40:	e7c8      	b.n	d7dd4 <_ZN8particle21BleDiscoveryDelegator20onServicesDiscoveredEPK28hal_ble_svc_discovered_evt_tPv+0x10>
            service.impl()->endHandle() = event->services[i].end_handle;
            if (!peer->impl()->services().append(service)) {
                LOG(ERROR, "Failed to append discovered service.");
            }
        }
    }
   d7e42:	b00c      	add	sp, #48	; 0x30
   d7e44:	e8bd 81f0 	ldmia.w	sp!, {r4, r5, r6, r7, r8, pc}
   d7e48:	000dba64 	.word	0x000dba64
   d7e4c:	000dbb8d 	.word	0x000dbb8d

000d7e50 <_GLOBAL__sub_I__ZN8particle3ble13WiringBleLock6mutex_E>:
BleCharacteristic BleLocalDevice::addCharacteristic(const String& desc, EnumFlags<BleCharacteristicProperty> properties, BleOnDataReceivedCallback callback, void* context) {
    WiringBleLock lk;
    return addCharacteristic(desc.c_str(), properties, callback, context);
}

} /* namespace particle */
   d7e50:	b510      	push	{r4, lr}
    /**
     * Creates a shared mutex.
     */
    RecursiveMutex(os_mutex_recursive_t handle) : handle_(handle) {}

    RecursiveMutex() : handle_(nullptr)
   d7e52:	4c06      	ldr	r4, [pc, #24]	; (d7e6c <_GLOBAL__sub_I__ZN8particle3ble13WiringBleLock6mutex_E+0x1c>)
   d7e54:	2300      	movs	r3, #0
    {
        os_mutex_recursive_create(&handle_);
   d7e56:	4620      	mov	r0, r4
    /**
     * Creates a shared mutex.
     */
    RecursiveMutex(os_mutex_recursive_t handle) : handle_(handle) {}

    RecursiveMutex() : handle_(nullptr)
   d7e58:	6023      	str	r3, [r4, #0]
    {
        os_mutex_recursive_create(&handle_);
   d7e5a:	f7fe f93b 	bl	d60d4 <os_mutex_recursive_create>
private:
    bool locked_;
    static RecursiveMutex mutex_;
};

RecursiveMutex WiringBleLock::mutex_;
   d7e5e:	4620      	mov	r0, r4
   d7e60:	4a03      	ldr	r2, [pc, #12]	; (d7e70 <_GLOBAL__sub_I__ZN8particle3ble13WiringBleLock6mutex_E+0x20>)
   d7e62:	4904      	ldr	r1, [pc, #16]	; (d7e74 <_GLOBAL__sub_I__ZN8particle3ble13WiringBleLock6mutex_E+0x24>)
BleCharacteristic BleLocalDevice::addCharacteristic(const String& desc, EnumFlags<BleCharacteristicProperty> properties, BleOnDataReceivedCallback callback, void* context) {
    WiringBleLock lk;
    return addCharacteristic(desc.c_str(), properties, callback, context);
}

} /* namespace particle */
   d7e64:	e8bd 4010 	ldmia.w	sp!, {r4, lr}
private:
    bool locked_;
    static RecursiveMutex mutex_;
};

RecursiveMutex WiringBleLock::mutex_;
   d7e68:	f002 bbe5 	b.w	da636 <__aeabi_atexit>
   d7e6c:	2003e3d4 	.word	0x2003e3d4
   d7e70:	2003d8d4 	.word	0x2003d8d4
   d7e74:	000d6725 	.word	0x000d6725

000d7e78 <_ZN5Print5writeEPKhj>:

// Public Methods //////////////////////////////////////////////////////////////

/* default implementation: may be overridden */
size_t Print::write(const uint8_t *buffer, size_t size)
{
   d7e78:	b5f8      	push	{r3, r4, r5, r6, r7, lr}
   d7e7a:	4606      	mov	r6, r0
   d7e7c:	460d      	mov	r5, r1
   d7e7e:	188f      	adds	r7, r1, r2
  size_t n = 0;
   d7e80:	2400      	movs	r4, #0
  while (size--) {
   d7e82:	42bd      	cmp	r5, r7
   d7e84:	d00c      	beq.n	d7ea0 <_ZN5Print5writeEPKhj+0x28>
     int chunk = write(*buffer++);
   d7e86:	6833      	ldr	r3, [r6, #0]
   d7e88:	f815 1b01 	ldrb.w	r1, [r5], #1
   d7e8c:	689b      	ldr	r3, [r3, #8]
   d7e8e:	4630      	mov	r0, r6
   d7e90:	4798      	blx	r3
     if (chunk>=0)
   d7e92:	2800      	cmp	r0, #0
   d7e94:	db01      	blt.n	d7e9a <_ZN5Print5writeEPKhj+0x22>
         n += chunk;
   d7e96:	4404      	add	r4, r0

/* default implementation: may be overridden */
size_t Print::write(const uint8_t *buffer, size_t size)
{
  size_t n = 0;
  while (size--) {
   d7e98:	e7f3      	b.n	d7e82 <_ZN5Print5writeEPKhj+0xa>
     int chunk = write(*buffer++);
   d7e9a:	2c00      	cmp	r4, #0
   d7e9c:	bf08      	it	eq
   d7e9e:	4604      	moveq	r4, r0
             n = chunk;
         break;
     }
  }
  return n;
}
   d7ea0:	4620      	mov	r0, r4
   d7ea2:	bdf8      	pop	{r3, r4, r5, r6, r7, pc}

000d7ea4 <_ZN5Print5writeEPKc>:

    int getWriteError() { return write_error; }
    void clearWriteError() { setWriteError(0); }

    virtual size_t write(uint8_t) = 0;
    size_t write(const char *str) {
   d7ea4:	b570      	push	{r4, r5, r6, lr}
   d7ea6:	4605      	mov	r5, r0
      if (str == NULL) return 0;
   d7ea8:	460c      	mov	r4, r1
      return write((const uint8_t *)str, strlen(str));
    }
   d7eaa:	4608      	mov	r0, r1
    int getWriteError() { return write_error; }
    void clearWriteError() { setWriteError(0); }

    virtual size_t write(uint8_t) = 0;
    size_t write(const char *str) {
      if (str == NULL) return 0;
   d7eac:	b149      	cbz	r1, d7ec2 <_ZN5Print5writeEPKc+0x1e>
      return write((const uint8_t *)str, strlen(str));
   d7eae:	f002 fde4 	bl	daa7a <strlen>
   d7eb2:	682b      	ldr	r3, [r5, #0]
   d7eb4:	4602      	mov	r2, r0
   d7eb6:	4621      	mov	r1, r4
   d7eb8:	4628      	mov	r0, r5
   d7eba:	68db      	ldr	r3, [r3, #12]
    }
   d7ebc:	e8bd 4070 	ldmia.w	sp!, {r4, r5, r6, lr}
    void clearWriteError() { setWriteError(0); }

    virtual size_t write(uint8_t) = 0;
    size_t write(const char *str) {
      if (str == NULL) return 0;
      return write((const uint8_t *)str, strlen(str));
   d7ec0:	4718      	bx	r3
    }
   d7ec2:	bd70      	pop	{r4, r5, r6, pc}

000d7ec4 <_ZN5Print5printEc>:
  return write(str);
}

size_t Print::print(char c)
{
  return write(c);
   d7ec4:	6803      	ldr	r3, [r0, #0]
   d7ec6:	689b      	ldr	r3, [r3, #8]
   d7ec8:	4718      	bx	r3

000d7eca <_ZN5Print7printlnEv>:
{
  return print(reinterpret_cast<const char*>(str));
}

size_t Print::println(void)
{
   d7eca:	b538      	push	{r3, r4, r5, lr}
  size_t n = print('\r');
   d7ecc:	210d      	movs	r1, #13
{
  return print(reinterpret_cast<const char*>(str));
}

size_t Print::println(void)
{
   d7ece:	4605      	mov	r5, r0
  size_t n = print('\r');
   d7ed0:	f7ff fff8 	bl	d7ec4 <_ZN5Print5printEc>
  n += print('\n');
   d7ed4:	210a      	movs	r1, #10
  return print(reinterpret_cast<const char*>(str));
}

size_t Print::println(void)
{
  size_t n = print('\r');
   d7ed6:	4604      	mov	r4, r0
  n += print('\n');
   d7ed8:	4628      	mov	r0, r5
   d7eda:	f7ff fff3 	bl	d7ec4 <_ZN5Print5printEc>
  return n;
}
   d7ede:	4420      	add	r0, r4
   d7ee0:	bd38      	pop	{r3, r4, r5, pc}

000d7ee2 <_ZN5Print11printNumberEmh>:
  return println(reinterpret_cast<const char*>(str));
}

// Private Methods /////////////////////////////////////////////////////////////

size_t Print::printNumber(unsigned long n, uint8_t base) {
   d7ee2:	b530      	push	{r4, r5, lr}
   d7ee4:	b08b      	sub	sp, #44	; 0x2c
   d7ee6:	460b      	mov	r3, r1
  char buf[8 * sizeof(n) + 1]; // Assumes 8-bit chars plus zero byte.
  char *str = &buf[sizeof(buf) - 1];

  *str = '\0';
   d7ee8:	2100      	movs	r1, #0
   d7eea:	f88d 1024 	strb.w	r1, [sp, #36]	; 0x24

  // prevent crash if called with base == 1
  if (base < 2) base = 10;
   d7eee:	2a01      	cmp	r2, #1
   d7ef0:	bf98      	it	ls
   d7ef2:	220a      	movls	r2, #10
   d7ef4:	f10d 0423 	add.w	r4, sp, #35	; 0x23

  do {
   decltype(n) m = n;
   n /= base;
   d7ef8:	fbb3 f5f2 	udiv	r5, r3, r2
   char c = m - base * n;
   d7efc:	fb05 3312 	mls	r3, r5, r2, r3
   d7f00:	f003 03ff 	and.w	r3, r3, #255	; 0xff
   *--str = c < 10 ? c + '0' : c + 'A' - 10;
   d7f04:	2b09      	cmp	r3, #9
   d7f06:	bf94      	ite	ls
   d7f08:	3330      	addls	r3, #48	; 0x30
   d7f0a:	3337      	addhi	r3, #55	; 0x37
   d7f0c:	b2db      	uxtb	r3, r3
   d7f0e:	4621      	mov	r1, r4
   d7f10:	f804 3901 	strb.w	r3, [r4], #-1
   d7f14:	462b      	mov	r3, r5
  *str = '\0';

  // prevent crash if called with base == 1
  if (base < 2) base = 10;

  do {
   d7f16:	2d00      	cmp	r5, #0
   d7f18:	d1ee      	bne.n	d7ef8 <_ZN5Print11printNumberEmh+0x16>
   n /= base;
   char c = m - base * n;
   *--str = c < 10 ? c + '0' : c + 'A' - 10;
  } while(n);

  return write(str);
   d7f1a:	f7ff ffc3 	bl	d7ea4 <_ZN5Print5writeEPKc>
}
   d7f1e:	b00b      	add	sp, #44	; 0x2c
   d7f20:	bd30      	pop	{r4, r5, pc}

000d7f22 <_ZN5Print11printf_implEbPKcz>:

  return n;
}

size_t Print::printf_impl(bool newline, const char* format, ...)
{
   d7f22:	b40c      	push	{r2, r3}
   d7f24:	e92d 43f0 	stmdb	sp!, {r4, r5, r6, r7, r8, r9, lr}
   d7f28:	b087      	sub	sp, #28
   d7f2a:	af00      	add	r7, sp, #0
   d7f2c:	f107 0438 	add.w	r4, r7, #56	; 0x38
   d7f30:	4605      	mov	r5, r0
   d7f32:	f854 9b04 	ldr.w	r9, [r4], #4
    const int bufsize = 20;
    char test[bufsize];
    va_list marker;
    va_start(marker, format);
   d7f36:	603c      	str	r4, [r7, #0]

  return n;
}

size_t Print::printf_impl(bool newline, const char* format, ...)
{
   d7f38:	460e      	mov	r6, r1
    const int bufsize = 20;
    char test[bufsize];
    va_list marker;
    va_start(marker, format);
    size_t n = vsnprintf(test, bufsize, format, marker);
   d7f3a:	4623      	mov	r3, r4
   d7f3c:	464a      	mov	r2, r9
   d7f3e:	2114      	movs	r1, #20
   d7f40:	1d38      	adds	r0, r7, #4
   d7f42:	f7fe fa9b 	bl	d647c <vsnprintf>
    va_end(marker);

    if (n<bufsize)
   d7f46:	2813      	cmp	r0, #19
   d7f48:	d805      	bhi.n	d7f56 <_ZN5Print11printf_implEbPKcz+0x34>
  return n;
}

size_t Print::print(const char str[])
{
  return write(str);
   d7f4a:	1d39      	adds	r1, r7, #4
   d7f4c:	4628      	mov	r0, r5
   d7f4e:	f7ff ffa9 	bl	d7ea4 <_ZN5Print5writeEPKc>
   d7f52:	4604      	mov	r4, r0
   d7f54:	e013      	b.n	d7f7e <_ZN5Print11printf_implEbPKcz+0x5c>
    {
        n = print(test);
    }
    else
    {
        char bigger[n+1];
   d7f56:	f100 0308 	add.w	r3, r0, #8
   d7f5a:	f023 0307 	bic.w	r3, r3, #7
        va_start(marker, format);
        n = vsnprintf(bigger, n+1, format, marker);
        va_end(marker);
        n = print(bigger);
   d7f5e:	46e8      	mov	r8, sp
    {
        n = print(test);
    }
    else
    {
        char bigger[n+1];
   d7f60:	ebad 0d03 	sub.w	sp, sp, r3
        va_start(marker, format);
        n = vsnprintf(bigger, n+1, format, marker);
   d7f64:	1c41      	adds	r1, r0, #1
   d7f66:	4623      	mov	r3, r4
   d7f68:	464a      	mov	r2, r9
   d7f6a:	4668      	mov	r0, sp
        n = print(test);
    }
    else
    {
        char bigger[n+1];
        va_start(marker, format);
   d7f6c:	603c      	str	r4, [r7, #0]
        n = vsnprintf(bigger, n+1, format, marker);
   d7f6e:	f7fe fa85 	bl	d647c <vsnprintf>
  return n;
}

size_t Print::print(const char str[])
{
  return write(str);
   d7f72:	4669      	mov	r1, sp
   d7f74:	4628      	mov	r0, r5
   d7f76:	f7ff ff95 	bl	d7ea4 <_ZN5Print5writeEPKc>
   d7f7a:	4604      	mov	r4, r0
   d7f7c:	46c5      	mov	sp, r8
        va_start(marker, format);
        n = vsnprintf(bigger, n+1, format, marker);
        va_end(marker);
        n = print(bigger);
    }
    if (newline)
   d7f7e:	b11e      	cbz	r6, d7f88 <_ZN5Print11printf_implEbPKcz+0x66>
        n += println();
   d7f80:	4628      	mov	r0, r5
   d7f82:	f7ff ffa2 	bl	d7eca <_ZN5Print7printlnEv>
   d7f86:	4404      	add	r4, r0
    return n;
}
   d7f88:	4620      	mov	r0, r4
   d7f8a:	371c      	adds	r7, #28
   d7f8c:	46bd      	mov	sp, r7
   d7f8e:	e8bd 43f0 	ldmia.w	sp!, {r4, r5, r6, r7, r8, r9, lr}
   d7f92:	b002      	add	sp, #8
   d7f94:	4770      	bx	lr

000d7f96 <_ZN5spark16JSONStreamWriter5writeEPKcj>:
inline Print* spark::JSONStreamWriter::stream() const {
    return &strm_;
}

inline void spark::JSONStreamWriter::write(const char *data, size_t size) {
    strm_.write((const uint8_t*)data, size);
   d7f96:	6880      	ldr	r0, [r0, #8]
   d7f98:	6803      	ldr	r3, [r0, #0]
   d7f9a:	68db      	ldr	r3, [r3, #12]
   d7f9c:	4718      	bx	r3

000d7f9e <_ZN5spark20JSONStreamLogHandler5writeEPKcj>:
inline void spark::StreamLogHandler::printf(const char *fmt, ArgsT... args) {
    stream_->printf(fmt, args...);
}

// spark::JSONStreamLogHandler
inline void spark::JSONStreamLogHandler::write(const char *data, size_t size) {
   d7f9e:	4770      	bx	lr

000d7fa0 <_ZN5spark17LogHandlerFactory14destroyHandlerEPNS_10LogHandlerE>:

#if Wiring_LogConfig

// spark::LogHandlerFactory
inline void spark::LogHandlerFactory::destroyHandler(LogHandler *handler) {
    delete handler;
   d7fa0:	b119      	cbz	r1, d7faa <_ZN5spark17LogHandlerFactory14destroyHandlerEPNS_10LogHandlerE+0xa>
   d7fa2:	680b      	ldr	r3, [r1, #0]
   d7fa4:	4608      	mov	r0, r1
   d7fa6:	685b      	ldr	r3, [r3, #4]
   d7fa8:	4718      	bx	r3
   d7faa:	4770      	bx	lr

000d7fac <_ZN5spark19OutputStreamFactory13destroyStreamEP5Print>:
}

// spark::OutputStreamFactory
inline void spark::OutputStreamFactory::destroyStream(Print *stream) {
    delete stream;
   d7fac:	b119      	cbz	r1, d7fb6 <_ZN5spark19OutputStreamFactory13destroyStreamEP5Print+0xa>
   d7fae:	680b      	ldr	r3, [r1, #0]
   d7fb0:	4608      	mov	r0, r1
   d7fb2:	685b      	ldr	r3, [r3, #4]
   d7fb4:	4718      	bx	r3
   d7fb6:	4770      	bx	lr

000d7fb8 <_ZN5spark26DefaultOutputStreamFactoryD1Ev>:

    virtual Print* createStream(const char *type, const JSONValue &params) = 0;
    virtual void destroyStream(Print *stream);
};

class DefaultOutputStreamFactory: public OutputStreamFactory {
   d7fb8:	4770      	bx	lr

000d7fba <_ZN5spark24DefaultLogHandlerFactoryD1Ev>:
    virtual LogHandler* createHandler(const char *type, LogLevel level, LogCategoryFilters filters, Print *stream,
            const JSONValue &params) = 0; // TODO: Use some generic container or a buffer instead of JSONValue
    virtual void destroyHandler(LogHandler *handler);
};

class DefaultLogHandlerFactory: public LogHandlerFactory {
   d7fba:	4770      	bx	lr

000d7fbc <_ZN5spark16JSONStreamWriterD1Ev>:
    void writeSeparator();
    void writeEscaped(const char *data, size_t size);
    void write(char c);
};

class JSONStreamWriter: public JSONWriter {
   d7fbc:	4770      	bx	lr

000d7fbe <_ZN12_GLOBAL__N_119nextSubcategoryNameERPKcRj>:
    return s;
}
#endif

// Iterates over subcategory names separated by '.' character
const char* nextSubcategoryName(const char* &category, size_t &size) {
   d7fbe:	b538      	push	{r3, r4, r5, lr}
   d7fc0:	4604      	mov	r4, r0
   d7fc2:	460d      	mov	r5, r1
    const char *s = strchrnul(category, '.');
   d7fc4:	6800      	ldr	r0, [r0, #0]
   d7fc6:	212e      	movs	r1, #46	; 0x2e
   d7fc8:	f002 fd20 	bl	daa0c <strchrnul>
    size = s - category;
   d7fcc:	6823      	ldr	r3, [r4, #0]
   d7fce:	1ac3      	subs	r3, r0, r3
   d7fd0:	602b      	str	r3, [r5, #0]
    if (size) {
   d7fd2:	b123      	cbz	r3, d7fde <_ZN12_GLOBAL__N_119nextSubcategoryNameERPKcRj+0x20>
        if (*s) {
   d7fd4:	7803      	ldrb	r3, [r0, #0]
   d7fd6:	b103      	cbz	r3, d7fda <_ZN12_GLOBAL__N_119nextSubcategoryNameERPKcRj+0x1c>
            ++s;
   d7fd8:	3001      	adds	r0, #1
    {
      // concept requirements
      __glibcxx_function_requires(_SGIAssignableConcept<_Tp>)

      _Tp __tmp = _GLIBCXX_MOVE(__a);
      __a = _GLIBCXX_MOVE(__b);
   d7fda:	6823      	ldr	r3, [r4, #0]
      __b = _GLIBCXX_MOVE(__tmp);
   d7fdc:	6020      	str	r0, [r4, #0]
        }
        std::swap(s, category);
        return s;
    }
    return nullptr;
   d7fde:	4618      	mov	r0, r3
}
   d7fe0:	bd38      	pop	{r3, r4, r5, pc}

000d7fe2 <_ZN5spark16JSONStreamWriterD0Ev>:
   d7fe2:	b510      	push	{r4, lr}
   d7fe4:	210c      	movs	r1, #12
   d7fe6:	4604      	mov	r4, r0
   d7fe8:	f002 fb32 	bl	da650 <_ZdlPvj>
   d7fec:	4620      	mov	r0, r4
   d7fee:	bd10      	pop	{r4, pc}

000d7ff0 <_ZN5spark24DefaultLogHandlerFactoryD0Ev>:
   d7ff0:	b510      	push	{r4, lr}
   d7ff2:	2104      	movs	r1, #4
   d7ff4:	4604      	mov	r4, r0
   d7ff6:	f002 fb2b 	bl	da650 <_ZdlPvj>
   d7ffa:	4620      	mov	r0, r4
   d7ffc:	bd10      	pop	{r4, pc}

000d7ffe <_ZN5spark26DefaultOutputStreamFactoryD0Ev>:

    virtual Print* createStream(const char *type, const JSONValue &params) = 0;
    virtual void destroyStream(Print *stream);
};

class DefaultOutputStreamFactory: public OutputStreamFactory {
   d7ffe:	b510      	push	{r4, lr}
   d8000:	2104      	movs	r1, #4
   d8002:	4604      	mov	r4, r0
   d8004:	f002 fb24 	bl	da650 <_ZdlPvj>
   d8008:	4620      	mov	r0, r4
   d800a:	bd10      	pop	{r4, pc}

000d800c <_ZN5spark26DefaultOutputStreamFactory13destroyStreamEP5Print>:
    }
#endif // PLATFORM_ID != 3
    return nullptr;
}

void spark::DefaultOutputStreamFactory::destroyStream(Print *stream) {
   d800c:	b538      	push	{r3, r4, r5, lr}
   d800e:	460c      	mov	r4, r1
   d8010:	4605      	mov	r5, r0
#if PLATFORM_ID != 3
    if (stream == &Serial) {
   d8012:	f001 fc21 	bl	d9858 <_Z16_fetch_usbserialv>
   d8016:	4284      	cmp	r4, r0
   d8018:	d00d      	beq.n	d8036 <_ZN5spark26DefaultOutputStreamFactory13destroyStreamEP5Print+0x2a>
    if (stream == &USBSerial1) {
        USBSerial1.end();
        return;
    }
#endif
    if (stream == &Serial1) {
   d801a:	f001 fca5 	bl	d9968 <_Z22__fetch_global_Serial1v>
   d801e:	4284      	cmp	r4, r0
   d8020:	d105      	bne.n	d802e <_ZN5spark26DefaultOutputStreamFactory13destroyStreamEP5Print+0x22>
        Serial1.end();
   d8022:	f001 fca1 	bl	d9968 <_Z22__fetch_global_Serial1v>
        return;
    }
#endif // PLATFORM_ID != 3
    OutputStreamFactory::destroyStream(stream);
}
   d8026:	e8bd 4038 	ldmia.w	sp!, {r3, r4, r5, lr}
        USBSerial1.end();
        return;
    }
#endif
    if (stream == &Serial1) {
        Serial1.end();
   d802a:	f001 bc9a 	b.w	d9962 <_ZN11USARTSerial3endEv>
        return;
    }
#endif // PLATFORM_ID != 3
    OutputStreamFactory::destroyStream(stream);
   d802e:	4621      	mov	r1, r4
   d8030:	4628      	mov	r0, r5
   d8032:	f7ff ffbb 	bl	d7fac <_ZN5spark19OutputStreamFactory13destroyStreamEP5Print>
   d8036:	bd38      	pop	{r3, r4, r5, pc}

000d8038 <_ZNK5spark10JSONStringeqEPKc.isra.7>:

inline bool spark::JSONString::isEmpty() const {
    return !n_;
}

inline bool spark::JSONString::operator==(const char *str) const {
   d8038:	b508      	push	{r3, lr}
    return strcmp(s_, str) == 0;
   d803a:	f002 fcf1 	bl	daa20 <strcmp>
}
   d803e:	fab0 f080 	clz	r0, r0
   d8042:	0940      	lsrs	r0, r0, #5
   d8044:	bd08      	pop	{r3, pc}

000d8046 <_ZN5spark10JSONWriter5valueEPKc>:

inline spark::JSONWriter& spark::JSONWriter::name(const String &name) {
    return this->name(name.c_str(), name.length());
}

inline spark::JSONWriter& spark::JSONWriter::value(const char *val) {
   d8046:	b538      	push	{r3, r4, r5, lr}
   d8048:	4605      	mov	r5, r0
    return value(val, strlen(val));
   d804a:	4608      	mov	r0, r1

inline spark::JSONWriter& spark::JSONWriter::name(const String &name) {
    return this->name(name.c_str(), name.length());
}

inline spark::JSONWriter& spark::JSONWriter::value(const char *val) {
   d804c:	460c      	mov	r4, r1
    return value(val, strlen(val));
   d804e:	f002 fd14 	bl	daa7a <strlen>
   d8052:	4621      	mov	r1, r4
   d8054:	4602      	mov	r2, r0
   d8056:	4628      	mov	r0, r5
}
   d8058:	e8bd 4038 	ldmia.w	sp!, {r3, r4, r5, lr}
inline spark::JSONWriter& spark::JSONWriter::name(const String &name) {
    return this->name(name.c_str(), name.length());
}

inline spark::JSONWriter& spark::JSONWriter::value(const char *val) {
    return value(val, strlen(val));
   d805c:	f002 ba89 	b.w	da572 <_ZN5spark10JSONWriter5valueEPKcj>

000d8060 <_ZN14RecursiveMutex4lockEv>:
            os_mutex_recursive_destroy(handle_);
            handle_ = nullptr;
        }
    }

    void lock() { os_mutex_recursive_lock(handle_); }
   d8060:	6800      	ldr	r0, [r0, #0]
   d8062:	f7fe b847 	b.w	d60f4 <os_mutex_recursive_lock>

000d8066 <_ZN5spark16StreamLogHandler5writeEPKc>:

inline void spark::StreamLogHandler::write(const char *data, size_t size) {
    stream_->write((const uint8_t*)data, size);
}

inline void spark::StreamLogHandler::write(const char *str) {
   d8066:	b570      	push	{r4, r5, r6, lr}
   d8068:	4604      	mov	r4, r0
    write(str, strlen(str));
   d806a:	4608      	mov	r0, r1

inline void spark::StreamLogHandler::write(const char *data, size_t size) {
    stream_->write((const uint8_t*)data, size);
}

inline void spark::StreamLogHandler::write(const char *str) {
   d806c:	460d      	mov	r5, r1
    write(str, strlen(str));
   d806e:	f002 fd04 	bl	daa7a <strlen>
   d8072:	6823      	ldr	r3, [r4, #0]
   d8074:	4602      	mov	r2, r0
   d8076:	4629      	mov	r1, r5
   d8078:	4620      	mov	r0, r4
   d807a:	68db      	ldr	r3, [r3, #12]
}
   d807c:	e8bd 4070 	ldmia.w	sp!, {r4, r5, r6, lr}
inline void spark::StreamLogHandler::write(const char *data, size_t size) {
    stream_->write((const uint8_t*)data, size);
}

inline void spark::StreamLogHandler::write(const char *str) {
    write(str, strlen(str));
   d8080:	4718      	bx	r3

000d8082 <_ZN5spark16StreamLogHandler5writeEc>:
}

inline void spark::StreamLogHandler::write(char c) {
   d8082:	b513      	push	{r0, r1, r4, lr}
   d8084:	ab02      	add	r3, sp, #8
    write(&c, 1);
   d8086:	6802      	ldr	r2, [r0, #0]

inline void spark::StreamLogHandler::write(const char *str) {
    write(str, strlen(str));
}

inline void spark::StreamLogHandler::write(char c) {
   d8088:	f803 1d01 	strb.w	r1, [r3, #-1]!
    write(&c, 1);
   d808c:	68d4      	ldr	r4, [r2, #12]
   d808e:	4619      	mov	r1, r3
   d8090:	2201      	movs	r2, #1
   d8092:	47a0      	blx	r4
}
   d8094:	b002      	add	sp, #8
   d8096:	bd10      	pop	{r4, pc}

000d8098 <_ZN5spark6detail9LogFilter9nodeIndexERKNS_6VectorINS1_4NodeENS_16DefaultAllocatorEEEPKcjRb>:
        }
    }
    return level;
}

int spark::detail::LogFilter::nodeIndex(const Vector<Node> &nodes, const char *name, size_t size, bool &found) {
   d8098:	e92d 4ff0 	stmdb	sp!, {r4, r5, r6, r7, r8, r9, sl, fp, lr}
               random_access_iterator_tag)
    {
      // concept requirements
      __glibcxx_function_requires(_RandomAccessIteratorConcept<
				  _RandomAccessIterator>)
      return __last - __first;
   d809c:	6845      	ldr	r5, [r0, #4]
   d809e:	6807      	ldr	r7, [r0, #0]
   d80a0:	b085      	sub	sp, #20
   d80a2:	4691      	mov	r9, r2
   d80a4:	2214      	movs	r2, #20
   d80a6:	4355      	muls	r5, r2
   d80a8:	9301      	str	r3, [sp, #4]
   d80aa:	10ab      	asrs	r3, r5, #2
   d80ac:	4d19      	ldr	r5, [pc, #100]	; (d8114 <_ZN5spark6detail9LogFilter9nodeIndexERKNS_6VectorINS1_4NodeENS_16DefaultAllocatorEEEPKcjRb+0x7c>)
              random_access_iterator_tag)
    {
      // concept requirements
      __glibcxx_function_requires(_RandomAccessIteratorConcept<
				  _RandomAccessIterator>)
      __i += __n;
   d80ae:	9202      	str	r2, [sp, #8]
               random_access_iterator_tag)
    {
      // concept requirements
      __glibcxx_function_requires(_RandomAccessIteratorConcept<
				  _RandomAccessIterator>)
      return __last - __first;
   d80b0:	435d      	muls	r5, r3
   d80b2:	468b      	mov	fp, r1
   d80b4:	463c      	mov	r4, r7
    return std::distance(nodes.begin(), std::lower_bound(nodes.begin(), nodes.end(), std::make_pair(name, size),
            [&found](const Node &node, const std::pair<const char*, size_t> &value) {
                const int cmp = strncmp(node.name, value.first, std::min<size_t>(node.size, value.second));
                if (cmp == 0) {
                    if (node.size == value.second) { // Lengths are equal
                        found = true; // Allows caller code to avoid extra call to strncmp()
   d80b6:	2301      	movs	r3, #1
      typedef typename iterator_traits<_ForwardIterator>::difference_type
	_DistanceType;

      _DistanceType __len = std::distance(__first, __last);

      while (__len > 0)
   d80b8:	2d00      	cmp	r5, #0
   d80ba:	9303      	str	r3, [sp, #12]
   d80bc:	dd23      	ble.n	d8106 <_ZN5spark6detail9LogFilter9nodeIndexERKNS_6VectorINS1_4NodeENS_16DefaultAllocatorEEEPKcjRb+0x6e>
              random_access_iterator_tag)
    {
      // concept requirements
      __glibcxx_function_requires(_RandomAccessIteratorConcept<
				  _RandomAccessIterator>)
      __i += __n;
   d80be:	9b02      	ldr	r3, [sp, #8]
	{
	  _DistanceType __half = __len >> 1;
   d80c0:	106e      	asrs	r6, r5, #1
   d80c2:	fb03 f006 	mul.w	r0, r3, r6
   d80c6:	eb04 0800 	add.w	r8, r4, r0

int spark::detail::LogFilter::nodeIndex(const Vector<Node> &nodes, const char *name, size_t size, bool &found) {
    // Using binary search to find existent node or suitable position for new node
    return std::distance(nodes.begin(), std::lower_bound(nodes.begin(), nodes.end(), std::make_pair(name, size),
            [&found](const Node &node, const std::pair<const char*, size_t> &value) {
                const int cmp = strncmp(node.name, value.first, std::min<size_t>(node.size, value.second));
   d80ca:	464a      	mov	r2, r9
   d80cc:	f8b8 a004 	ldrh.w	sl, [r8, #4]
   d80d0:	5820      	ldr	r0, [r4, r0]
   d80d2:	45d1      	cmp	r9, sl
   d80d4:	bf28      	it	cs
   d80d6:	4652      	movcs	r2, sl
   d80d8:	4659      	mov	r1, fp
   d80da:	f002 fcd6 	bl	daa8a <strncmp>
                if (cmp == 0) {
   d80de:	9b03      	ldr	r3, [sp, #12]
   d80e0:	b948      	cbnz	r0, d80f6 <_ZN5spark6detail9LogFilter9nodeIndexERKNS_6VectorINS1_4NodeENS_16DefaultAllocatorEEEPKcjRb+0x5e>
                    if (node.size == value.second) { // Lengths are equal
   d80e2:	45d1      	cmp	r9, sl
   d80e4:	d103      	bne.n	d80ee <_ZN5spark6detail9LogFilter9nodeIndexERKNS_6VectorINS1_4NodeENS_16DefaultAllocatorEEEPKcjRb+0x56>
                        found = true; // Allows caller code to avoid extra call to strncmp()
   d80e6:	9a01      	ldr	r2, [sp, #4]
   d80e8:	7013      	strb	r3, [r2, #0]
        }
    }
    return level;
}

int spark::detail::LogFilter::nodeIndex(const Vector<Node> &nodes, const char *name, size_t size, bool &found) {
   d80ea:	4635      	mov	r5, r6
   d80ec:	e7e4      	b.n	d80b8 <_ZN5spark6detail9LogFilter9nodeIndexERKNS_6VectorINS1_4NodeENS_16DefaultAllocatorEEEPKcjRb+0x20>
                if (cmp == 0) {
                    if (node.size == value.second) { // Lengths are equal
                        found = true; // Allows caller code to avoid extra call to strncmp()
                        return false;
                    }
                    return node.size < value.second;
   d80ee:	bf8c      	ite	hi
   d80f0:	2001      	movhi	r0, #1
   d80f2:	2000      	movls	r0, #0
   d80f4:	e000      	b.n	d80f8 <_ZN5spark6detail9LogFilter9nodeIndexERKNS_6VectorINS1_4NodeENS_16DefaultAllocatorEEEPKcjRb+0x60>
                }
                return cmp < 0;
   d80f6:	0fc0      	lsrs	r0, r0, #31
	  _ForwardIterator __middle = __first;
	  std::advance(__middle, __half);
	  if (__comp(__middle, __val))
   d80f8:	2800      	cmp	r0, #0
   d80fa:	d0f6      	beq.n	d80ea <_ZN5spark6detail9LogFilter9nodeIndexERKNS_6VectorINS1_4NodeENS_16DefaultAllocatorEEEPKcjRb+0x52>
	    {
	      __first = __middle;
	      ++__first;
	      __len = __len - __half - 1;
   d80fc:	1bae      	subs	r6, r5, r6
	  _ForwardIterator __middle = __first;
	  std::advance(__middle, __half);
	  if (__comp(__middle, __val))
	    {
	      __first = __middle;
	      ++__first;
   d80fe:	f108 0414 	add.w	r4, r8, #20
	      __len = __len - __half - 1;
   d8102:	3e01      	subs	r6, #1
   d8104:	e7f1      	b.n	d80ea <_ZN5spark6detail9LogFilter9nodeIndexERKNS_6VectorINS1_4NodeENS_16DefaultAllocatorEEEPKcjRb+0x52>
            }));
   d8106:	1be4      	subs	r4, r4, r7
}
   d8108:	4802      	ldr	r0, [pc, #8]	; (d8114 <_ZN5spark6detail9LogFilter9nodeIndexERKNS_6VectorINS1_4NodeENS_16DefaultAllocatorEEEPKcjRb+0x7c>)
                        return false;
                    }
                    return node.size < value.second;
                }
                return cmp < 0;
            }));
   d810a:	10a4      	asrs	r4, r4, #2
}
   d810c:	4360      	muls	r0, r4
   d810e:	b005      	add	sp, #20
   d8110:	e8bd 8ff0 	ldmia.w	sp!, {r4, r5, r6, r7, r8, r9, sl, fp, pc}
   d8114:	cccccccd 	.word	0xcccccccd

000d8118 <_ZNK5spark6detail9LogFilter5levelEPKc>:
}

spark::detail::LogFilter::~LogFilter() {
}

LogLevel spark::detail::LogFilter::level(const char *category) const {
   d8118:	b5f0      	push	{r4, r5, r6, r7, lr}
   d811a:	b085      	sub	sp, #20
    LogLevel level = level_; // Default level
    if (!nodes_.isEmpty() && category) {
   d811c:	6903      	ldr	r3, [r0, #16]
}

spark::detail::LogFilter::~LogFilter() {
}

LogLevel spark::detail::LogFilter::level(const char *category) const {
   d811e:	9101      	str	r1, [sp, #4]
    LogLevel level = level_; // Default level
   d8120:	7e06      	ldrb	r6, [r0, #24]
    if (!nodes_.isEmpty() && category) {
   d8122:	b313      	cbz	r3, d816a <_ZNK5spark6detail9LogFilter5levelEPKc+0x52>
   d8124:	b309      	cbz	r1, d816a <_ZNK5spark6detail9LogFilter5levelEPKc+0x52>
        const Vector<Node> *pNodes = &nodes_; // Root nodes
        const char *name = nullptr; // Subcategory name
        size_t size = 0; // Name length
   d8126:	af04      	add	r7, sp, #16
   d8128:	2300      	movs	r3, #0
   d812a:	f847 3d04 	str.w	r3, [r7, #-4]!
}

LogLevel spark::detail::LogFilter::level(const char *category) const {
    LogLevel level = level_; // Default level
    if (!nodes_.isEmpty() && category) {
        const Vector<Node> *pNodes = &nodes_; // Root nodes
   d812e:	f100 040c 	add.w	r4, r0, #12
        const char *name = nullptr; // Subcategory name
        size_t size = 0; // Name length
        while ((name = nextSubcategoryName(category, size))) {
            bool found = false;
   d8132:	461d      	mov	r5, r3
    LogLevel level = level_; // Default level
    if (!nodes_.isEmpty() && category) {
        const Vector<Node> *pNodes = &nodes_; // Root nodes
        const char *name = nullptr; // Subcategory name
        size_t size = 0; // Name length
        while ((name = nextSubcategoryName(category, size))) {
   d8134:	4639      	mov	r1, r7
   d8136:	a801      	add	r0, sp, #4
   d8138:	f7ff ff41 	bl	d7fbe <_ZN12_GLOBAL__N_119nextSubcategoryNameERPKcRj>
   d813c:	4601      	mov	r1, r0
   d813e:	b1a0      	cbz	r0, d816a <_ZNK5spark6detail9LogFilter5levelEPKc+0x52>
            bool found = false;
   d8140:	ab04      	add	r3, sp, #16
            const int index = nodeIndex(*pNodes, name, size, found);
   d8142:	9a03      	ldr	r2, [sp, #12]
    if (!nodes_.isEmpty() && category) {
        const Vector<Node> *pNodes = &nodes_; // Root nodes
        const char *name = nullptr; // Subcategory name
        size_t size = 0; // Name length
        while ((name = nextSubcategoryName(category, size))) {
            bool found = false;
   d8144:	f803 5d05 	strb.w	r5, [r3, #-5]!
            const int index = nodeIndex(*pNodes, name, size, found);
   d8148:	4620      	mov	r0, r4
   d814a:	f7ff ffa5 	bl	d8098 <_ZN5spark6detail9LogFilter9nodeIndexERKNS_6VectorINS1_4NodeENS_16DefaultAllocatorEEEPKcjRb>
            if (!found) {
   d814e:	f89d 300b 	ldrb.w	r3, [sp, #11]
   d8152:	b153      	cbz	r3, d816a <_ZNK5spark6detail9LogFilter5levelEPKc+0x52>
    return data_[i];
}

template<typename T, typename AllocatorT>
inline const T& spark::Vector<T, AllocatorT>::at(int i) const {
    return data_[i];
   d8154:	6823      	ldr	r3, [r4, #0]
   d8156:	2414      	movs	r4, #20
   d8158:	fb04 3400 	mla	r4, r4, r0, r3
            }
            const Node &node = pNodes->at(index);
            if (node.level >= 0) {
                level = (LogLevel)node.level;
            }
            pNodes = &node.nodes;
   d815c:	3408      	adds	r4, #8
            const int index = nodeIndex(*pNodes, name, size, found);
            if (!found) {
                break;
            }
            const Node &node = pNodes->at(index);
            if (node.level >= 0) {
   d815e:	f934 3c02 	ldrsh.w	r3, [r4, #-2]
   d8162:	2b00      	cmp	r3, #0
                level = (LogLevel)node.level;
   d8164:	bfa8      	it	ge
   d8166:	b2de      	uxtbge	r6, r3
    LogLevel level = level_; // Default level
    if (!nodes_.isEmpty() && category) {
        const Vector<Node> *pNodes = &nodes_; // Root nodes
        const char *name = nullptr; // Subcategory name
        size_t size = 0; // Name length
        while ((name = nextSubcategoryName(category, size))) {
   d8168:	e7e4      	b.n	d8134 <_ZNK5spark6detail9LogFilter5levelEPKc+0x1c>
            }
            pNodes = &node.nodes;
        }
    }
    return level;
}
   d816a:	4630      	mov	r0, r6
   d816c:	b005      	add	sp, #20
   d816e:	bdf0      	pop	{r4, r5, r6, r7, pc}

000d8170 <_ZN5spark24DefaultLogHandlerFactory8instanceEv>:
        return new(std::nothrow) StreamLogHandler(*stream, level, std::move(filters));
    }
    return nullptr; // Unknown handler type
}

spark::DefaultLogHandlerFactory* spark::DefaultLogHandlerFactory::instance() {
   d8170:	b510      	push	{r4, lr}
    static DefaultLogHandlerFactory factory;
   d8172:	4c09      	ldr	r4, [pc, #36]	; (d8198 <_ZN5spark24DefaultLogHandlerFactory8instanceEv+0x28>)
   d8174:	6823      	ldr	r3, [r4, #0]
   d8176:	07db      	lsls	r3, r3, #31
   d8178:	d40b      	bmi.n	d8192 <_ZN5spark24DefaultLogHandlerFactory8instanceEv+0x22>
   d817a:	4620      	mov	r0, r4
   d817c:	f7fb ff9e 	bl	d40bc <__cxa_guard_acquire>
   d8180:	b138      	cbz	r0, d8192 <_ZN5spark24DefaultLogHandlerFactory8instanceEv+0x22>
   d8182:	4620      	mov	r0, r4
   d8184:	f7fb ff9f 	bl	d40c6 <__cxa_guard_release>
   d8188:	4a04      	ldr	r2, [pc, #16]	; (d819c <_ZN5spark24DefaultLogHandlerFactory8instanceEv+0x2c>)
   d818a:	4905      	ldr	r1, [pc, #20]	; (d81a0 <_ZN5spark24DefaultLogHandlerFactory8instanceEv+0x30>)
   d818c:	4805      	ldr	r0, [pc, #20]	; (d81a4 <_ZN5spark24DefaultLogHandlerFactory8instanceEv+0x34>)
   d818e:	f002 fa52 	bl	da636 <__aeabi_atexit>
    return &factory;
}
   d8192:	4804      	ldr	r0, [pc, #16]	; (d81a4 <_ZN5spark24DefaultLogHandlerFactory8instanceEv+0x34>)
   d8194:	bd10      	pop	{r4, pc}
   d8196:	bf00      	nop
   d8198:	2003e3d8 	.word	0x2003e3d8
   d819c:	2003d8d4 	.word	0x2003d8d4
   d81a0:	000d7fbb 	.word	0x000d7fbb
   d81a4:	2003d864 	.word	0x2003d864

000d81a8 <_ZN5spark26DefaultOutputStreamFactory8instanceEv>:
    }
#endif // PLATFORM_ID != 3
    OutputStreamFactory::destroyStream(stream);
}

spark::DefaultOutputStreamFactory* spark::DefaultOutputStreamFactory::instance() {
   d81a8:	b510      	push	{r4, lr}
    static DefaultOutputStreamFactory factory;
   d81aa:	4c09      	ldr	r4, [pc, #36]	; (d81d0 <_ZN5spark26DefaultOutputStreamFactory8instanceEv+0x28>)
   d81ac:	6823      	ldr	r3, [r4, #0]
   d81ae:	07db      	lsls	r3, r3, #31
   d81b0:	d40b      	bmi.n	d81ca <_ZN5spark26DefaultOutputStreamFactory8instanceEv+0x22>
   d81b2:	4620      	mov	r0, r4
   d81b4:	f7fb ff82 	bl	d40bc <__cxa_guard_acquire>
   d81b8:	b138      	cbz	r0, d81ca <_ZN5spark26DefaultOutputStreamFactory8instanceEv+0x22>
   d81ba:	4620      	mov	r0, r4
   d81bc:	f7fb ff83 	bl	d40c6 <__cxa_guard_release>
   d81c0:	4a04      	ldr	r2, [pc, #16]	; (d81d4 <_ZN5spark26DefaultOutputStreamFactory8instanceEv+0x2c>)
   d81c2:	4905      	ldr	r1, [pc, #20]	; (d81d8 <_ZN5spark26DefaultOutputStreamFactory8instanceEv+0x30>)
   d81c4:	4805      	ldr	r0, [pc, #20]	; (d81dc <_ZN5spark26DefaultOutputStreamFactory8instanceEv+0x34>)
   d81c6:	f002 fa36 	bl	da636 <__aeabi_atexit>
    return &factory;
}
   d81ca:	4804      	ldr	r0, [pc, #16]	; (d81dc <_ZN5spark26DefaultOutputStreamFactory8instanceEv+0x34>)
   d81cc:	bd10      	pop	{r4, pc}
   d81ce:	bf00      	nop
   d81d0:	2003e408 	.word	0x2003e408
   d81d4:	2003d8d4 	.word	0x2003d8d4
   d81d8:	000d7fb9 	.word	0x000d7fb9
   d81dc:	2003d860 	.word	0x2003d860

000d81e0 <_ZN5spark10LogManagerC1Ev>:
    Print *stream;
};

#endif // Wiring_LogConfig

spark::LogManager::LogManager() {
   d81e0:	b538      	push	{r3, r4, r5, lr}
// spark::Vector
template<typename T, typename AllocatorT>
inline spark::Vector<T, AllocatorT>::Vector() :
        data_(nullptr),
        size_(0),
        capacity_(0) {
   d81e2:	2500      	movs	r5, #0
   d81e4:	4604      	mov	r4, r0
   d81e6:	6005      	str	r5, [r0, #0]
   d81e8:	6045      	str	r5, [r0, #4]
   d81ea:	6085      	str	r5, [r0, #8]
   d81ec:	6105      	str	r5, [r0, #16]
   d81ee:	6145      	str	r5, [r0, #20]
   d81f0:	6185      	str	r5, [r0, #24]
    /**
     * Creates a shared mutex.
     */
    RecursiveMutex(os_mutex_recursive_t handle) : handle_(handle) {}

    RecursiveMutex() : handle_(nullptr)
   d81f2:	f840 5f24 	str.w	r5, [r0, #36]!
    {
        os_mutex_recursive_create(&handle_);
   d81f6:	f7fd ff6d 	bl	d60d4 <os_mutex_recursive_create>
#if Wiring_LogConfig
    handlerFactory_ = DefaultLogHandlerFactory::instance();
   d81fa:	f7ff ffb9 	bl	d8170 <_ZN5spark24DefaultLogHandlerFactory8instanceEv>
   d81fe:	61e0      	str	r0, [r4, #28]
    streamFactory_ = DefaultOutputStreamFactory::instance();
   d8200:	f7ff ffd2 	bl	d81a8 <_ZN5spark26DefaultOutputStreamFactory8instanceEv>
#endif
    outputActive_ = false;
   d8204:	7325      	strb	r5, [r4, #12]
#endif // Wiring_LogConfig

spark::LogManager::LogManager() {
#if Wiring_LogConfig
    handlerFactory_ = DefaultLogHandlerFactory::instance();
    streamFactory_ = DefaultOutputStreamFactory::instance();
   d8206:	6220      	str	r0, [r4, #32]
#endif
    outputActive_ = false;
}
   d8208:	4620      	mov	r0, r4
   d820a:	bd38      	pop	{r3, r4, r5, pc}

000d820c <_ZN5spark10LogManager8instanceEv>:
            resetSystemCallbacks();
        }
    }
}

spark::LogManager* spark::LogManager::instance() {
   d820c:	b510      	push	{r4, lr}
    static LogManager mgr;
   d820e:	4c0a      	ldr	r4, [pc, #40]	; (d8238 <_ZN5spark10LogManager8instanceEv+0x2c>)
   d8210:	6823      	ldr	r3, [r4, #0]
   d8212:	07db      	lsls	r3, r3, #31
   d8214:	d40e      	bmi.n	d8234 <_ZN5spark10LogManager8instanceEv+0x28>
   d8216:	4620      	mov	r0, r4
   d8218:	f7fb ff50 	bl	d40bc <__cxa_guard_acquire>
   d821c:	b150      	cbz	r0, d8234 <_ZN5spark10LogManager8instanceEv+0x28>
   d821e:	4807      	ldr	r0, [pc, #28]	; (d823c <_ZN5spark10LogManager8instanceEv+0x30>)
   d8220:	f7ff ffde 	bl	d81e0 <_ZN5spark10LogManagerC1Ev>
   d8224:	4620      	mov	r0, r4
   d8226:	f7fb ff4e 	bl	d40c6 <__cxa_guard_release>
   d822a:	4a05      	ldr	r2, [pc, #20]	; (d8240 <_ZN5spark10LogManager8instanceEv+0x34>)
   d822c:	4905      	ldr	r1, [pc, #20]	; (d8244 <_ZN5spark10LogManager8instanceEv+0x38>)
   d822e:	4803      	ldr	r0, [pc, #12]	; (d823c <_ZN5spark10LogManager8instanceEv+0x30>)
   d8230:	f002 fa01 	bl	da636 <__aeabi_atexit>
    return &mgr;
}
   d8234:	4801      	ldr	r0, [pc, #4]	; (d823c <_ZN5spark10LogManager8instanceEv+0x30>)
   d8236:	bd10      	pop	{r4, pc}
   d8238:	2003e3dc 	.word	0x2003e3dc
   d823c:	2003e3e0 	.word	0x2003e3e0
   d8240:	2003d8d4 	.word	0x2003d8d4
   d8244:	000d8677 	.word	0x000d8677

000d8248 <_ZN5spark10LogManager18setSystemCallbacksEv>:
}

#endif // Wiring_LogConfig

void spark::LogManager::setSystemCallbacks() {
    log_set_callbacks(logMessage, logWrite, logEnabled, nullptr);
   d8248:	2300      	movs	r3, #0
   d824a:	4a02      	ldr	r2, [pc, #8]	; (d8254 <_ZN5spark10LogManager18setSystemCallbacksEv+0xc>)
   d824c:	4902      	ldr	r1, [pc, #8]	; (d8258 <_ZN5spark10LogManager18setSystemCallbacksEv+0x10>)
   d824e:	4803      	ldr	r0, [pc, #12]	; (d825c <_ZN5spark10LogManager18setSystemCallbacksEv+0x14>)
   d8250:	f7fe b858 	b.w	d6304 <log_set_callbacks>
   d8254:	000d8559 	.word	0x000d8559
   d8258:	000d84e9 	.word	0x000d84e9
   d825c:	000d8471 	.word	0x000d8471

000d8260 <_ZN5spark10LogManager20resetSystemCallbacksEv>:
}

void spark::LogManager::resetSystemCallbacks() {
    log_set_callbacks(nullptr, nullptr, nullptr, nullptr);
   d8260:	2300      	movs	r3, #0
   d8262:	461a      	mov	r2, r3
   d8264:	4619      	mov	r1, r3
   d8266:	4618      	mov	r0, r3
   d8268:	f7fe b84c 	b.w	d6304 <log_set_callbacks>

000d826c <_ZN5spark18JSONObjectIteratorC1ERKNS_9JSONValueE>:
        k_(nullptr),
        v_(nullptr),
        n_(0) {
}

inline spark::JSONObjectIterator::JSONObjectIterator(const JSONValue &value) :
   d826c:	b573      	push	{r0, r1, r4, r5, r6, lr}
      template<typename _Tp1>
	__shared_ptr(const __shared_ptr<_Tp1, _Lp>& __r, _Tp* __p) noexcept
	: _M_ptr(__p), _M_refcount(__r._M_refcount) // never throws
	{ }

      __shared_ptr(const __shared_ptr&) noexcept = default;
   d826e:	ac02      	add	r4, sp, #8
        JSONObjectIterator(value.t_, value.d_) {
   d8270:	688e      	ldr	r6, [r1, #8]
   d8272:	f851 3b04 	ldr.w	r3, [r1], #4
   d8276:	f844 3d08 	str.w	r3, [r4, #-8]!
        k_(nullptr),
        v_(nullptr),
        n_(0) {
}

inline spark::JSONObjectIterator::JSONObjectIterator(const JSONValue &value) :
   d827a:	4605      	mov	r5, r0
   d827c:	a801      	add	r0, sp, #4
   d827e:	f7fe ffaf 	bl	d71e0 <_ZNSt14__shared_countILN9__gnu_cxx12_Lock_policyE0EEC1ERKS2_>
        JSONObjectIterator(value.t_, value.d_) {
   d8282:	4622      	mov	r2, r4
   d8284:	4631      	mov	r1, r6
   d8286:	4628      	mov	r0, r5
   d8288:	f002 f9aa 	bl	da5e0 <_ZN5spark18JSONObjectIteratorC1EPK9jsmntok_tSt10shared_ptrINS_6detail8JSONDataEE>
      __shared_ptr& operator=(const __shared_ptr&) noexcept = default;
      ~__shared_ptr() = default;
   d828c:	a801      	add	r0, sp, #4
   d828e:	f7fc f9af 	bl	d45f0 <_ZNSt14__shared_countILN9__gnu_cxx12_Lock_policyE0EED1Ev>
}
   d8292:	4628      	mov	r0, r5
   d8294:	b002      	add	sp, #8
   d8296:	bd70      	pop	{r4, r5, r6, pc}

000d8298 <_ZNK5spark18JSONObjectIterator5valueEv>:

inline spark::JSONString spark::JSONObjectIterator::name() const {
    return JSONString(k_, d_);
}

inline spark::JSONValue spark::JSONObjectIterator::value() const {
   d8298:	b573      	push	{r0, r1, r4, r5, r6, lr}
      template<typename _Tp1>
	__shared_ptr(const __shared_ptr<_Tp1, _Lp>& __r, _Tp* __p) noexcept
	: _M_ptr(__p), _M_refcount(__r._M_refcount) // never throws
	{ }

      __shared_ptr(const __shared_ptr&) noexcept = default;
   d829a:	ac02      	add	r4, sp, #8
    return JSONValue(v_, d_);
   d829c:	690e      	ldr	r6, [r1, #16]
   d829e:	f851 3b04 	ldr.w	r3, [r1], #4
   d82a2:	f844 3d08 	str.w	r3, [r4, #-8]!

inline spark::JSONString spark::JSONObjectIterator::name() const {
    return JSONString(k_, d_);
}

inline spark::JSONValue spark::JSONObjectIterator::value() const {
   d82a6:	4605      	mov	r5, r0
   d82a8:	a801      	add	r0, sp, #4
   d82aa:	f7fe ff99 	bl	d71e0 <_ZNSt14__shared_countILN9__gnu_cxx12_Lock_policyE0EEC1ERKS2_>
    return JSONValue(v_, d_);
   d82ae:	4622      	mov	r2, r4
   d82b0:	4631      	mov	r1, r6
   d82b2:	4628      	mov	r0, r5
   d82b4:	f002 f9af 	bl	da616 <_ZN5spark9JSONValueC1EPK9jsmntok_tSt10shared_ptrINS_6detail8JSONDataEE>
      __shared_ptr& operator=(const __shared_ptr&) noexcept = default;
      ~__shared_ptr() = default;
   d82b8:	a801      	add	r0, sp, #4
   d82ba:	f7fc f999 	bl	d45f0 <_ZNSt14__shared_countILN9__gnu_cxx12_Lock_policyE0EED1Ev>
}
   d82be:	4628      	mov	r0, r5
   d82c0:	b002      	add	sp, #8
   d82c2:	bd70      	pop	{r4, r5, r6, pc}

000d82c4 <_ZNK5spark18JSONObjectIterator4nameEv>:

inline spark::JSONObjectIterator::JSONObjectIterator(const JSONValue &value) :
        JSONObjectIterator(value.t_, value.d_) {
}

inline spark::JSONString spark::JSONObjectIterator::name() const {
   d82c4:	b573      	push	{r0, r1, r4, r5, r6, lr}
      template<typename _Tp1>
	__shared_ptr(const __shared_ptr<_Tp1, _Lp>& __r, _Tp* __p) noexcept
	: _M_ptr(__p), _M_refcount(__r._M_refcount) // never throws
	{ }

      __shared_ptr(const __shared_ptr&) noexcept = default;
   d82c6:	ac02      	add	r4, sp, #8
    return JSONString(k_, d_);
   d82c8:	68ce      	ldr	r6, [r1, #12]
   d82ca:	f851 3b04 	ldr.w	r3, [r1], #4
   d82ce:	f844 3d08 	str.w	r3, [r4, #-8]!

inline spark::JSONObjectIterator::JSONObjectIterator(const JSONValue &value) :
        JSONObjectIterator(value.t_, value.d_) {
}

inline spark::JSONString spark::JSONObjectIterator::name() const {
   d82d2:	4605      	mov	r5, r0
   d82d4:	a801      	add	r0, sp, #4
   d82d6:	f7fe ff83 	bl	d71e0 <_ZNSt14__shared_countILN9__gnu_cxx12_Lock_policyE0EEC1ERKS2_>
    return JSONString(k_, d_);
   d82da:	4622      	mov	r2, r4
   d82dc:	4631      	mov	r1, r6
   d82de:	4628      	mov	r0, r5
   d82e0:	f002 f956 	bl	da590 <_ZN5spark10JSONStringC1EPK9jsmntok_tSt10shared_ptrINS_6detail8JSONDataEE>
      __shared_ptr& operator=(const __shared_ptr&) noexcept = default;
      ~__shared_ptr() = default;
   d82e4:	a801      	add	r0, sp, #4
   d82e6:	f7fc f983 	bl	d45f0 <_ZNSt14__shared_countILN9__gnu_cxx12_Lock_policyE0EED1Ev>
}
   d82ea:	4628      	mov	r0, r5
   d82ec:	b002      	add	sp, #8
   d82ee:	bd70      	pop	{r4, r5, r6, pc}

000d82f0 <_ZN5spark26DefaultOutputStreamFactory9getParamsERKNS_9JSONValueEPi>:
spark::DefaultOutputStreamFactory* spark::DefaultOutputStreamFactory::instance() {
    static DefaultOutputStreamFactory factory;
    return &factory;
}

void spark::DefaultOutputStreamFactory::getParams(const JSONValue &params, int *baudRate) {
   d82f0:	b530      	push	{r4, r5, lr}
   d82f2:	b08b      	sub	sp, #44	; 0x2c
   d82f4:	460d      	mov	r5, r1
    JSONObjectIterator it(params);
   d82f6:	4601      	mov	r1, r0
   d82f8:	a804      	add	r0, sp, #16
   d82fa:	f7ff ffb7 	bl	d826c <_ZN5spark18JSONObjectIteratorC1ERKNS_9JSONValueE>
    while (it.next()) {
   d82fe:	a804      	add	r0, sp, #16
   d8300:	f002 f879 	bl	da3f6 <_ZN5spark18JSONObjectIterator4nextEv>
   d8304:	b1e8      	cbz	r0, d8342 <_ZN5spark26DefaultOutputStreamFactory9getParamsERKNS_9JSONValueEPi+0x52>
        if (it.name() == "baud" && baudRate) {
   d8306:	a904      	add	r1, sp, #16
   d8308:	4668      	mov	r0, sp
   d830a:	f7ff ffdb 	bl	d82c4 <_ZNK5spark18JSONObjectIterator4nameEv>
   d830e:	490f      	ldr	r1, [pc, #60]	; (d834c <_ZN5spark26DefaultOutputStreamFactory9getParamsERKNS_9JSONValueEPi+0x5c>)
   d8310:	9802      	ldr	r0, [sp, #8]
   d8312:	f7ff fe91 	bl	d8038 <_ZNK5spark10JSONStringeqEPKc.isra.7>
   d8316:	4604      	mov	r4, r0
   d8318:	b110      	cbz	r0, d8320 <_ZN5spark26DefaultOutputStreamFactory9getParamsERKNS_9JSONValueEPi+0x30>
   d831a:	1c2c      	adds	r4, r5, #0
   d831c:	bf18      	it	ne
   d831e:	2401      	movne	r4, #1
   d8320:	a801      	add	r0, sp, #4
   d8322:	f7fc f965 	bl	d45f0 <_ZNSt14__shared_countILN9__gnu_cxx12_Lock_policyE0EED1Ev>
   d8326:	2c00      	cmp	r4, #0
   d8328:	d0e9      	beq.n	d82fe <_ZN5spark26DefaultOutputStreamFactory9getParamsERKNS_9JSONValueEPi+0xe>
            *baudRate = it.value().toInt();
   d832a:	a904      	add	r1, sp, #16
   d832c:	4668      	mov	r0, sp
   d832e:	f7ff ffb3 	bl	d8298 <_ZNK5spark18JSONObjectIterator5valueEv>
   d8332:	4668      	mov	r0, sp
   d8334:	f002 f83f 	bl	da3b6 <_ZNK5spark9JSONValue5toIntEv>
   d8338:	6028      	str	r0, [r5, #0]
   d833a:	a801      	add	r0, sp, #4
   d833c:	f7fc f958 	bl	d45f0 <_ZNSt14__shared_countILN9__gnu_cxx12_Lock_policyE0EED1Ev>
   d8340:	e7dd      	b.n	d82fe <_ZN5spark26DefaultOutputStreamFactory9getParamsERKNS_9JSONValueEPi+0xe>
   d8342:	a805      	add	r0, sp, #20
   d8344:	f7fc f954 	bl	d45f0 <_ZNSt14__shared_countILN9__gnu_cxx12_Lock_policyE0EED1Ev>
        }
    }
}
   d8348:	b00b      	add	sp, #44	; 0x2c
   d834a:	bd30      	pop	{r4, r5, pc}
   d834c:	000dbc44 	.word	0x000dbc44

000d8350 <_ZN5spark26DefaultOutputStreamFactory12createStreamEPKcRKNS_9JSONValueE>:
    static DefaultLogHandlerFactory factory;
    return &factory;
}

// spark::DefaultOutputStreamFactory
Print* spark::DefaultOutputStreamFactory::createStream(const char *type, const JSONValue &params) {
   d8350:	b537      	push	{r0, r1, r2, r4, r5, lr}
   d8352:	460c      	mov	r4, r1
#if PLATFORM_ID != 3
    if (strcmp(type, "Serial") == 0) {
   d8354:	4620      	mov	r0, r4
   d8356:	4913      	ldr	r1, [pc, #76]	; (d83a4 <_ZN5spark26DefaultOutputStreamFactory12createStreamEPKcRKNS_9JSONValueE+0x54>)
    static DefaultLogHandlerFactory factory;
    return &factory;
}

// spark::DefaultOutputStreamFactory
Print* spark::DefaultOutputStreamFactory::createStream(const char *type, const JSONValue &params) {
   d8358:	4615      	mov	r5, r2
#if PLATFORM_ID != 3
    if (strcmp(type, "Serial") == 0) {
   d835a:	f002 fb61 	bl	daa20 <strcmp>
   d835e:	b940      	cbnz	r0, d8372 <_ZN5spark26DefaultOutputStreamFactory12createStreamEPKcRKNS_9JSONValueE+0x22>
        Serial.begin();
   d8360:	f001 fa7a 	bl	d9858 <_Z16_fetch_usbserialv>
   d8364:	f44f 5116 	mov.w	r1, #9600	; 0x2580
   d8368:	f001 fa66 	bl	d9838 <_ZN9USBSerial5beginEl>
        return &Serial;
   d836c:	f001 fa74 	bl	d9858 <_Z16_fetch_usbserialv>
   d8370:	e015      	b.n	d839e <_ZN5spark26DefaultOutputStreamFactory12createStreamEPKcRKNS_9JSONValueE+0x4e>
    if (strcmp(type, "USBSerial1") == 0) {
        USBSerial1.begin();
        return &USBSerial1;
    }
#endif
    if (strcmp(type, "Serial1") == 0) {
   d8372:	490d      	ldr	r1, [pc, #52]	; (d83a8 <_ZN5spark26DefaultOutputStreamFactory12createStreamEPKcRKNS_9JSONValueE+0x58>)
   d8374:	4620      	mov	r0, r4
   d8376:	f002 fb53 	bl	daa20 <strcmp>
   d837a:	b978      	cbnz	r0, d839c <_ZN5spark26DefaultOutputStreamFactory12createStreamEPKcRKNS_9JSONValueE+0x4c>
        int baud = 9600;
   d837c:	a902      	add	r1, sp, #8
   d837e:	f44f 5316 	mov.w	r3, #9600	; 0x2580
   d8382:	f841 3d04 	str.w	r3, [r1, #-4]!
        getParams(params, &baud);
   d8386:	4628      	mov	r0, r5
   d8388:	f7ff ffb2 	bl	d82f0 <_ZN5spark26DefaultOutputStreamFactory9getParamsERKNS_9JSONValueEPi>
        Serial1.begin(baud);
   d838c:	f001 faec 	bl	d9968 <_Z22__fetch_global_Serial1v>
   d8390:	9901      	ldr	r1, [sp, #4]
   d8392:	f001 fae3 	bl	d995c <_ZN11USARTSerial5beginEm>
        return &Serial1;
   d8396:	f001 fae7 	bl	d9968 <_Z22__fetch_global_Serial1v>
   d839a:	e000      	b.n	d839e <_ZN5spark26DefaultOutputStreamFactory12createStreamEPKcRKNS_9JSONValueE+0x4e>
    }
#endif // PLATFORM_ID != 3
    return nullptr;
   d839c:	2000      	movs	r0, #0
}
   d839e:	b003      	add	sp, #12
   d83a0:	bd30      	pop	{r4, r5, pc}
   d83a2:	bf00      	nop
   d83a4:	000dbc49 	.word	0x000dbc49
   d83a8:	000dbc50 	.word	0x000dbc50

000d83ac <_ZN5spark6VectorINS_6detail9LogFilter4NodeENS_16DefaultAllocatorEED1Ev>:
inline spark::Vector<T, AllocatorT>::Vector(Vector<T, AllocatorT>&& vector) : Vector() {
    swap(*this, vector);
}

template<typename T, typename AllocatorT>
inline spark::Vector<T, AllocatorT>::~Vector() {
   d83ac:	b570      	push	{r4, r5, r6, lr}
    destruct(data_, data_ + size_);
   d83ae:	6804      	ldr	r4, [r0, #0]
   d83b0:	6843      	ldr	r3, [r0, #4]
   d83b2:	2614      	movs	r6, #20
inline spark::Vector<T, AllocatorT>::Vector(Vector<T, AllocatorT>&& vector) : Vector() {
    swap(*this, vector);
}

template<typename T, typename AllocatorT>
inline spark::Vector<T, AllocatorT>::~Vector() {
   d83b4:	4605      	mov	r5, r0
    destruct(data_, data_ + size_);
   d83b6:	fb06 4603 	mla	r6, r6, r3, r4
            new(p) T(std::forward<ArgsT>(args)...);
        }
    }

    static void destruct(T* p, const T* end) {
        for (; p != end; ++p) {
   d83ba:	42a6      	cmp	r6, r4
   d83bc:	d005      	beq.n	d83ca <_ZN5spark6VectorINS_6detail9LogFilter4NodeENS_16DefaultAllocatorEED1Ev+0x1e>
    |
    `- aa (error) - b (warn)
*/

// spark::detail::LogFilter
struct spark::detail::LogFilter::Node {
   d83be:	f104 0008 	add.w	r0, r4, #8
   d83c2:	f7ff fff3 	bl	d83ac <_ZN5spark6VectorINS_6detail9LogFilter4NodeENS_16DefaultAllocatorEED1Ev>
   d83c6:	3414      	adds	r4, #20
   d83c8:	e7f7      	b.n	d83ba <_ZN5spark6VectorINS_6detail9LogFilter4NodeENS_16DefaultAllocatorEED1Ev+0xe>
inline void* spark::DefaultAllocator::realloc(void* ptr, size_t size) {
    return ::realloc(ptr, size);
}

inline void spark::DefaultAllocator::free(void* ptr) {
    ::free(ptr);
   d83ca:	6828      	ldr	r0, [r5, #0]
   d83cc:	f7fe f83e 	bl	d644c <free>

template<typename T, typename AllocatorT>
inline spark::Vector<T, AllocatorT>::~Vector() {
    destruct(data_, data_ + size_);
    AllocatorT::free(data_);
}
   d83d0:	4628      	mov	r0, r5
   d83d2:	bd70      	pop	{r4, r5, r6, pc}

000d83d4 <_ZN5spark6VectorI6StringNS_16DefaultAllocatorEED1Ev>:
inline spark::Vector<T, AllocatorT>::Vector(Vector<T, AllocatorT>&& vector) : Vector() {
    swap(*this, vector);
}

template<typename T, typename AllocatorT>
inline spark::Vector<T, AllocatorT>::~Vector() {
   d83d4:	b570      	push	{r4, r5, r6, lr}
    destruct(data_, data_ + size_);
   d83d6:	6804      	ldr	r4, [r0, #0]
   d83d8:	6843      	ldr	r3, [r0, #4]
inline spark::Vector<T, AllocatorT>::Vector(Vector<T, AllocatorT>&& vector) : Vector() {
    swap(*this, vector);
}

template<typename T, typename AllocatorT>
inline spark::Vector<T, AllocatorT>::~Vector() {
   d83da:	4605      	mov	r5, r0
    destruct(data_, data_ + size_);
   d83dc:	eb04 1603 	add.w	r6, r4, r3, lsl #4
            new(p) T(std::forward<ArgsT>(args)...);
        }
    }

    static void destruct(T* p, const T* end) {
        for (; p != end; ++p) {
   d83e0:	42a6      	cmp	r6, r4
   d83e2:	d004      	beq.n	d83ee <_ZN5spark6VectorI6StringNS_16DefaultAllocatorEED1Ev+0x1a>
            p->~T();
   d83e4:	4620      	mov	r0, r4
   d83e6:	f7fe f8d1 	bl	d658c <_ZN6StringD1Ev>
            new(p) T(std::forward<ArgsT>(args)...);
        }
    }

    static void destruct(T* p, const T* end) {
        for (; p != end; ++p) {
   d83ea:	3410      	adds	r4, #16
   d83ec:	e7f8      	b.n	d83e0 <_ZN5spark6VectorI6StringNS_16DefaultAllocatorEED1Ev+0xc>
inline void* spark::DefaultAllocator::realloc(void* ptr, size_t size) {
    return ::realloc(ptr, size);
}

inline void spark::DefaultAllocator::free(void* ptr) {
    ::free(ptr);
   d83ee:	6828      	ldr	r0, [r5, #0]
   d83f0:	f7fe f82c 	bl	d644c <free>

template<typename T, typename AllocatorT>
inline spark::Vector<T, AllocatorT>::~Vector() {
    destruct(data_, data_ + size_);
    AllocatorT::free(data_);
}
   d83f4:	4628      	mov	r0, r5
   d83f6:	bd70      	pop	{r4, r5, r6, pc}

000d83f8 <_ZN5spark6detail9LogFilterD1Ev>:
    swap(cats_, cats);
    swap(nodes_, nodes);
    level_ = level;
}

spark::detail::LogFilter::~LogFilter() {
   d83f8:	b510      	push	{r4, lr}
   d83fa:	4604      	mov	r4, r0
   d83fc:	300c      	adds	r0, #12
   d83fe:	f7ff ffd5 	bl	d83ac <_ZN5spark6VectorINS_6detail9LogFilter4NodeENS_16DefaultAllocatorEED1Ev>
   d8402:	4620      	mov	r0, r4
   d8404:	f7ff ffe6 	bl	d83d4 <_ZN5spark6VectorI6StringNS_16DefaultAllocatorEED1Ev>
}
   d8408:	4620      	mov	r0, r4
   d840a:	bd10      	pop	{r4, pc}

000d840c <_ZN5spark16StreamLogHandlerD1Ev>:
/*!
    \brief Stream-based log handler.

    Adapter class allowing to use existent stream objects as destination for logging output.
*/
class StreamLogHandler: public LogHandler {
   d840c:	b510      	push	{r4, lr}
    */
    LogHandler(LogLevel level, LogCategoryFilters filters);
    /*!
        \brief Destructor.
    */
    virtual ~LogHandler() = default;
   d840e:	4b04      	ldr	r3, [pc, #16]	; (d8420 <_ZN5spark16StreamLogHandlerD1Ev+0x14>)
/*!
    \brief Stream-based log handler.

    Adapter class allowing to use existent stream objects as destination for logging output.
*/
class StreamLogHandler: public LogHandler {
   d8410:	4604      	mov	r4, r0
    */
    LogHandler(LogLevel level, LogCategoryFilters filters);
    /*!
        \brief Destructor.
    */
    virtual ~LogHandler() = default;
   d8412:	f840 3b04 	str.w	r3, [r0], #4
   d8416:	f7ff ffef 	bl	d83f8 <_ZN5spark6detail9LogFilterD1Ev>
/*!
    \brief Stream-based log handler.

    Adapter class allowing to use existent stream objects as destination for logging output.
*/
class StreamLogHandler: public LogHandler {
   d841a:	4620      	mov	r0, r4
   d841c:	bd10      	pop	{r4, pc}
   d841e:	bf00      	nop
   d8420:	000dac30 	.word	0x000dac30

000d8424 <_ZN5spark16StreamLogHandlerD0Ev>:
   d8424:	b510      	push	{r4, lr}
   d8426:	4604      	mov	r4, r0
   d8428:	f7ff fff0 	bl	d840c <_ZN5spark16StreamLogHandlerD1Ev>
   d842c:	4620      	mov	r0, r4
   d842e:	2124      	movs	r1, #36	; 0x24
   d8430:	f002 f90e 	bl	da650 <_ZdlPvj>
   d8434:	4620      	mov	r0, r4
   d8436:	bd10      	pop	{r4, pc}

000d8438 <_ZN5spark20JSONStreamLogHandlerD1Ev>:

private:
    Print *stream_;
};

class JSONStreamLogHandler: public StreamLogHandler {
   d8438:	b510      	push	{r4, lr}
   d843a:	4b03      	ldr	r3, [pc, #12]	; (d8448 <_ZN5spark20JSONStreamLogHandlerD1Ev+0x10>)
   d843c:	6003      	str	r3, [r0, #0]
   d843e:	4604      	mov	r4, r0
   d8440:	f7ff ffe4 	bl	d840c <_ZN5spark16StreamLogHandlerD1Ev>
   d8444:	4620      	mov	r0, r4
   d8446:	bd10      	pop	{r4, pc}
   d8448:	000dbc34 	.word	0x000dbc34

000d844c <_ZN5spark20JSONStreamLogHandlerD0Ev>:
   d844c:	b510      	push	{r4, lr}
   d844e:	4604      	mov	r4, r0
   d8450:	f7ff fff2 	bl	d8438 <_ZN5spark20JSONStreamLogHandlerD1Ev>
   d8454:	4620      	mov	r0, r4
   d8456:	2124      	movs	r1, #36	; 0x24
   d8458:	f002 f8fa 	bl	da650 <_ZdlPvj>
   d845c:	4620      	mov	r0, r4
   d845e:	bd10      	pop	{r4, pc}

000d8460 <_ZNSt10lock_guardI14RecursiveMutexED1Ev>:
      { _M_device.lock(); }

      lock_guard(mutex_type& __m, adopt_lock_t) : _M_device(__m)
      { } // calling thread owns mutex

      ~lock_guard()
   d8460:	b510      	push	{r4, lr}
        }
    }

    void lock() { os_mutex_recursive_lock(handle_); }
    bool trylock() { return os_mutex_recursive_trylock(handle_)==0; }
    void unlock() { os_mutex_recursive_unlock(handle_); }
   d8462:	6803      	ldr	r3, [r0, #0]
   d8464:	4604      	mov	r4, r0
   d8466:	6818      	ldr	r0, [r3, #0]
   d8468:	f7fd fe4c 	bl	d6104 <os_mutex_recursive_unlock>
      { _M_device.unlock(); }
   d846c:	4620      	mov	r0, r4
   d846e:	bd10      	pop	{r4, pc}

000d8470 <_ZN5spark10LogManager10logMessageEPKciS2_PK13LogAttributesPv>:

void spark::LogManager::resetSystemCallbacks() {
    log_set_callbacks(nullptr, nullptr, nullptr, nullptr);
}

void spark::LogManager::logMessage(const char *msg, int level, const char *category, const LogAttributes *attr, void *reserved) {
   d8470:	e92d 4ff0 	stmdb	sp!, {r4, r5, r6, r7, r8, r9, sl, fp, lr}
   d8474:	469b      	mov	fp, r3
#endif /* nRF52840 */

#if defined(STM32F10X_MD) || defined(STM32F10X_HD) || defined(STM32F2XX) || defined(nRF52840)
static inline bool HAL_IsISR() 
{
	return (SCB->ICSR & SCB_ICSR_VECTACTIVE_Msk) != 0;
   d8476:	4b1b      	ldr	r3, [pc, #108]	; (d84e4 <_ZN5spark10LogManager10logMessageEPKciS2_PK13LogAttributesPv+0x74>)
   d8478:	685b      	ldr	r3, [r3, #4]
#ifndef LOG_FROM_ISR
    if (HAL_IsISR()) {
   d847a:	f3c3 0308 	ubfx	r3, r3, #0, #9

void spark::LogManager::resetSystemCallbacks() {
    log_set_callbacks(nullptr, nullptr, nullptr, nullptr);
}

void spark::LogManager::logMessage(const char *msg, int level, const char *category, const LogAttributes *attr, void *reserved) {
   d847e:	b085      	sub	sp, #20
   d8480:	4682      	mov	sl, r0
   d8482:	460e      	mov	r6, r1
   d8484:	4690      	mov	r8, r2
#ifndef LOG_FROM_ISR
    if (HAL_IsISR()) {
   d8486:	bb53      	cbnz	r3, d84de <_ZN5spark10LogManager10logMessageEPKciS2_PK13LogAttributesPv+0x6e>
        return;
    }
#endif
    LogManager *that = instance();
   d8488:	f7ff fec0 	bl	d820c <_ZN5spark10LogManager8instanceEv>
   d848c:	4604      	mov	r4, r0
    LOG_WITH_LOCK(that->mutex_) {
   d848e:	3024      	adds	r0, #36	; 0x24
    class lock_guard
    {
    public:
      typedef _Mutex mutex_type;

      explicit lock_guard(mutex_type& __m) : _M_device(__m)
   d8490:	9003      	str	r0, [sp, #12]
      { _M_device.lock(); }
   d8492:	f7ff fde5 	bl	d8060 <_ZN14RecursiveMutex4lockEv>
        // prevent re-entry
        if (that->isActive()) {
   d8496:	7b23      	ldrb	r3, [r4, #12]
   d8498:	b9f3      	cbnz	r3, d84d8 <_ZN5spark10LogManager10logMessageEPKciS2_PK13LogAttributesPv+0x68>
inline bool spark::LogManager::isActive() const {
    return outputActive_;
}

inline void spark::LogManager::setActive(bool outputActive) {
    outputActive_ = outputActive;
   d849a:	2301      	movs	r3, #1
   d849c:	7323      	strb	r3, [r4, #12]
   d849e:	6825      	ldr	r5, [r4, #0]
    return data_;
}

template<typename T, typename AllocatorT>
T* spark::Vector<T, AllocatorT>::end() {
    return data_ + size_;
   d84a0:	6863      	ldr	r3, [r4, #4]
        if (that->isActive()) {
            return;
        }
        that->setActive(true);
        for (LogHandler *handler: that->activeHandlers_) {
            handler->message(msg, (LogLevel)level, category, *attr);
   d84a2:	b2f6      	uxtb	r6, r6
   d84a4:	eb05 0983 	add.w	r9, r5, r3, lsl #2
        // prevent re-entry
        if (that->isActive()) {
            return;
        }
        that->setActive(true);
        for (LogHandler *handler: that->activeHandlers_) {
   d84a8:	454d      	cmp	r5, r9
   d84aa:	d013      	beq.n	d84d4 <_ZN5spark10LogManager10logMessageEPKciS2_PK13LogAttributesPv+0x64>
   d84ac:	f855 7b04 	ldr.w	r7, [r5], #4
inline const char* spark::LogHandler::levelName(LogLevel level) {
    return log_level_name(level, nullptr);
}

inline void spark::LogHandler::message(const char *msg, LogLevel level, const char *category, const LogAttributes &attr) {
    if (level >= filter_.level(category)) {
   d84b0:	4641      	mov	r1, r8
   d84b2:	1d38      	adds	r0, r7, #4
   d84b4:	f7ff fe30 	bl	d8118 <_ZNK5spark6detail9LogFilter5levelEPKc>
   d84b8:	4286      	cmp	r6, r0
   d84ba:	d3f5      	bcc.n	d84a8 <_ZN5spark10LogManager10logMessageEPKciS2_PK13LogAttributesPv+0x38>
        logMessage(msg, level, category, attr);
   d84bc:	683b      	ldr	r3, [r7, #0]
   d84be:	f8cd b000 	str.w	fp, [sp]
   d84c2:	689b      	ldr	r3, [r3, #8]
   d84c4:	469e      	mov	lr, r3
   d84c6:	4638      	mov	r0, r7
   d84c8:	4643      	mov	r3, r8
   d84ca:	4632      	mov	r2, r6
   d84cc:	4651      	mov	r1, sl
   d84ce:	4677      	mov	r7, lr
   d84d0:	47b8      	blx	r7
   d84d2:	e7e9      	b.n	d84a8 <_ZN5spark10LogManager10logMessageEPKciS2_PK13LogAttributesPv+0x38>
inline bool spark::LogManager::isActive() const {
    return outputActive_;
}

inline void spark::LogManager::setActive(bool outputActive) {
    outputActive_ = outputActive;
   d84d4:	2300      	movs	r3, #0
   d84d6:	7323      	strb	r3, [r4, #12]
#endif
    LogManager *that = instance();
    LOG_WITH_LOCK(that->mutex_) {
        // prevent re-entry
        if (that->isActive()) {
            return;
   d84d8:	a803      	add	r0, sp, #12
   d84da:	f7ff ffc1 	bl	d8460 <_ZNSt10lock_guardI14RecursiveMutexED1Ev>
        for (LogHandler *handler: that->activeHandlers_) {
            handler->message(msg, (LogLevel)level, category, *attr);
        }
        that->setActive(false);
    }
}
   d84de:	b005      	add	sp, #20
   d84e0:	e8bd 8ff0 	ldmia.w	sp!, {r4, r5, r6, r7, r8, r9, sl, fp, pc}
   d84e4:	e000ed00 	.word	0xe000ed00

000d84e8 <_ZN5spark10LogManager8logWriteEPKcjiS2_Pv>:

void spark::LogManager::logWrite(const char *data, size_t size, int level, const char *category, void *reserved) {
   d84e8:	e92d 4ff7 	stmdb	sp!, {r0, r1, r2, r4, r5, r6, r7, r8, r9, sl, fp, lr}
   d84ec:	4699      	mov	r9, r3
   d84ee:	4b19      	ldr	r3, [pc, #100]	; (d8554 <_ZN5spark10LogManager8logWriteEPKcjiS2_Pv+0x6c>)
   d84f0:	685b      	ldr	r3, [r3, #4]
#ifndef LOG_FROM_ISR
    if (HAL_IsISR()) {
   d84f2:	f3c3 0308 	ubfx	r3, r3, #0, #9
        }
        that->setActive(false);
    }
}

void spark::LogManager::logWrite(const char *data, size_t size, int level, const char *category, void *reserved) {
   d84f6:	4607      	mov	r7, r0
   d84f8:	4688      	mov	r8, r1
   d84fa:	4616      	mov	r6, r2
#ifndef LOG_FROM_ISR
    if (HAL_IsISR()) {
   d84fc:	bb33      	cbnz	r3, d854c <_ZN5spark10LogManager8logWriteEPKcjiS2_Pv+0x64>
        return;
    }
#endif
    LogManager *that = instance();
   d84fe:	f7ff fe85 	bl	d820c <_ZN5spark10LogManager8instanceEv>
   d8502:	4604      	mov	r4, r0
    LOG_WITH_LOCK(that->mutex_) {
   d8504:	3024      	adds	r0, #36	; 0x24
    class lock_guard
    {
    public:
      typedef _Mutex mutex_type;

      explicit lock_guard(mutex_type& __m) : _M_device(__m)
   d8506:	9001      	str	r0, [sp, #4]
      { _M_device.lock(); }
   d8508:	f7ff fdaa 	bl	d8060 <_ZN14RecursiveMutex4lockEv>
        // prevent re-entry
        if (that->isActive()) {
   d850c:	7b23      	ldrb	r3, [r4, #12]
   d850e:	b9d3      	cbnz	r3, d8546 <_ZN5spark10LogManager8logWriteEPKcjiS2_Pv+0x5e>
inline bool spark::LogManager::isActive() const {
    return outputActive_;
}

inline void spark::LogManager::setActive(bool outputActive) {
    outputActive_ = outputActive;
   d8510:	2301      	movs	r3, #1
   d8512:	7323      	strb	r3, [r4, #12]
   d8514:	6825      	ldr	r5, [r4, #0]
   d8516:	6863      	ldr	r3, [r4, #4]
    }
}

inline void spark::LogHandler::write(const char *data, size_t size, LogLevel level, const char *category) {
    if (level >= filter_.level(category)) {
   d8518:	fa5f fb86 	uxtb.w	fp, r6
   d851c:	eb05 0a83 	add.w	sl, r5, r3, lsl #2
        // prevent re-entry
        if (that->isActive()) {
            return;
        }
        that->setActive(true);
        for (LogHandler *handler: that->activeHandlers_) {
   d8520:	4555      	cmp	r5, sl
   d8522:	d00e      	beq.n	d8542 <_ZN5spark10LogManager8logWriteEPKcjiS2_Pv+0x5a>
   d8524:	f855 6b04 	ldr.w	r6, [r5], #4
   d8528:	4649      	mov	r1, r9
   d852a:	1d30      	adds	r0, r6, #4
   d852c:	f7ff fdf4 	bl	d8118 <_ZNK5spark6detail9LogFilter5levelEPKc>
   d8530:	4583      	cmp	fp, r0
   d8532:	d3f5      	bcc.n	d8520 <_ZN5spark10LogManager8logWriteEPKcjiS2_Pv+0x38>
        write(data, size);
   d8534:	6833      	ldr	r3, [r6, #0]
   d8536:	4642      	mov	r2, r8
   d8538:	68db      	ldr	r3, [r3, #12]
   d853a:	4639      	mov	r1, r7
   d853c:	4630      	mov	r0, r6
   d853e:	4798      	blx	r3
   d8540:	e7ee      	b.n	d8520 <_ZN5spark10LogManager8logWriteEPKcjiS2_Pv+0x38>
inline bool spark::LogManager::isActive() const {
    return outputActive_;
}

inline void spark::LogManager::setActive(bool outputActive) {
    outputActive_ = outputActive;
   d8542:	2300      	movs	r3, #0
   d8544:	7323      	strb	r3, [r4, #12]
#endif
    LogManager *that = instance();
    LOG_WITH_LOCK(that->mutex_) {
        // prevent re-entry
        if (that->isActive()) {
            return;
   d8546:	a801      	add	r0, sp, #4
   d8548:	f7ff ff8a 	bl	d8460 <_ZNSt10lock_guardI14RecursiveMutexED1Ev>
        for (LogHandler *handler: that->activeHandlers_) {
            handler->write(data, size, (LogLevel)level, category);
        }
        that->setActive(false);
    }
}
   d854c:	b003      	add	sp, #12
   d854e:	e8bd 8ff0 	ldmia.w	sp!, {r4, r5, r6, r7, r8, r9, sl, fp, pc}
   d8552:	bf00      	nop
   d8554:	e000ed00 	.word	0xe000ed00

000d8558 <_ZN5spark10LogManager10logEnabledEiPKcPv>:

int spark::LogManager::logEnabled(int level, const char *category, void *reserved) {
   d8558:	e92d 41f3 	stmdb	sp!, {r0, r1, r4, r5, r6, r7, r8, lr}
   d855c:	4b15      	ldr	r3, [pc, #84]	; (d85b4 <_ZN5spark10LogManager10logEnabledEiPKcPv+0x5c>)
   d855e:	685b      	ldr	r3, [r3, #4]
#ifndef LOG_FROM_ISR
    if (HAL_IsISR()) {
   d8560:	f3c3 0308 	ubfx	r3, r3, #0, #9
        }
        that->setActive(false);
    }
}

int spark::LogManager::logEnabled(int level, const char *category, void *reserved) {
   d8564:	4604      	mov	r4, r0
   d8566:	4688      	mov	r8, r1
#ifndef LOG_FROM_ISR
    if (HAL_IsISR()) {
   d8568:	b9fb      	cbnz	r3, d85aa <_ZN5spark10LogManager10logEnabledEiPKcPv+0x52>
        return 0;
    }
#endif
    LogManager *that = instance();
   d856a:	f7ff fe4f 	bl	d820c <_ZN5spark10LogManager8instanceEv>
   d856e:	4606      	mov	r6, r0
    int minLevel = LOG_LEVEL_NONE;
    LOG_WITH_LOCK(that->mutex_) {
   d8570:	3024      	adds	r0, #36	; 0x24
    class lock_guard
    {
    public:
      typedef _Mutex mutex_type;

      explicit lock_guard(mutex_type& __m) : _M_device(__m)
   d8572:	9001      	str	r0, [sp, #4]
      { _M_device.lock(); }
   d8574:	f7ff fd74 	bl	d8060 <_ZN14RecursiveMutex4lockEv>
   d8578:	e896 00a0 	ldmia.w	r6, {r5, r7}
   d857c:	2646      	movs	r6, #70	; 0x46
   d857e:	eb05 0787 	add.w	r7, r5, r7, lsl #2
        for (LogHandler *handler: that->activeHandlers_) {
   d8582:	42af      	cmp	r7, r5
   d8584:	d107      	bne.n	d8596 <_ZN5spark10LogManager10logEnabledEiPKcPv+0x3e>
        return 0;
    }
#endif
    LogManager *that = instance();
    int minLevel = LOG_LEVEL_NONE;
    LOG_WITH_LOCK(that->mutex_) {
   d8586:	a801      	add	r0, sp, #4
   d8588:	f7ff ff6a 	bl	d8460 <_ZNSt10lock_guardI14RecursiveMutexED1Ev>
            if (level < minLevel) {
                minLevel = level;
            }
        }
    }
    return (level >= minLevel);
   d858c:	42b4      	cmp	r4, r6
   d858e:	bfb4      	ite	lt
   d8590:	2000      	movlt	r0, #0
   d8592:	2001      	movge	r0, #1
   d8594:	e00a      	b.n	d85ac <_ZN5spark10LogManager10logEnabledEiPKcPv+0x54>
inline LogLevel spark::LogHandler::level() const {
    return filter_.level();
}

inline LogLevel spark::LogHandler::level(const char *category) const {
    return filter_.level(category);
   d8596:	f855 0b04 	ldr.w	r0, [r5], #4
   d859a:	4641      	mov	r1, r8
   d859c:	3004      	adds	r0, #4
   d859e:	f7ff fdbb 	bl	d8118 <_ZNK5spark6detail9LogFilter5levelEPKc>
   d85a2:	4286      	cmp	r6, r0
   d85a4:	bfa8      	it	ge
   d85a6:	4606      	movge	r6, r0
   d85a8:	e7eb      	b.n	d8582 <_ZN5spark10LogManager10logEnabledEiPKcPv+0x2a>
}

int spark::LogManager::logEnabled(int level, const char *category, void *reserved) {
#ifndef LOG_FROM_ISR
    if (HAL_IsISR()) {
        return 0;
   d85aa:	2000      	movs	r0, #0
                minLevel = level;
            }
        }
    }
    return (level >= minLevel);
}
   d85ac:	b002      	add	sp, #8
   d85ae:	e8bd 81f0 	ldmia.w	sp!, {r4, r5, r6, r7, r8, pc}
   d85b2:	bf00      	nop
   d85b4:	e000ed00 	.word	0xe000ed00

000d85b8 <_ZN5spark6VectorIPNS_10LogHandlerENS_16DefaultAllocatorEE9removeOneERKS2_>:
    move(p, p + n, data_ + size_);
    size_ -= n;
}

template<typename T, typename AllocatorT>
inline bool spark::Vector<T, AllocatorT>::removeOne(const T &value) {
   d85b8:	b570      	push	{r4, r5, r6, lr}
    T* const p = find(data_, data_ + size_, value);
   d85ba:	6803      	ldr	r3, [r0, #0]
   d85bc:	6842      	ldr	r2, [r0, #4]
    move(p, p + n, data_ + size_);
    size_ -= n;
}

template<typename T, typename AllocatorT>
inline bool spark::Vector<T, AllocatorT>::removeOne(const T &value) {
   d85be:	4604      	mov	r4, r0
    T* const p = find(data_, data_ + size_, value);
   d85c0:	eb03 0282 	add.w	r2, r3, r2, lsl #2
            }
        }
    }

    static T* find(T* p, const T* end, const T& value) {
        for (; p != end; ++p) {
   d85c4:	429a      	cmp	r2, r3
   d85c6:	4618      	mov	r0, r3
   d85c8:	d00e      	beq.n	d85e8 <_ZN5spark6VectorIPNS_10LogHandlerENS_16DefaultAllocatorEE9removeOneERKS2_+0x30>
            if (*p == value) {
   d85ca:	6806      	ldr	r6, [r0, #0]
   d85cc:	680d      	ldr	r5, [r1, #0]
   d85ce:	42ae      	cmp	r6, r5
   d85d0:	f103 0304 	add.w	r3, r3, #4
   d85d4:	d1f6      	bne.n	d85c4 <_ZN5spark6VectorIPNS_10LogHandlerENS_16DefaultAllocatorEE9removeOneERKS2_+0xc>
    T* const p = find(data_, data_ + size_, value);
    if (!p) {
        return false;
    }
    p->~T();
    move(p, p + 1, data_ + size_);
   d85d6:	1d01      	adds	r1, r0, #4
        }
    }

    template<PARTICLE_VECTOR_ENABLE_IF_TRIVIALLY_COPYABLE(T)>
    static void move(T* dest, const T* p, const T* end) {
        ::memmove(dest, p, (end - p) * sizeof(T));
   d85d8:	1a52      	subs	r2, r2, r1
   d85da:	f002 f9bd 	bl	da958 <memmove>
    if (!p) {
        return false;
    }
    p->~T();
    move(p, p + 1, data_ + size_);
    --size_;
   d85de:	6863      	ldr	r3, [r4, #4]
   d85e0:	3b01      	subs	r3, #1
   d85e2:	6063      	str	r3, [r4, #4]
    return true;
   d85e4:	2001      	movs	r0, #1
}
   d85e6:	bd70      	pop	{r4, r5, r6, pc}

template<typename T, typename AllocatorT>
inline bool spark::Vector<T, AllocatorT>::removeOne(const T &value) {
    T* const p = find(data_, data_ + size_, value);
    if (!p) {
        return false;
   d85e8:	2000      	movs	r0, #0
   d85ea:	bd70      	pop	{r4, r5, r6, pc}

000d85ec <_ZN5spark10LogManager13removeHandlerEPNS_10LogHandlerE>:
        }
    }
    return true;
}

void spark::LogManager::removeHandler(LogHandler *handler) {
   d85ec:	b51f      	push	{r0, r1, r2, r3, r4, lr}
   d85ee:	4604      	mov	r4, r0
    LOG_WITH_LOCK(mutex_) {
   d85f0:	3024      	adds	r0, #36	; 0x24
        }
    }
    return true;
}

void spark::LogManager::removeHandler(LogHandler *handler) {
   d85f2:	9101      	str	r1, [sp, #4]
    class lock_guard
    {
    public:
      typedef _Mutex mutex_type;

      explicit lock_guard(mutex_type& __m) : _M_device(__m)
   d85f4:	9003      	str	r0, [sp, #12]
      { _M_device.lock(); }
   d85f6:	f7ff fd33 	bl	d8060 <_ZN14RecursiveMutex4lockEv>
    LOG_WITH_LOCK(mutex_) {
        if (activeHandlers_.removeOne(handler) && activeHandlers_.isEmpty()) {
   d85fa:	a901      	add	r1, sp, #4
   d85fc:	4620      	mov	r0, r4
   d85fe:	f7ff ffdb 	bl	d85b8 <_ZN5spark6VectorIPNS_10LogHandlerENS_16DefaultAllocatorEE9removeOneERKS2_>
   d8602:	b920      	cbnz	r0, d860e <_ZN5spark10LogManager13removeHandlerEPNS_10LogHandlerE+0x22>
    }
    return true;
}

void spark::LogManager::removeHandler(LogHandler *handler) {
    LOG_WITH_LOCK(mutex_) {
   d8604:	a803      	add	r0, sp, #12
   d8606:	f7ff ff2b 	bl	d8460 <_ZNSt10lock_guardI14RecursiveMutexED1Ev>
        if (activeHandlers_.removeOne(handler) && activeHandlers_.isEmpty()) {
            resetSystemCallbacks();
        }
    }
}
   d860a:	b004      	add	sp, #16
   d860c:	bd10      	pop	{r4, pc}
    return true;
}

void spark::LogManager::removeHandler(LogHandler *handler) {
    LOG_WITH_LOCK(mutex_) {
        if (activeHandlers_.removeOne(handler) && activeHandlers_.isEmpty()) {
   d860e:	6863      	ldr	r3, [r4, #4]
   d8610:	2b00      	cmp	r3, #0
   d8612:	d1f7      	bne.n	d8604 <_ZN5spark10LogManager13removeHandlerEPNS_10LogHandlerE+0x18>
            resetSystemCallbacks();
   d8614:	f7ff fe24 	bl	d8260 <_ZN5spark10LogManager20resetSystemCallbacksEv>
   d8618:	e7f4      	b.n	d8604 <_ZN5spark10LogManager13removeHandlerEPNS_10LogHandlerE+0x18>

000d861a <_ZN5spark10LogManager22destroyFactoryHandlersEv>:
            break;
        }
    }
}

void spark::LogManager::destroyFactoryHandlers() {
   d861a:	b570      	push	{r4, r5, r6, lr}
   d861c:	6905      	ldr	r5, [r0, #16]
    return data_;
}

template<typename T, typename AllocatorT>
T* spark::Vector<T, AllocatorT>::end() {
    return data_ + size_;
   d861e:	6943      	ldr	r3, [r0, #20]
   d8620:	2618      	movs	r6, #24
   d8622:	4604      	mov	r4, r0
   d8624:	fb06 5603 	mla	r6, r6, r3, r5
    for (const FactoryHandler &h: factoryHandlers_) {
   d8628:	42ae      	cmp	r6, r5
   d862a:	d015      	beq.n	d8658 <_ZN5spark10LogManager22destroyFactoryHandlersEv+0x3e>
        activeHandlers_.removeOne(h.handler);
   d862c:	f105 0110 	add.w	r1, r5, #16
   d8630:	4620      	mov	r0, r4
   d8632:	f7ff ffc1 	bl	d85b8 <_ZN5spark6VectorIPNS_10LogHandlerENS_16DefaultAllocatorEE9removeOneERKS2_>
        if (activeHandlers_.isEmpty()) {
   d8636:	6863      	ldr	r3, [r4, #4]
   d8638:	b90b      	cbnz	r3, d863e <_ZN5spark10LogManager22destroyFactoryHandlersEv+0x24>
            resetSystemCallbacks();
   d863a:	f7ff fe11 	bl	d8260 <_ZN5spark10LogManager20resetSystemCallbacksEv>
        }
        handlerFactory_->destroyHandler(h.handler);
   d863e:	69e0      	ldr	r0, [r4, #28]
   d8640:	6929      	ldr	r1, [r5, #16]
   d8642:	6803      	ldr	r3, [r0, #0]
   d8644:	68db      	ldr	r3, [r3, #12]
   d8646:	4798      	blx	r3
        if (h.stream) {
   d8648:	6969      	ldr	r1, [r5, #20]
   d864a:	b119      	cbz	r1, d8654 <_ZN5spark10LogManager22destroyFactoryHandlersEv+0x3a>
            streamFactory_->destroyStream(h.stream);
   d864c:	6a20      	ldr	r0, [r4, #32]
   d864e:	6803      	ldr	r3, [r0, #0]
   d8650:	68db      	ldr	r3, [r3, #12]
   d8652:	4798      	blx	r3
   d8654:	3518      	adds	r5, #24
        }
    }
}

void spark::LogManager::destroyFactoryHandlers() {
    for (const FactoryHandler &h: factoryHandlers_) {
   d8656:	e7e7      	b.n	d8628 <_ZN5spark10LogManager22destroyFactoryHandlersEv+0xe>
    return true;
}

template<typename T, typename AllocatorT>
inline void spark::Vector<T, AllocatorT>::clear() {
    destruct(data_, data_ + size_);
   d8658:	6925      	ldr	r5, [r4, #16]
   d865a:	6963      	ldr	r3, [r4, #20]
   d865c:	2618      	movs	r6, #24
   d865e:	fb06 5603 	mla	r6, r6, r3, r5
            new(p) T(std::forward<ArgsT>(args)...);
        }
    }

    static void destruct(T* p, const T* end) {
        for (; p != end; ++p) {
   d8662:	42b5      	cmp	r5, r6
   d8664:	d004      	beq.n	d8670 <_ZN5spark10LogManager22destroyFactoryHandlersEv+0x56>
        }
    }
}

// spark::LogManager
struct spark::LogManager::FactoryHandler {
   d8666:	4628      	mov	r0, r5
   d8668:	f7fd ff90 	bl	d658c <_ZN6StringD1Ev>
   d866c:	3518      	adds	r5, #24
   d866e:	e7f8      	b.n	d8662 <_ZN5spark10LogManager22destroyFactoryHandlersEv+0x48>
}

template<typename T, typename AllocatorT>
inline void spark::Vector<T, AllocatorT>::clear() {
    destruct(data_, data_ + size_);
    size_ = 0;
   d8670:	2300      	movs	r3, #0
   d8672:	6163      	str	r3, [r4, #20]
   d8674:	bd70      	pop	{r4, r5, r6, pc}

000d8676 <_ZN5spark10LogManagerD1Ev>:
    streamFactory_ = DefaultOutputStreamFactory::instance();
#endif
    outputActive_ = false;
}

spark::LogManager::~LogManager() {
   d8676:	b573      	push	{r0, r1, r4, r5, r6, lr}
   d8678:	4604      	mov	r4, r0
    class lock_guard
    {
    public:
      typedef _Mutex mutex_type;

      explicit lock_guard(mutex_type& __m) : _M_device(__m)
   d867a:	ad02      	add	r5, sp, #8
    resetSystemCallbacks();
   d867c:	f7ff fdf0 	bl	d8260 <_ZN5spark10LogManager20resetSystemCallbacksEv>
#if Wiring_LogConfig
    LOG_WITH_LOCK(mutex_) {
   d8680:	f104 0024 	add.w	r0, r4, #36	; 0x24
   d8684:	f845 0d04 	str.w	r0, [r5, #-4]!
      { _M_device.lock(); }
   d8688:	f7ff fcea 	bl	d8060 <_ZN14RecursiveMutex4lockEv>
         destroyFactoryHandlers();
   d868c:	4620      	mov	r0, r4
   d868e:	f7ff ffc4 	bl	d861a <_ZN5spark10LogManager22destroyFactoryHandlersEv>
}

spark::LogManager::~LogManager() {
    resetSystemCallbacks();
#if Wiring_LogConfig
    LOG_WITH_LOCK(mutex_) {
   d8692:	4628      	mov	r0, r5
   d8694:	f7ff fee4 	bl	d8460 <_ZNSt10lock_guardI14RecursiveMutexED1Ev>
        dispose();
    }

    void dispose()
    {
        if (handle_) {
   d8698:	6a60      	ldr	r0, [r4, #36]	; 0x24
   d869a:	b108      	cbz	r0, d86a0 <_ZN5spark10LogManagerD1Ev+0x2a>
            os_mutex_recursive_destroy(handle_);
   d869c:	f7fd fd22 	bl	d60e4 <os_mutex_recursive_destroy>
    swap(*this, vector);
}

template<typename T, typename AllocatorT>
inline spark::Vector<T, AllocatorT>::~Vector() {
    destruct(data_, data_ + size_);
   d86a0:	6925      	ldr	r5, [r4, #16]
   d86a2:	6963      	ldr	r3, [r4, #20]
   d86a4:	2618      	movs	r6, #24
   d86a6:	fb06 5603 	mla	r6, r6, r3, r5
            new(p) T(std::forward<ArgsT>(args)...);
        }
    }

    static void destruct(T* p, const T* end) {
        for (; p != end; ++p) {
   d86aa:	42b5      	cmp	r5, r6
   d86ac:	d004      	beq.n	d86b8 <_ZN5spark10LogManagerD1Ev+0x42>
        }
    }
}

// spark::LogManager
struct spark::LogManager::FactoryHandler {
   d86ae:	4628      	mov	r0, r5
   d86b0:	f7fd ff6c 	bl	d658c <_ZN6StringD1Ev>
   d86b4:	3518      	adds	r5, #24
   d86b6:	e7f8      	b.n	d86aa <_ZN5spark10LogManagerD1Ev+0x34>
inline void* spark::DefaultAllocator::realloc(void* ptr, size_t size) {
    return ::realloc(ptr, size);
}

inline void spark::DefaultAllocator::free(void* ptr) {
    ::free(ptr);
   d86b8:	6920      	ldr	r0, [r4, #16]
   d86ba:	f7fd fec7 	bl	d644c <free>
   d86be:	6820      	ldr	r0, [r4, #0]
   d86c0:	f7fd fec4 	bl	d644c <free>
#if Wiring_LogConfig
    LOG_WITH_LOCK(mutex_) {
         destroyFactoryHandlers();
    }
#endif
}
   d86c4:	4620      	mov	r0, r4
   d86c6:	b002      	add	sp, #8
   d86c8:	bd70      	pop	{r4, r5, r6, pc}

000d86ca <_ZN5spark4swapINS_17LogCategoryFilterENS_16DefaultAllocatorEEEvRNS_6VectorIT_T0_EES7_>:
#endif
    {
      // concept requirements
      __glibcxx_function_requires(_SGIAssignableConcept<_Tp>)

      _Tp __tmp = _GLIBCXX_MOVE(__a);
   d86ca:	6803      	ldr	r3, [r0, #0]
      __a = _GLIBCXX_MOVE(__b);
   d86cc:	680a      	ldr	r2, [r1, #0]
   d86ce:	6002      	str	r2, [r0, #0]
      __b = _GLIBCXX_MOVE(__tmp);
   d86d0:	600b      	str	r3, [r1, #0]
#endif
    {
      // concept requirements
      __glibcxx_function_requires(_SGIAssignableConcept<_Tp>)

      _Tp __tmp = _GLIBCXX_MOVE(__a);
   d86d2:	6843      	ldr	r3, [r0, #4]
      __a = _GLIBCXX_MOVE(__b);
   d86d4:	684a      	ldr	r2, [r1, #4]
   d86d6:	6042      	str	r2, [r0, #4]
      __b = _GLIBCXX_MOVE(__tmp);
   d86d8:	604b      	str	r3, [r1, #4]
#endif
    {
      // concept requirements
      __glibcxx_function_requires(_SGIAssignableConcept<_Tp>)

      _Tp __tmp = _GLIBCXX_MOVE(__a);
   d86da:	6883      	ldr	r3, [r0, #8]
      __a = _GLIBCXX_MOVE(__b);
   d86dc:	688a      	ldr	r2, [r1, #8]
   d86de:	6082      	str	r2, [r0, #8]
      __b = _GLIBCXX_MOVE(__tmp);
   d86e0:	608b      	str	r3, [r1, #8]
   d86e2:	4770      	bx	lr

000d86e4 <_ZN5spark6VectorINS_17LogCategoryFilterENS_16DefaultAllocatorEEC1EOS3_>:
        size_ = vector.size_;
    }
}

template<typename T, typename AllocatorT>
inline spark::Vector<T, AllocatorT>::Vector(Vector<T, AllocatorT>&& vector) : Vector() {
   d86e4:	b510      	push	{r4, lr}
// spark::Vector
template<typename T, typename AllocatorT>
inline spark::Vector<T, AllocatorT>::Vector() :
        data_(nullptr),
        size_(0),
        capacity_(0) {
   d86e6:	2300      	movs	r3, #0
        size_ = vector.size_;
    }
}

template<typename T, typename AllocatorT>
inline spark::Vector<T, AllocatorT>::Vector(Vector<T, AllocatorT>&& vector) : Vector() {
   d86e8:	4604      	mov	r4, r0
// spark::Vector
template<typename T, typename AllocatorT>
inline spark::Vector<T, AllocatorT>::Vector() :
        data_(nullptr),
        size_(0),
        capacity_(0) {
   d86ea:	6003      	str	r3, [r0, #0]
   d86ec:	6043      	str	r3, [r0, #4]
   d86ee:	6083      	str	r3, [r0, #8]
    }
}

template<typename T, typename AllocatorT>
inline spark::Vector<T, AllocatorT>::Vector(Vector<T, AllocatorT>&& vector) : Vector() {
    swap(*this, vector);
   d86f0:	f7ff ffeb 	bl	d86ca <_ZN5spark4swapINS_17LogCategoryFilterENS_16DefaultAllocatorEEEvRNS_6VectorIT_T0_EES7_>
}
   d86f4:	4620      	mov	r0, r4
   d86f6:	bd10      	pop	{r4, pc}

000d86f8 <_ZN5spark6VectorINS_6detail9LogFilter4NodeENS_16DefaultAllocatorEE4moveIS3_Li0EEEvPS3_S7_S7_>:
        ::memmove(dest, p, (end - p) * sizeof(T));
    }

    template<PARTICLE_VECTOR_ENABLE_IF_NOT_TRIVIALLY_COPYABLE(T)>
    static void move(T* dest, T* p, T* end) {
        if (dest > p && dest < end) {
   d86f8:	4288      	cmp	r0, r1
    static void move(T* dest, const T* p, const T* end) {
        ::memmove(dest, p, (end - p) * sizeof(T));
    }

    template<PARTICLE_VECTOR_ENABLE_IF_NOT_TRIVIALLY_COPYABLE(T)>
    static void move(T* dest, T* p, T* end) {
   d86fa:	b5f8      	push	{r3, r4, r5, r6, r7, lr}
   d86fc:	4604      	mov	r4, r0
   d86fe:	4616      	mov	r6, r2
        if (dest > p && dest < end) {
   d8700:	d925      	bls.n	d874e <_ZN5spark6VectorINS_6detail9LogFilter4NodeENS_16DefaultAllocatorEE4moveIS3_Li0EEEvPS3_S7_S7_+0x56>
   d8702:	4290      	cmp	r0, r2
   d8704:	d224      	bcs.n	d8750 <_ZN5spark6VectorINS_6detail9LogFilter4NodeENS_16DefaultAllocatorEE4moveIS3_Li0EEEvPS3_S7_S7_+0x58>
            // Move elements in reverse order
            --p;
            --end;
            dest += end - p - 1;
   d8706:	1a55      	subs	r5, r2, r1
   d8708:	3d14      	subs	r5, #20
   d870a:	442c      	add	r4, r5
   d870c:	f1a1 0714 	sub.w	r7, r1, #20
   d8710:	f1a2 050c 	sub.w	r5, r2, #12
// spark::Vector
template<typename T, typename AllocatorT>
inline spark::Vector<T, AllocatorT>::Vector() :
        data_(nullptr),
        size_(0),
        capacity_(0) {
   d8714:	2600      	movs	r6, #0
        if (dest > p && dest < end) {
            // Move elements in reverse order
            --p;
            --end;
            dest += end - p - 1;
            for (; end != p; --end, --dest) {
   d8716:	f1a5 0308 	sub.w	r3, r5, #8
   d871a:	429f      	cmp	r7, r3
   d871c:	d037      	beq.n	d878e <_ZN5spark6VectorINS_6detail9LogFilter4NodeENS_16DefaultAllocatorEE4moveIS3_Li0EEEvPS3_S7_S7_+0x96>
                new(dest) T(std::move(*end));
   d871e:	b184      	cbz	r4, d8742 <_ZN5spark6VectorINS_6detail9LogFilter4NodeENS_16DefaultAllocatorEE4moveIS3_Li0EEEvPS3_S7_S7_+0x4a>
    |
    `- aa (error) - b (warn)
*/

// spark::detail::LogFilter
struct spark::detail::LogFilter::Node {
   d8720:	f855 3c08 	ldr.w	r3, [r5, #-8]
   d8724:	6023      	str	r3, [r4, #0]
   d8726:	f835 3c04 	ldrh.w	r3, [r5, #-4]
   d872a:	80a3      	strh	r3, [r4, #4]
   d872c:	f935 3c02 	ldrsh.w	r3, [r5, #-2]
   d8730:	80e3      	strh	r3, [r4, #6]
// spark::Vector
template<typename T, typename AllocatorT>
inline spark::Vector<T, AllocatorT>::Vector() :
        data_(nullptr),
        size_(0),
        capacity_(0) {
   d8732:	60a6      	str	r6, [r4, #8]
   d8734:	60e6      	str	r6, [r4, #12]
   d8736:	6126      	str	r6, [r4, #16]
    }
}

template<typename T, typename AllocatorT>
inline spark::Vector<T, AllocatorT>::Vector(Vector<T, AllocatorT>&& vector) : Vector() {
    swap(*this, vector);
   d8738:	4629      	mov	r1, r5
   d873a:	f104 0008 	add.w	r0, r4, #8
   d873e:	f7ff ffc4 	bl	d86ca <_ZN5spark4swapINS_17LogCategoryFilterENS_16DefaultAllocatorEEEvRNS_6VectorIT_T0_EES7_>
   d8742:	4628      	mov	r0, r5
   d8744:	f7ff fe32 	bl	d83ac <_ZN5spark6VectorINS_6detail9LogFilter4NodeENS_16DefaultAllocatorEED1Ev>
        if (dest > p && dest < end) {
            // Move elements in reverse order
            --p;
            --end;
            dest += end - p - 1;
            for (; end != p; --end, --dest) {
   d8748:	3c14      	subs	r4, #20
   d874a:	3d14      	subs	r5, #20
   d874c:	e7e3      	b.n	d8716 <_ZN5spark6VectorINS_6detail9LogFilter4NodeENS_16DefaultAllocatorEE4moveIS3_Li0EEEvPS3_S7_S7_+0x1e>
                new(dest) T(std::move(*end));
                end->~T();
            }
        } else if (dest != p) {
   d874e:	d01e      	beq.n	d878e <_ZN5spark6VectorINS_6detail9LogFilter4NodeENS_16DefaultAllocatorEE4moveIS3_Li0EEEvPS3_S7_S7_+0x96>
   d8750:	f101 0508 	add.w	r5, r1, #8
// spark::Vector
template<typename T, typename AllocatorT>
inline spark::Vector<T, AllocatorT>::Vector() :
        data_(nullptr),
        size_(0),
        capacity_(0) {
   d8754:	2700      	movs	r7, #0
            for (; end != p; --end, --dest) {
                new(dest) T(std::move(*end));
                end->~T();
            }
        } else if (dest != p) {
            for (; p != end; ++p, ++dest) {
   d8756:	f1a5 0308 	sub.w	r3, r5, #8
   d875a:	429e      	cmp	r6, r3
   d875c:	d017      	beq.n	d878e <_ZN5spark6VectorINS_6detail9LogFilter4NodeENS_16DefaultAllocatorEE4moveIS3_Li0EEEvPS3_S7_S7_+0x96>
                new(dest) T(std::move(*p));
   d875e:	b184      	cbz	r4, d8782 <_ZN5spark6VectorINS_6detail9LogFilter4NodeENS_16DefaultAllocatorEE4moveIS3_Li0EEEvPS3_S7_S7_+0x8a>
   d8760:	f855 3c08 	ldr.w	r3, [r5, #-8]
   d8764:	6023      	str	r3, [r4, #0]
   d8766:	f835 3c04 	ldrh.w	r3, [r5, #-4]
   d876a:	80a3      	strh	r3, [r4, #4]
   d876c:	f935 3c02 	ldrsh.w	r3, [r5, #-2]
   d8770:	80e3      	strh	r3, [r4, #6]
// spark::Vector
template<typename T, typename AllocatorT>
inline spark::Vector<T, AllocatorT>::Vector() :
        data_(nullptr),
        size_(0),
        capacity_(0) {
   d8772:	60a7      	str	r7, [r4, #8]
   d8774:	60e7      	str	r7, [r4, #12]
   d8776:	6127      	str	r7, [r4, #16]
    }
}

template<typename T, typename AllocatorT>
inline spark::Vector<T, AllocatorT>::Vector(Vector<T, AllocatorT>&& vector) : Vector() {
    swap(*this, vector);
   d8778:	4629      	mov	r1, r5
   d877a:	f104 0008 	add.w	r0, r4, #8
   d877e:	f7ff ffa4 	bl	d86ca <_ZN5spark4swapINS_17LogCategoryFilterENS_16DefaultAllocatorEEEvRNS_6VectorIT_T0_EES7_>
   d8782:	4628      	mov	r0, r5
   d8784:	f7ff fe12 	bl	d83ac <_ZN5spark6VectorINS_6detail9LogFilter4NodeENS_16DefaultAllocatorEED1Ev>
            for (; end != p; --end, --dest) {
                new(dest) T(std::move(*end));
                end->~T();
            }
        } else if (dest != p) {
            for (; p != end; ++p, ++dest) {
   d8788:	3414      	adds	r4, #20
   d878a:	3514      	adds	r5, #20
   d878c:	e7e3      	b.n	d8756 <_ZN5spark6VectorINS_6detail9LogFilter4NodeENS_16DefaultAllocatorEE4moveIS3_Li0EEEvPS3_S7_S7_+0x5e>
   d878e:	bdf8      	pop	{r3, r4, r5, r6, r7, pc}

000d8790 <_ZN5spark6VectorIPNS_10LogHandlerENS_16DefaultAllocatorEE6insertEiS2_>:
inline bool spark::Vector<T, AllocatorT>::prepend(const Vector<T, AllocatorT> &vector) {
    return insert(0, vector);
}

template<typename T, typename AllocatorT>
inline bool spark::Vector<T, AllocatorT>::insert(int i, T value) {
   d8790:	b5f8      	push	{r3, r4, r5, r6, r7, lr}
    if (size_ + 1 > capacity_ && !realloc(size_ + 1)) {
   d8792:	6845      	ldr	r5, [r0, #4]
   d8794:	6883      	ldr	r3, [r0, #8]
   d8796:	429d      	cmp	r5, r3
inline bool spark::Vector<T, AllocatorT>::prepend(const Vector<T, AllocatorT> &vector) {
    return insert(0, vector);
}

template<typename T, typename AllocatorT>
inline bool spark::Vector<T, AllocatorT>::insert(int i, T value) {
   d8798:	4604      	mov	r4, r0
   d879a:	460e      	mov	r6, r1
   d879c:	4617      	mov	r7, r2
    if (size_ + 1 > capacity_ && !realloc(size_ + 1)) {
   d879e:	db0e      	blt.n	d87be <_ZN5spark6VectorIPNS_10LogHandlerENS_16DefaultAllocatorEE6insertEiS2_+0x2e>
   d87a0:	3501      	adds	r5, #1
    int size_, capacity_;

    template<PARTICLE_VECTOR_ENABLE_IF_TRIVIALLY_COPYABLE(T)>
    bool realloc(int n) {
        T* d = nullptr;
        if (n > 0) {
   d87a2:	2d00      	cmp	r5, #0
   d87a4:	dd05      	ble.n	d87b2 <_ZN5spark6VectorIPNS_10LogHandlerENS_16DefaultAllocatorEE6insertEiS2_+0x22>
inline void* spark::DefaultAllocator::malloc(size_t size) {
    return ::malloc(size);
}

inline void* spark::DefaultAllocator::realloc(void* ptr, size_t size) {
    return ::realloc(ptr, size);
   d87a6:	00a9      	lsls	r1, r5, #2
   d87a8:	6800      	ldr	r0, [r0, #0]
   d87aa:	f7fd fe57 	bl	d645c <realloc>
    template<PARTICLE_VECTOR_ENABLE_IF_TRIVIALLY_COPYABLE(T)>
    bool realloc(int n) {
        T* d = nullptr;
        if (n > 0) {
            d = (T*)AllocatorT::realloc(data_, n * sizeof(T));
            if (!d) {
   d87ae:	b920      	cbnz	r0, d87ba <_ZN5spark6VectorIPNS_10LogHandlerENS_16DefaultAllocatorEE6insertEiS2_+0x2a>
   d87b0:	bdf8      	pop	{r3, r4, r5, r6, r7, pc}
inline void* spark::DefaultAllocator::realloc(void* ptr, size_t size) {
    return ::realloc(ptr, size);
}

inline void spark::DefaultAllocator::free(void* ptr) {
    ::free(ptr);
   d87b2:	6800      	ldr	r0, [r0, #0]
   d87b4:	f7fd fe4a 	bl	d644c <free>
    T* data_;
    int size_, capacity_;

    template<PARTICLE_VECTOR_ENABLE_IF_TRIVIALLY_COPYABLE(T)>
    bool realloc(int n) {
        T* d = nullptr;
   d87b8:	2000      	movs	r0, #0
                return false;
            }
        } else {
            AllocatorT::free(data_);
        }
        data_ = d;
   d87ba:	6020      	str	r0, [r4, #0]
        capacity_ = n;
   d87bc:	60a5      	str	r5, [r4, #8]
template<typename T, typename AllocatorT>
inline bool spark::Vector<T, AllocatorT>::insert(int i, T value) {
    if (size_ + 1 > capacity_ && !realloc(size_ + 1)) {
        return false;
    }
    T* const p = data_ + i;
   d87be:	6825      	ldr	r5, [r4, #0]
        }
    }

    template<PARTICLE_VECTOR_ENABLE_IF_TRIVIALLY_COPYABLE(T)>
    static void move(T* dest, const T* p, const T* end) {
        ::memmove(dest, p, (end - p) * sizeof(T));
   d87c0:	6862      	ldr	r2, [r4, #4]
template<typename T, typename AllocatorT>
inline bool spark::Vector<T, AllocatorT>::insert(int i, T value) {
    if (size_ + 1 > capacity_ && !realloc(size_ + 1)) {
        return false;
    }
    T* const p = data_ + i;
   d87c2:	eb05 0186 	add.w	r1, r5, r6, lsl #2
        }
    }

    template<PARTICLE_VECTOR_ENABLE_IF_TRIVIALLY_COPYABLE(T)>
    static void move(T* dest, const T* p, const T* end) {
        ::memmove(dest, p, (end - p) * sizeof(T));
   d87c6:	eb05 0282 	add.w	r2, r5, r2, lsl #2
   d87ca:	1a52      	subs	r2, r2, r1
   d87cc:	1d08      	adds	r0, r1, #4
   d87ce:	f002 f8c3 	bl	da958 <memmove>
    if (size_ + 1 > capacity_ && !realloc(size_ + 1)) {
        return false;
    }
    T* const p = data_ + i;
    move(p + 1, p, data_ + size_);
    new(p) T(std::move(value));
   d87d2:	f845 7026 	str.w	r7, [r5, r6, lsl #2]
    ++size_;
   d87d6:	6863      	ldr	r3, [r4, #4]
   d87d8:	3301      	adds	r3, #1
   d87da:	6063      	str	r3, [r4, #4]
   d87dc:	2001      	movs	r0, #1
    return true;
}
   d87de:	bdf8      	pop	{r3, r4, r5, r6, r7, pc}

000d87e0 <_ZN5spark10LogManager10addHandlerEPNS_10LogHandlerE>:
         destroyFactoryHandlers();
    }
#endif
}

bool spark::LogManager::addHandler(LogHandler *handler) {
   d87e0:	b537      	push	{r0, r1, r2, r4, r5, lr}
   d87e2:	4604      	mov	r4, r0
    LOG_WITH_LOCK(mutex_) {
   d87e4:	3024      	adds	r0, #36	; 0x24
         destroyFactoryHandlers();
    }
#endif
}

bool spark::LogManager::addHandler(LogHandler *handler) {
   d87e6:	460d      	mov	r5, r1
    class lock_guard
    {
    public:
      typedef _Mutex mutex_type;

      explicit lock_guard(mutex_type& __m) : _M_device(__m)
   d87e8:	9001      	str	r0, [sp, #4]
      { _M_device.lock(); }
   d87ea:	f7ff fc39 	bl	d8060 <_ZN14RecursiveMutex4lockEv>
    return p - data_;
}

template<typename T, typename AllocatorT>
inline bool spark::Vector<T, AllocatorT>::contains(const T &value) const {
    return find(data_, data_ + size_, value);
   d87ee:	6823      	ldr	r3, [r4, #0]
   d87f0:	6861      	ldr	r1, [r4, #4]
   d87f2:	eb03 0081 	add.w	r0, r3, r1, lsl #2
            }
        }
    }

    static T* find(T* p, const T* end, const T& value) {
        for (; p != end; ++p) {
   d87f6:	4283      	cmp	r3, r0
   d87f8:	461a      	mov	r2, r3
   d87fa:	d009      	beq.n	d8810 <_ZN5spark10LogManager10addHandlerEPNS_10LogHandlerE+0x30>
            if (*p == value) {
   d87fc:	6812      	ldr	r2, [r2, #0]
   d87fe:	42aa      	cmp	r2, r5
   d8800:	f103 0304 	add.w	r3, r3, #4
   d8804:	d1f7      	bne.n	d87f6 <_ZN5spark10LogManager10addHandlerEPNS_10LogHandlerE+0x16>
    LOG_WITH_LOCK(mutex_) {
        if (activeHandlers_.contains(handler) || !activeHandlers_.append(handler)) {
            return false;
   d8806:	a801      	add	r0, sp, #4
   d8808:	f7ff fe2a 	bl	d8460 <_ZNSt10lock_guardI14RecursiveMutexED1Ev>
   d880c:	2500      	movs	r5, #0
   d880e:	e00e      	b.n	d882e <_ZN5spark10LogManager10addHandlerEPNS_10LogHandlerE+0x4e>
    AllocatorT::free(data_);
}

template<typename T, typename AllocatorT>
inline bool spark::Vector<T, AllocatorT>::append(T value) {
    return insert(size_, std::move(value));
   d8810:	462a      	mov	r2, r5
   d8812:	4620      	mov	r0, r4
   d8814:	f7ff ffbc 	bl	d8790 <_ZN5spark6VectorIPNS_10LogHandlerENS_16DefaultAllocatorEE6insertEiS2_>
#endif
}

bool spark::LogManager::addHandler(LogHandler *handler) {
    LOG_WITH_LOCK(mutex_) {
        if (activeHandlers_.contains(handler) || !activeHandlers_.append(handler)) {
   d8818:	4605      	mov	r5, r0
   d881a:	2800      	cmp	r0, #0
   d881c:	d0f3      	beq.n	d8806 <_ZN5spark10LogManager10addHandlerEPNS_10LogHandlerE+0x26>
            return false;
        }
        if (activeHandlers_.size() == 1) {
   d881e:	6863      	ldr	r3, [r4, #4]
   d8820:	2b01      	cmp	r3, #1
   d8822:	d101      	bne.n	d8828 <_ZN5spark10LogManager10addHandlerEPNS_10LogHandlerE+0x48>
            setSystemCallbacks();
   d8824:	f7ff fd10 	bl	d8248 <_ZN5spark10LogManager18setSystemCallbacksEv>
    }
#endif
}

bool spark::LogManager::addHandler(LogHandler *handler) {
    LOG_WITH_LOCK(mutex_) {
   d8828:	a801      	add	r0, sp, #4
   d882a:	f7ff fe19 	bl	d8460 <_ZNSt10lock_guardI14RecursiveMutexED1Ev>
        if (activeHandlers_.size() == 1) {
            setSystemCallbacks();
        }
    }
    return true;
}
   d882e:	4628      	mov	r0, r5
   d8830:	b003      	add	sp, #12
   d8832:	bd30      	pop	{r4, r5, pc}

000d8834 <_ZN5spark6VectorI6StringNS_16DefaultAllocatorEE4moveIS1_Li0EEEvPS1_S5_S5_>:
        ::memmove(dest, p, (end - p) * sizeof(T));
    }

    template<PARTICLE_VECTOR_ENABLE_IF_NOT_TRIVIALLY_COPYABLE(T)>
    static void move(T* dest, T* p, T* end) {
        if (dest > p && dest < end) {
   d8834:	4288      	cmp	r0, r1
    static void move(T* dest, const T* p, const T* end) {
        ::memmove(dest, p, (end - p) * sizeof(T));
    }

    template<PARTICLE_VECTOR_ENABLE_IF_NOT_TRIVIALLY_COPYABLE(T)>
    static void move(T* dest, T* p, T* end) {
   d8836:	b5f8      	push	{r3, r4, r5, r6, r7, lr}
   d8838:	4606      	mov	r6, r0
   d883a:	460c      	mov	r4, r1
   d883c:	4615      	mov	r5, r2
        if (dest > p && dest < end) {
   d883e:	d914      	bls.n	d886a <_ZN5spark6VectorI6StringNS_16DefaultAllocatorEE4moveIS1_Li0EEEvPS1_S5_S5_+0x36>
   d8840:	4290      	cmp	r0, r2
   d8842:	d213      	bcs.n	d886c <_ZN5spark6VectorI6StringNS_16DefaultAllocatorEE4moveIS1_Li0EEEvPS1_S5_S5_+0x38>
            // Move elements in reverse order
            --p;
            --end;
   d8844:	f1a2 0510 	sub.w	r5, r2, #16
            dest += end - p - 1;
   d8848:	1a6c      	subs	r4, r5, r1
   d884a:	f1a1 0710 	sub.w	r7, r1, #16
   d884e:	4404      	add	r4, r0
            for (; end != p; --end, --dest) {
   d8850:	42af      	cmp	r7, r5
   d8852:	d018      	beq.n	d8886 <_ZN5spark6VectorI6StringNS_16DefaultAllocatorEE4moveIS1_Li0EEEvPS1_S5_S5_+0x52>
                new(dest) T(std::move(*end));
   d8854:	b11c      	cbz	r4, d885e <_ZN5spark6VectorI6StringNS_16DefaultAllocatorEE4moveIS1_Li0EEEvPS1_S5_S5_+0x2a>
   d8856:	4629      	mov	r1, r5
   d8858:	4620      	mov	r0, r4
   d885a:	f7fd fe87 	bl	d656c <_ZN6StringC1EOS_>
                end->~T();
   d885e:	4628      	mov	r0, r5
   d8860:	f7fd fe94 	bl	d658c <_ZN6StringD1Ev>
        if (dest > p && dest < end) {
            // Move elements in reverse order
            --p;
            --end;
            dest += end - p - 1;
            for (; end != p; --end, --dest) {
   d8864:	3d10      	subs	r5, #16
   d8866:	3c10      	subs	r4, #16
   d8868:	e7f2      	b.n	d8850 <_ZN5spark6VectorI6StringNS_16DefaultAllocatorEE4moveIS1_Li0EEEvPS1_S5_S5_+0x1c>
                new(dest) T(std::move(*end));
                end->~T();
            }
        } else if (dest != p) {
   d886a:	d00c      	beq.n	d8886 <_ZN5spark6VectorI6StringNS_16DefaultAllocatorEE4moveIS1_Li0EEEvPS1_S5_S5_+0x52>
            for (; p != end; ++p, ++dest) {
   d886c:	42ac      	cmp	r4, r5
   d886e:	d00a      	beq.n	d8886 <_ZN5spark6VectorI6StringNS_16DefaultAllocatorEE4moveIS1_Li0EEEvPS1_S5_S5_+0x52>
                new(dest) T(std::move(*p));
   d8870:	b11e      	cbz	r6, d887a <_ZN5spark6VectorI6StringNS_16DefaultAllocatorEE4moveIS1_Li0EEEvPS1_S5_S5_+0x46>
   d8872:	4621      	mov	r1, r4
   d8874:	4630      	mov	r0, r6
   d8876:	f7fd fe79 	bl	d656c <_ZN6StringC1EOS_>
                p->~T();
   d887a:	4620      	mov	r0, r4
   d887c:	f7fd fe86 	bl	d658c <_ZN6StringD1Ev>
            for (; end != p; --end, --dest) {
                new(dest) T(std::move(*end));
                end->~T();
            }
        } else if (dest != p) {
            for (; p != end; ++p, ++dest) {
   d8880:	3410      	adds	r4, #16
   d8882:	3610      	adds	r6, #16
   d8884:	e7f2      	b.n	d886c <_ZN5spark6VectorI6StringNS_16DefaultAllocatorEE4moveIS1_Li0EEEvPS1_S5_S5_+0x38>
   d8886:	bdf8      	pop	{r3, r4, r5, r6, r7, pc}

000d8888 <_ZN5spark6VectorI6StringNS_16DefaultAllocatorEE7reallocIS1_Li0EEEbi>:
        capacity_ = n;
        return true;
    }

    template<PARTICLE_VECTOR_ENABLE_IF_NOT_TRIVIALLY_COPYABLE(T)>
    bool realloc(int n) {
   d8888:	b570      	push	{r4, r5, r6, lr}
        T* d = nullptr;
        if (n > 0) {
   d888a:	1e0e      	subs	r6, r1, #0
        capacity_ = n;
        return true;
    }

    template<PARTICLE_VECTOR_ENABLE_IF_NOT_TRIVIALLY_COPYABLE(T)>
    bool realloc(int n) {
   d888c:	4605      	mov	r5, r0
        T* d = nullptr;
        if (n > 0) {
   d888e:	dd0b      	ble.n	d88a8 <_ZN5spark6VectorI6StringNS_16DefaultAllocatorEE7reallocIS1_Li0EEEbi+0x20>

} // particle

// spark::DefaultAllocator
inline void* spark::DefaultAllocator::malloc(size_t size) {
    return ::malloc(size);
   d8890:	0130      	lsls	r0, r6, #4
   d8892:	f7fd fdd3 	bl	d643c <malloc>
    template<PARTICLE_VECTOR_ENABLE_IF_NOT_TRIVIALLY_COPYABLE(T)>
    bool realloc(int n) {
        T* d = nullptr;
        if (n > 0) {
            d = (T*)AllocatorT::malloc(n * sizeof(T));
            if (!d) {
   d8896:	4604      	mov	r4, r0
   d8898:	b170      	cbz	r0, d88b8 <_ZN5spark6VectorI6StringNS_16DefaultAllocatorEE7reallocIS1_Li0EEEbi+0x30>
                return false;
            }
            move(d, data_, data_ + size_);
   d889a:	e895 0006 	ldmia.w	r5, {r1, r2}
   d889e:	eb01 1202 	add.w	r2, r1, r2, lsl #4
   d88a2:	f7ff ffc7 	bl	d8834 <_ZN5spark6VectorI6StringNS_16DefaultAllocatorEE4moveIS1_Li0EEEvPS1_S5_S5_>
   d88a6:	e000      	b.n	d88aa <_ZN5spark6VectorI6StringNS_16DefaultAllocatorEE7reallocIS1_Li0EEEbi+0x22>
        return true;
    }

    template<PARTICLE_VECTOR_ENABLE_IF_NOT_TRIVIALLY_COPYABLE(T)>
    bool realloc(int n) {
        T* d = nullptr;
   d88a8:	2400      	movs	r4, #0
inline void* spark::DefaultAllocator::realloc(void* ptr, size_t size) {
    return ::realloc(ptr, size);
}

inline void spark::DefaultAllocator::free(void* ptr) {
    ::free(ptr);
   d88aa:	6828      	ldr	r0, [r5, #0]
   d88ac:	f7fd fdce 	bl	d644c <free>
                return false;
            }
            move(d, data_, data_ + size_);
        }
        AllocatorT::free(data_);
        data_ = d;
   d88b0:	602c      	str	r4, [r5, #0]
        capacity_ = n;
   d88b2:	60ae      	str	r6, [r5, #8]
        return true;
   d88b4:	2001      	movs	r0, #1
   d88b6:	bd70      	pop	{r4, r5, r6, pc}
    }
   d88b8:	bd70      	pop	{r4, r5, r6, pc}

000d88ba <_ZN5spark6detail9LogFilterC1E8LogLevelNS_6VectorINS_17LogCategoryFilterENS_16DefaultAllocatorEEE>:

spark::detail::LogFilter::LogFilter(LogLevel level) :
        level_(level) {
}

spark::detail::LogFilter::LogFilter(LogLevel level, LogCategoryFilters filters) :
   d88ba:	e92d 4ff0 	stmdb	sp!, {r4, r5, r6, r7, r8, r9, sl, fp, lr}
// spark::Vector
template<typename T, typename AllocatorT>
inline spark::Vector<T, AllocatorT>::Vector() :
        data_(nullptr),
        size_(0),
        capacity_(0) {
   d88be:	2300      	movs	r3, #0
   d88c0:	b095      	sub	sp, #84	; 0x54
   d88c2:	4692      	mov	sl, r2
        level_(LOG_LEVEL_NONE) { // Fallback level that will be used in case of construction errors
   d88c4:	2246      	movs	r2, #70	; 0x46
   d88c6:	6003      	str	r3, [r0, #0]
   d88c8:	6043      	str	r3, [r0, #4]
   d88ca:	6083      	str	r3, [r0, #8]
   d88cc:	60c3      	str	r3, [r0, #12]
   d88ce:	6103      	str	r3, [r0, #16]
   d88d0:	6143      	str	r3, [r0, #20]
   d88d2:	7602      	strb	r2, [r0, #24]

spark::detail::LogFilter::LogFilter(LogLevel level) :
        level_(level) {
}

spark::detail::LogFilter::LogFilter(LogLevel level, LogCategoryFilters filters) :
   d88d4:	9102      	str	r1, [sp, #8]
   d88d6:	f8da 1004 	ldr.w	r1, [sl, #4]
   d88da:	9308      	str	r3, [sp, #32]
    return size_ == 0;
}

template<typename T, typename AllocatorT>
inline bool spark::Vector<T, AllocatorT>::reserve(int n) {
    if (n > capacity_ && !realloc(n)) {
   d88dc:	4299      	cmp	r1, r3
   d88de:	4605      	mov	r5, r0
// spark::Vector
template<typename T, typename AllocatorT>
inline spark::Vector<T, AllocatorT>::Vector() :
        data_(nullptr),
        size_(0),
        capacity_(0) {
   d88e0:	9309      	str	r3, [sp, #36]	; 0x24
   d88e2:	930a      	str	r3, [sp, #40]	; 0x28
    return size_ == 0;
}

template<typename T, typename AllocatorT>
inline bool spark::Vector<T, AllocatorT>::reserve(int n) {
    if (n > capacity_ && !realloc(n)) {
   d88e4:	f340 809d 	ble.w	d8a22 <_ZN5spark6detail9LogFilterC1E8LogLevelNS_6VectorINS_17LogCategoryFilterENS_16DefaultAllocatorEEE+0x168>
   d88e8:	a808      	add	r0, sp, #32
   d88ea:	f7ff ffcd 	bl	d8888 <_ZN5spark6VectorI6StringNS_16DefaultAllocatorEE7reallocIS1_Li0EEEbi>
   d88ee:	2800      	cmp	r0, #0
   d88f0:	f040 8097 	bne.w	d8a22 <_ZN5spark6detail9LogFilterC1E8LogLevelNS_6VectorINS_17LogCategoryFilterENS_16DefaultAllocatorEEE+0x168>
   d88f4:	e08e      	b.n	d8a14 <_ZN5spark6detail9LogFilterC1E8LogLevelNS_6VectorINS_17LogCategoryFilterENS_16DefaultAllocatorEEE+0x15a>
    Vector<String> cats;
    if (!cats.reserve(filters.size())) {
        return;
    }
    for (LogCategoryFilter &filter: filters) {
        cats.append(std::move(filter.cat_));
   d88f6:	4621      	mov	r1, r4
   d88f8:	a80b      	add	r0, sp, #44	; 0x2c
   d88fa:	f7fd fe37 	bl	d656c <_ZN6StringC1EOS_>
    AllocatorT::free(data_);
}

template<typename T, typename AllocatorT>
inline bool spark::Vector<T, AllocatorT>::append(T value) {
    return insert(size_, std::move(value));
   d88fe:	a90b      	add	r1, sp, #44	; 0x2c
   d8900:	a80f      	add	r0, sp, #60	; 0x3c
   d8902:	9e09      	ldr	r6, [sp, #36]	; 0x24
   d8904:	f7fd fe32 	bl	d656c <_ZN6StringC1EOS_>
    return insert(0, vector);
}

template<typename T, typename AllocatorT>
inline bool spark::Vector<T, AllocatorT>::insert(int i, T value) {
    if (size_ + 1 > capacity_ && !realloc(size_ + 1)) {
   d8908:	9909      	ldr	r1, [sp, #36]	; 0x24
   d890a:	9b0a      	ldr	r3, [sp, #40]	; 0x28
   d890c:	4299      	cmp	r1, r3
   d890e:	f2c0 80ce 	blt.w	d8aae <_ZN5spark6detail9LogFilterC1E8LogLevelNS_6VectorINS_17LogCategoryFilterENS_16DefaultAllocatorEEE+0x1f4>
   d8912:	3101      	adds	r1, #1
   d8914:	a808      	add	r0, sp, #32
   d8916:	f7ff ffb7 	bl	d8888 <_ZN5spark6VectorI6StringNS_16DefaultAllocatorEE7reallocIS1_Li0EEEbi>
   d891a:	2800      	cmp	r0, #0
   d891c:	f040 80c7 	bne.w	d8aae <_ZN5spark6detail9LogFilterC1E8LogLevelNS_6VectorINS_17LogCategoryFilterENS_16DefaultAllocatorEEE+0x1f4>
    AllocatorT::free(data_);
}

template<typename T, typename AllocatorT>
inline bool spark::Vector<T, AllocatorT>::append(T value) {
    return insert(size_, std::move(value));
   d8920:	a80f      	add	r0, sp, #60	; 0x3c
   d8922:	f7fd fe33 	bl	d658c <_ZN6StringD1Ev>
   d8926:	a80b      	add	r0, sp, #44	; 0x2c
   d8928:	f7fd fe30 	bl	d658c <_ZN6StringD1Ev>
   d892c:	3414      	adds	r4, #20
    // Store category names
    Vector<String> cats;
    if (!cats.reserve(filters.size())) {
        return;
    }
    for (LogCategoryFilter &filter: filters) {
   d892e:	42a7      	cmp	r7, r4
   d8930:	d1e1      	bne.n	d88f6 <_ZN5spark6detail9LogFilterC1E8LogLevelNS_6VectorINS_17LogCategoryFilterENS_16DefaultAllocatorEEE+0x3c>
// spark::Vector
template<typename T, typename AllocatorT>
inline spark::Vector<T, AllocatorT>::Vector() :
        data_(nullptr),
        size_(0),
        capacity_(0) {
   d8932:	2600      	movs	r6, #0
   d8934:	960b      	str	r6, [sp, #44]	; 0x2c
   d8936:	960c      	str	r6, [sp, #48]	; 0x30
   d8938:	960d      	str	r6, [sp, #52]	; 0x34
        if (!category) {
            continue; // Invalid usage or string allocation error
        }
        Vector<Node> *pNodes = &nodes; // Root nodes
        const char *name = nullptr; // Subcategory name
        size_t size = 0; // Name length
   d893a:	46b1      	mov	r9, r6
    for (LogCategoryFilter &filter: filters) {
        cats.append(std::move(filter.cat_));
    }
    // Process category filters
    Vector<Node> nodes;
    for (int i = 0; i < cats.size(); ++i) {
   d893c:	9b09      	ldr	r3, [sp, #36]	; 0x24
   d893e:	429e      	cmp	r6, r3
   d8940:	f280 80a8 	bge.w	d8a94 <_ZN5spark6detail9LogFilterC1E8LogLevelNS_6VectorINS_17LogCategoryFilterENS_16DefaultAllocatorEEE+0x1da>
   d8944:	0133      	lsls	r3, r6, #4
   d8946:	9a08      	ldr	r2, [sp, #32]
   d8948:	58d3      	ldr	r3, [r2, r3]
        const char *category = cats.at(i).c_str();
   d894a:	9306      	str	r3, [sp, #24]
        if (!category) {
   d894c:	2b00      	cmp	r3, #0
   d894e:	f000 809f 	beq.w	d8a90 <_ZN5spark6detail9LogFilterC1E8LogLevelNS_6VectorINS_17LogCategoryFilterENS_16DefaultAllocatorEEE+0x1d6>
   d8952:	2314      	movs	r3, #20
   d8954:	4373      	muls	r3, r6
            continue; // Invalid usage or string allocation error
        }
        Vector<Node> *pNodes = &nodes; // Root nodes
        const char *name = nullptr; // Subcategory name
        size_t size = 0; // Name length
   d8956:	f8cd 901c 	str.w	r9, [sp, #28]
   d895a:	9301      	str	r3, [sp, #4]
    for (int i = 0; i < cats.size(); ++i) {
        const char *category = cats.at(i).c_str();
        if (!category) {
            continue; // Invalid usage or string allocation error
        }
        Vector<Node> *pNodes = &nodes; // Root nodes
   d895c:	ac0b      	add	r4, sp, #44	; 0x2c
        const char *name = nullptr; // Subcategory name
        size_t size = 0; // Name length
        while ((name = nextSubcategoryName(category, size))) {
   d895e:	a907      	add	r1, sp, #28
   d8960:	a806      	add	r0, sp, #24
   d8962:	f7ff fb2c 	bl	d7fbe <_ZN12_GLOBAL__N_119nextSubcategoryNameERPKcRj>
   d8966:	4607      	mov	r7, r0
   d8968:	2800      	cmp	r0, #0
   d896a:	f000 8091 	beq.w	d8a90 <_ZN5spark6detail9LogFilterC1E8LogLevelNS_6VectorINS_17LogCategoryFilterENS_16DefaultAllocatorEEE+0x1d6>
            bool found = false;
   d896e:	ab14      	add	r3, sp, #80	; 0x50
            const int index = nodeIndex(*pNodes, name, size, found);
   d8970:	4601      	mov	r1, r0
        }
        Vector<Node> *pNodes = &nodes; // Root nodes
        const char *name = nullptr; // Subcategory name
        size_t size = 0; // Name length
        while ((name = nextSubcategoryName(category, size))) {
            bool found = false;
   d8972:	f803 9d39 	strb.w	r9, [r3, #-57]!
            const int index = nodeIndex(*pNodes, name, size, found);
   d8976:	9a07      	ldr	r2, [sp, #28]
   d8978:	4620      	mov	r0, r4
   d897a:	f7ff fb8d 	bl	d8098 <_ZN5spark6detail9LogFilter9nodeIndexERKNS_6VectorINS1_4NodeENS_16DefaultAllocatorEEEPKcjRb>
            if (!found && !pNodes->insert(index, Node(name, size))) { // Add node
   d897e:	f89d 8017 	ldrb.w	r8, [sp, #23]
        Vector<Node> *pNodes = &nodes; // Root nodes
        const char *name = nullptr; // Subcategory name
        size_t size = 0; // Name length
        while ((name = nextSubcategoryName(category, size))) {
            bool found = false;
            const int index = nodeIndex(*pNodes, name, size, found);
   d8982:	9000      	str	r0, [sp, #0]
            if (!found && !pNodes->insert(index, Node(name, size))) { // Add node
   d8984:	f1b8 0f00 	cmp.w	r8, #0
   d8988:	d153      	bne.n	d8a32 <_ZN5spark6detail9LogFilterC1E8LogLevelNS_6VectorINS_17LogCategoryFilterENS_16DefaultAllocatorEEE+0x178>
   d898a:	f8bd 301c 	ldrh.w	r3, [sp, #28]
    Vector<Node> nodes; // Children nodes

    Node(const char *name, uint16_t size) :
            name(name),
            size(size),
            level(-1) {
   d898e:	f8ad 3040 	strh.w	r3, [sp, #64]	; 0x40
   d8992:	f64f 73ff 	movw	r3, #65535	; 0xffff
   d8996:	970f      	str	r7, [sp, #60]	; 0x3c
   d8998:	f8ad 3042 	strh.w	r3, [sp, #66]	; 0x42
   d899c:	f8cd 8044 	str.w	r8, [sp, #68]	; 0x44
   d89a0:	f8cd 8048 	str.w	r8, [sp, #72]	; 0x48
   d89a4:	f8cd 804c 	str.w	r8, [sp, #76]	; 0x4c
    return insert(0, vector);
}

template<typename T, typename AllocatorT>
inline bool spark::Vector<T, AllocatorT>::insert(int i, T value) {
    if (size_ + 1 > capacity_ && !realloc(size_ + 1)) {
   d89a8:	6867      	ldr	r7, [r4, #4]
   d89aa:	68a3      	ldr	r3, [r4, #8]
   d89ac:	429f      	cmp	r7, r3
   d89ae:	da4f      	bge.n	d8a50 <_ZN5spark6detail9LogFilterC1E8LogLevelNS_6VectorINS_17LogCategoryFilterENS_16DefaultAllocatorEEE+0x196>
        return false;
    }
    T* const p = data_ + i;
   d89b0:	9b00      	ldr	r3, [sp, #0]
   d89b2:	f8d4 b000 	ldr.w	fp, [r4]
    move(p + 1, p, data_ + size_);
   d89b6:	6861      	ldr	r1, [r4, #4]
template<typename T, typename AllocatorT>
inline bool spark::Vector<T, AllocatorT>::insert(int i, T value) {
    if (size_ + 1 > capacity_ && !realloc(size_ + 1)) {
        return false;
    }
    T* const p = data_ + i;
   d89b8:	2214      	movs	r2, #20
   d89ba:	4353      	muls	r3, r2
   d89bc:	eb0b 0703 	add.w	r7, fp, r3
    move(p + 1, p, data_ + size_);
   d89c0:	fb02 b201 	mla	r2, r2, r1, fp
   d89c4:	f107 0014 	add.w	r0, r7, #20
   d89c8:	4639      	mov	r1, r7
template<typename T, typename AllocatorT>
inline bool spark::Vector<T, AllocatorT>::insert(int i, T value) {
    if (size_ + 1 > capacity_ && !realloc(size_ + 1)) {
        return false;
    }
    T* const p = data_ + i;
   d89ca:	9303      	str	r3, [sp, #12]
    move(p + 1, p, data_ + size_);
   d89cc:	f7ff fe94 	bl	d86f8 <_ZN5spark6VectorINS_6detail9LogFilter4NodeENS_16DefaultAllocatorEE4moveIS3_Li0EEEvPS3_S7_S7_>
    new(p) T(std::move(value));
   d89d0:	b1a7      	cbz	r7, d89fc <_ZN5spark6detail9LogFilterC1E8LogLevelNS_6VectorINS_17LogCategoryFilterENS_16DefaultAllocatorEEE+0x142>
    |
    `- aa (error) - b (warn)
*/

// spark::detail::LogFilter
struct spark::detail::LogFilter::Node {
   d89d2:	9b03      	ldr	r3, [sp, #12]
   d89d4:	9a0f      	ldr	r2, [sp, #60]	; 0x3c
   d89d6:	f84b 2003 	str.w	r2, [fp, r3]
   d89da:	f8bd 3040 	ldrh.w	r3, [sp, #64]	; 0x40
   d89de:	80bb      	strh	r3, [r7, #4]
   d89e0:	f9bd 3042 	ldrsh.w	r3, [sp, #66]	; 0x42
   d89e4:	80fb      	strh	r3, [r7, #6]
// spark::Vector
template<typename T, typename AllocatorT>
inline spark::Vector<T, AllocatorT>::Vector() :
        data_(nullptr),
        size_(0),
        capacity_(0) {
   d89e6:	f8c7 9008 	str.w	r9, [r7, #8]
   d89ea:	f8c7 900c 	str.w	r9, [r7, #12]
   d89ee:	f8c7 9010 	str.w	r9, [r7, #16]
    }
}

template<typename T, typename AllocatorT>
inline spark::Vector<T, AllocatorT>::Vector(Vector<T, AllocatorT>&& vector) : Vector() {
    swap(*this, vector);
   d89f2:	a911      	add	r1, sp, #68	; 0x44
   d89f4:	f107 0008 	add.w	r0, r7, #8
   d89f8:	f7ff fe67 	bl	d86ca <_ZN5spark4swapINS_17LogCategoryFilterENS_16DefaultAllocatorEEEvRNS_6VectorIT_T0_EES7_>
        return false;
    }
    T* const p = data_ + i;
    move(p + 1, p, data_ + size_);
    new(p) T(std::move(value));
    ++size_;
   d89fc:	6863      	ldr	r3, [r4, #4]
   d89fe:	3301      	adds	r3, #1
   d8a00:	6063      	str	r3, [r4, #4]
   d8a02:	a811      	add	r0, sp, #68	; 0x44
   d8a04:	f7ff fcd2 	bl	d83ac <_ZN5spark6VectorINS_6detail9LogFilter4NodeENS_16DefaultAllocatorEED1Ev>
        const char *name = nullptr; // Subcategory name
        size_t size = 0; // Name length
        while ((name = nextSubcategoryName(category, size))) {
            bool found = false;
            const int index = nodeIndex(*pNodes, name, size, found);
            if (!found && !pNodes->insert(index, Node(name, size))) { // Add node
   d8a08:	f1b8 0f00 	cmp.w	r8, #0
   d8a0c:	d011      	beq.n	d8a32 <_ZN5spark6detail9LogFilterC1E8LogLevelNS_6VectorINS_17LogCategoryFilterENS_16DefaultAllocatorEEE+0x178>
    }
    for (LogCategoryFilter &filter: filters) {
        cats.append(std::move(filter.cat_));
    }
    // Process category filters
    Vector<Node> nodes;
   d8a0e:	a80b      	add	r0, sp, #44	; 0x2c
   d8a10:	f7ff fccc 	bl	d83ac <_ZN5spark6VectorINS_6detail9LogFilter4NodeENS_16DefaultAllocatorEED1Ev>
   d8a14:	a808      	add	r0, sp, #32
   d8a16:	f7ff fcdd 	bl	d83d4 <_ZN5spark6VectorI6StringNS_16DefaultAllocatorEED1Ev>
    }
    using std::swap;
    swap(cats_, cats);
    swap(nodes_, nodes);
    level_ = level;
}
   d8a1a:	4628      	mov	r0, r5
   d8a1c:	b015      	add	sp, #84	; 0x54
   d8a1e:	e8bd 8ff0 	ldmia.w	sp!, {r4, r5, r6, r7, r8, r9, sl, fp, pc}
   d8a22:	f8da 4000 	ldr.w	r4, [sl]
    return data_;
}

template<typename T, typename AllocatorT>
T* spark::Vector<T, AllocatorT>::end() {
    return data_ + size_;
   d8a26:	f8da 3004 	ldr.w	r3, [sl, #4]
   d8a2a:	2714      	movs	r7, #20
   d8a2c:	fb07 4703 	mla	r7, r7, r3, r4
   d8a30:	e77d      	b.n	d892e <_ZN5spark6detail9LogFilterC1E8LogLevelNS_6VectorINS_17LogCategoryFilterENS_16DefaultAllocatorEEE+0x74>
    return data_[size_ - 1];
}

template<typename T, typename AllocatorT>
inline T& spark::Vector<T, AllocatorT>::at(int i) {
    return data_[i];
   d8a32:	6823      	ldr	r3, [r4, #0]
   d8a34:	9a00      	ldr	r2, [sp, #0]
   d8a36:	2414      	movs	r4, #20
   d8a38:	fb04 3402 	mla	r4, r4, r2, r3
            const int index = nodeIndex(*pNodes, name, size, found);
            if (!found && !pNodes->insert(index, Node(name, size))) { // Add node
                return;
            }
            Node &node = pNodes->at(index);
            if (!*category) { // Check if it's last subcategory
   d8a3c:	9b06      	ldr	r3, [sp, #24]
   d8a3e:	781b      	ldrb	r3, [r3, #0]
   d8a40:	bb23      	cbnz	r3, d8a8c <_ZN5spark6detail9LogFilterC1E8LogLevelNS_6VectorINS_17LogCategoryFilterENS_16DefaultAllocatorEEE+0x1d2>
                node.level = filters.at(i).level_;
   d8a42:	f8da 3000 	ldr.w	r3, [sl]
   d8a46:	9a01      	ldr	r2, [sp, #4]
   d8a48:	4413      	add	r3, r2
   d8a4a:	7c1b      	ldrb	r3, [r3, #16]
   d8a4c:	80e3      	strh	r3, [r4, #6]
   d8a4e:	e01d      	b.n	d8a8c <_ZN5spark6detail9LogFilterC1E8LogLevelNS_6VectorINS_17LogCategoryFilterENS_16DefaultAllocatorEEE+0x1d2>
    return insert(0, vector);
}

template<typename T, typename AllocatorT>
inline bool spark::Vector<T, AllocatorT>::insert(int i, T value) {
    if (size_ + 1 > capacity_ && !realloc(size_ + 1)) {
   d8a50:	3701      	adds	r7, #1
    }

    template<PARTICLE_VECTOR_ENABLE_IF_NOT_TRIVIALLY_COPYABLE(T)>
    bool realloc(int n) {
        T* d = nullptr;
        if (n > 0) {
   d8a52:	2f00      	cmp	r7, #0
   d8a54:	dd0f      	ble.n	d8a76 <_ZN5spark6detail9LogFilterC1E8LogLevelNS_6VectorINS_17LogCategoryFilterENS_16DefaultAllocatorEEE+0x1bc>

} // particle

// spark::DefaultAllocator
inline void* spark::DefaultAllocator::malloc(size_t size) {
    return ::malloc(size);
   d8a56:	2314      	movs	r3, #20
   d8a58:	fb03 f007 	mul.w	r0, r3, r7
   d8a5c:	9303      	str	r3, [sp, #12]
   d8a5e:	f7fd fced 	bl	d643c <malloc>
    template<PARTICLE_VECTOR_ENABLE_IF_NOT_TRIVIALLY_COPYABLE(T)>
    bool realloc(int n) {
        T* d = nullptr;
        if (n > 0) {
            d = (T*)AllocatorT::malloc(n * sizeof(T));
            if (!d) {
   d8a62:	4683      	mov	fp, r0
   d8a64:	b178      	cbz	r0, d8a86 <_ZN5spark6detail9LogFilterC1E8LogLevelNS_6VectorINS_17LogCategoryFilterENS_16DefaultAllocatorEEE+0x1cc>
                return false;
            }
            move(d, data_, data_ + size_);
   d8a66:	e894 0006 	ldmia.w	r4, {r1, r2}
   d8a6a:	9b03      	ldr	r3, [sp, #12]
   d8a6c:	fb03 1202 	mla	r2, r3, r2, r1
   d8a70:	f7ff fe42 	bl	d86f8 <_ZN5spark6VectorINS_6detail9LogFilter4NodeENS_16DefaultAllocatorEE4moveIS3_Li0EEEvPS3_S7_S7_>
   d8a74:	e000      	b.n	d8a78 <_ZN5spark6detail9LogFilterC1E8LogLevelNS_6VectorINS_17LogCategoryFilterENS_16DefaultAllocatorEEE+0x1be>
        return true;
    }

    template<PARTICLE_VECTOR_ENABLE_IF_NOT_TRIVIALLY_COPYABLE(T)>
    bool realloc(int n) {
        T* d = nullptr;
   d8a76:	46c3      	mov	fp, r8
inline void* spark::DefaultAllocator::realloc(void* ptr, size_t size) {
    return ::realloc(ptr, size);
}

inline void spark::DefaultAllocator::free(void* ptr) {
    ::free(ptr);
   d8a78:	6820      	ldr	r0, [r4, #0]
   d8a7a:	f7fd fce7 	bl	d644c <free>
                return false;
            }
            move(d, data_, data_ + size_);
        }
        AllocatorT::free(data_);
        data_ = d;
   d8a7e:	f8c4 b000 	str.w	fp, [r4]
        capacity_ = n;
   d8a82:	60a7      	str	r7, [r4, #8]
   d8a84:	e794      	b.n	d89b0 <_ZN5spark6detail9LogFilterC1E8LogLevelNS_6VectorINS_17LogCategoryFilterENS_16DefaultAllocatorEEE+0xf6>
        const char *name = nullptr; // Subcategory name
        size_t size = 0; // Name length
        while ((name = nextSubcategoryName(category, size))) {
            bool found = false;
            const int index = nodeIndex(*pNodes, name, size, found);
            if (!found && !pNodes->insert(index, Node(name, size))) { // Add node
   d8a86:	f04f 0801 	mov.w	r8, #1
   d8a8a:	e7ba      	b.n	d8a02 <_ZN5spark6detail9LogFilterC1E8LogLevelNS_6VectorINS_17LogCategoryFilterENS_16DefaultAllocatorEEE+0x148>
            }
            Node &node = pNodes->at(index);
            if (!*category) { // Check if it's last subcategory
                node.level = filters.at(i).level_;
            }
            pNodes = &node.nodes;
   d8a8c:	3408      	adds	r4, #8
            continue; // Invalid usage or string allocation error
        }
        Vector<Node> *pNodes = &nodes; // Root nodes
        const char *name = nullptr; // Subcategory name
        size_t size = 0; // Name length
        while ((name = nextSubcategoryName(category, size))) {
   d8a8e:	e766      	b.n	d895e <_ZN5spark6detail9LogFilterC1E8LogLevelNS_6VectorINS_17LogCategoryFilterENS_16DefaultAllocatorEEE+0xa4>
    for (LogCategoryFilter &filter: filters) {
        cats.append(std::move(filter.cat_));
    }
    // Process category filters
    Vector<Node> nodes;
    for (int i = 0; i < cats.size(); ++i) {
   d8a90:	3601      	adds	r6, #1
   d8a92:	e753      	b.n	d893c <_ZN5spark6detail9LogFilterC1E8LogLevelNS_6VectorINS_17LogCategoryFilterENS_16DefaultAllocatorEEE+0x82>
            }
            pNodes = &node.nodes;
        }
    }
    using std::swap;
    swap(cats_, cats);
   d8a94:	a908      	add	r1, sp, #32
   d8a96:	4628      	mov	r0, r5
   d8a98:	f7ff fe17 	bl	d86ca <_ZN5spark4swapINS_17LogCategoryFilterENS_16DefaultAllocatorEEEvRNS_6VectorIT_T0_EES7_>
    swap(nodes_, nodes);
   d8a9c:	a90b      	add	r1, sp, #44	; 0x2c
   d8a9e:	f105 000c 	add.w	r0, r5, #12
   d8aa2:	f7ff fe12 	bl	d86ca <_ZN5spark4swapINS_17LogCategoryFilterENS_16DefaultAllocatorEEEvRNS_6VectorIT_T0_EES7_>
    level_ = level;
   d8aa6:	f89d 3008 	ldrb.w	r3, [sp, #8]
   d8aaa:	762b      	strb	r3, [r5, #24]
   d8aac:	e7af      	b.n	d8a0e <_ZN5spark6detail9LogFilterC1E8LogLevelNS_6VectorINS_17LogCategoryFilterENS_16DefaultAllocatorEEE+0x154>
template<typename T, typename AllocatorT>
inline bool spark::Vector<T, AllocatorT>::insert(int i, T value) {
    if (size_ + 1 > capacity_ && !realloc(size_ + 1)) {
        return false;
    }
    T* const p = data_ + i;
   d8aae:	9b08      	ldr	r3, [sp, #32]
    move(p + 1, p, data_ + size_);
   d8ab0:	9a09      	ldr	r2, [sp, #36]	; 0x24
template<typename T, typename AllocatorT>
inline bool spark::Vector<T, AllocatorT>::insert(int i, T value) {
    if (size_ + 1 > capacity_ && !realloc(size_ + 1)) {
        return false;
    }
    T* const p = data_ + i;
   d8ab2:	eb03 1606 	add.w	r6, r3, r6, lsl #4
    move(p + 1, p, data_ + size_);
   d8ab6:	eb03 1202 	add.w	r2, r3, r2, lsl #4
   d8aba:	4631      	mov	r1, r6
   d8abc:	f106 0010 	add.w	r0, r6, #16
   d8ac0:	f7ff feb8 	bl	d8834 <_ZN5spark6VectorI6StringNS_16DefaultAllocatorEE4moveIS1_Li0EEEvPS1_S5_S5_>
    new(p) T(std::move(value));
   d8ac4:	b11e      	cbz	r6, d8ace <_ZN5spark6detail9LogFilterC1E8LogLevelNS_6VectorINS_17LogCategoryFilterENS_16DefaultAllocatorEEE+0x214>
   d8ac6:	a90f      	add	r1, sp, #60	; 0x3c
   d8ac8:	4630      	mov	r0, r6
   d8aca:	f7fd fd4f 	bl	d656c <_ZN6StringC1EOS_>
    ++size_;
   d8ace:	9b09      	ldr	r3, [sp, #36]	; 0x24
   d8ad0:	3301      	adds	r3, #1
   d8ad2:	9309      	str	r3, [sp, #36]	; 0x24
   d8ad4:	e724      	b.n	d8920 <_ZN5spark6detail9LogFilterC1E8LogLevelNS_6VectorINS_17LogCategoryFilterENS_16DefaultAllocatorEEE+0x66>
	...

000d8ad8 <_ZN5spark10LogHandlerC1E8LogLevelNS_6VectorINS_17LogCategoryFilterENS_16DefaultAllocatorEEE>:
// spark::LogHandler
inline spark::LogHandler::LogHandler(LogLevel level) :
        filter_(level) {
}

inline spark::LogHandler::LogHandler(LogLevel level, LogCategoryFilters filters) :
   d8ad8:	b57f      	push	{r0, r1, r2, r3, r4, r5, r6, lr}
        filter_(level, filters) {
   d8ada:	4604      	mov	r4, r0
   d8adc:	4b09      	ldr	r3, [pc, #36]	; (d8b04 <_ZN5spark10LogHandlerC1E8LogLevelNS_6VectorINS_17LogCategoryFilterENS_16DefaultAllocatorEEE+0x2c>)
   d8ade:	f844 3b04 	str.w	r3, [r4], #4
// spark::LogHandler
inline spark::LogHandler::LogHandler(LogLevel level) :
        filter_(level) {
}

inline spark::LogHandler::LogHandler(LogLevel level, LogCategoryFilters filters) :
   d8ae2:	4605      	mov	r5, r0
   d8ae4:	460e      	mov	r6, r1
        filter_(level, filters) {
   d8ae6:	a801      	add	r0, sp, #4
   d8ae8:	4611      	mov	r1, r2
   d8aea:	f7fb feb0 	bl	d484e <_ZN5spark6VectorINS_17LogCategoryFilterENS_16DefaultAllocatorEEC1ERKS3_>
   d8aee:	aa01      	add	r2, sp, #4
   d8af0:	4631      	mov	r1, r6
   d8af2:	4620      	mov	r0, r4
   d8af4:	f7ff fee1 	bl	d88ba <_ZN5spark6detail9LogFilterC1E8LogLevelNS_6VectorINS_17LogCategoryFilterENS_16DefaultAllocatorEEE>
   d8af8:	a801      	add	r0, sp, #4
   d8afa:	f7fb fe67 	bl	d47cc <_ZN5spark6VectorINS_17LogCategoryFilterENS_16DefaultAllocatorEED1Ev>
}
   d8afe:	4628      	mov	r0, r5
   d8b00:	b004      	add	sp, #16
   d8b02:	bd70      	pop	{r4, r5, r6, pc}
   d8b04:	000dac30 	.word	0x000dac30

000d8b08 <_ZN5spark24DefaultLogHandlerFactory13createHandlerEPKc8LogLevelNS_6VectorINS_17LogCategoryFilterENS_16DefaultAllocatorEEEP5PrintRKNS_9JSONValueE>:

#if Wiring_LogConfig

// spark::DefaultLogHandlerFactory
LogHandler* spark::DefaultLogHandlerFactory::createHandler(const char *type, LogLevel level, LogCategoryFilters filters,
            Print *stream, const JSONValue &params) {
   d8b08:	b5f0      	push	{r4, r5, r6, r7, lr}
   d8b0a:	460f      	mov	r7, r1
   d8b0c:	b08b      	sub	sp, #44	; 0x2c
    if (strcmp(type, "JSONStreamLogHandler") == 0) {
   d8b0e:	492b      	ldr	r1, [pc, #172]	; (d8bbc <_ZN5spark24DefaultLogHandlerFactory13createHandlerEPKc8LogLevelNS_6VectorINS_17LogCategoryFilterENS_16DefaultAllocatorEEEP5PrintRKNS_9JSONValueE+0xb4>)

#if Wiring_LogConfig

// spark::DefaultLogHandlerFactory
LogHandler* spark::DefaultLogHandlerFactory::createHandler(const char *type, LogLevel level, LogCategoryFilters filters,
            Print *stream, const JSONValue &params) {
   d8b10:	9c10      	ldr	r4, [sp, #64]	; 0x40
    if (strcmp(type, "JSONStreamLogHandler") == 0) {
   d8b12:	4638      	mov	r0, r7

#if Wiring_LogConfig

// spark::DefaultLogHandlerFactory
LogHandler* spark::DefaultLogHandlerFactory::createHandler(const char *type, LogLevel level, LogCategoryFilters filters,
            Print *stream, const JSONValue &params) {
   d8b14:	4616      	mov	r6, r2
   d8b16:	461d      	mov	r5, r3
    if (strcmp(type, "JSONStreamLogHandler") == 0) {
   d8b18:	f001 ff82 	bl	daa20 <strcmp>
   d8b1c:	bb28      	cbnz	r0, d8b6a <_ZN5spark24DefaultLogHandlerFactory13createHandlerEPKc8LogLevelNS_6VectorINS_17LogCategoryFilterENS_16DefaultAllocatorEEEP5PrintRKNS_9JSONValueE+0x62>
        if (!stream) {
   d8b1e:	2c00      	cmp	r4, #0
   d8b20:	d049      	beq.n	d8bb6 <_ZN5spark24DefaultLogHandlerFactory13createHandlerEPKc8LogLevelNS_6VectorINS_17LogCategoryFilterENS_16DefaultAllocatorEEEP5PrintRKNS_9JSONValueE+0xae>
            return nullptr; // Output stream is not specified
        }
        return new(std::nothrow) JSONStreamLogHandler(*stream, level, std::move(filters));
   d8b22:	4629      	mov	r1, r5
   d8b24:	a801      	add	r0, sp, #4
   d8b26:	f7ff fddd 	bl	d86e4 <_ZN5spark6VectorINS_17LogCategoryFilterENS_16DefaultAllocatorEEC1EOS3_>
   d8b2a:	4925      	ldr	r1, [pc, #148]	; (d8bc0 <_ZN5spark24DefaultLogHandlerFactory13createHandlerEPKc8LogLevelNS_6VectorINS_17LogCategoryFilterENS_16DefaultAllocatorEEEP5PrintRKNS_9JSONValueE+0xb8>)
   d8b2c:	2024      	movs	r0, #36	; 0x24
   d8b2e:	f001 fd91 	bl	da654 <_ZnwjRKSt9nothrow_t>
   d8b32:	4605      	mov	r5, r0
   d8b34:	b1b8      	cbz	r0, d8b66 <_ZN5spark24DefaultLogHandlerFactory13createHandlerEPKc8LogLevelNS_6VectorINS_17LogCategoryFilterENS_16DefaultAllocatorEEEP5PrintRKNS_9JSONValueE+0x5e>
    Print *stream_;
};

class JSONStreamLogHandler: public StreamLogHandler {
public:
    using StreamLogHandler::StreamLogHandler;
   d8b36:	a901      	add	r1, sp, #4
   d8b38:	a804      	add	r0, sp, #16
   d8b3a:	f7ff fdd3 	bl	d86e4 <_ZN5spark6VectorINS_17LogCategoryFilterENS_16DefaultAllocatorEEC1EOS3_>
}

// spark::StreamLogHandler
inline spark::StreamLogHandler::StreamLogHandler(Print &stream, LogLevel level, LogCategoryFilters filters) :
        LogHandler(level, filters),
        stream_(&stream) {
   d8b3e:	a904      	add	r1, sp, #16
   d8b40:	a807      	add	r0, sp, #28
   d8b42:	f7fb fe84 	bl	d484e <_ZN5spark6VectorINS_17LogCategoryFilterENS_16DefaultAllocatorEEC1ERKS3_>
   d8b46:	aa07      	add	r2, sp, #28
   d8b48:	4631      	mov	r1, r6
   d8b4a:	4628      	mov	r0, r5
   d8b4c:	f7ff ffc4 	bl	d8ad8 <_ZN5spark10LogHandlerC1E8LogLevelNS_6VectorINS_17LogCategoryFilterENS_16DefaultAllocatorEEE>
   d8b50:	a807      	add	r0, sp, #28
   d8b52:	f7fb fe3b 	bl	d47cc <_ZN5spark6VectorINS_17LogCategoryFilterENS_16DefaultAllocatorEED1Ev>
   d8b56:	4b1b      	ldr	r3, [pc, #108]	; (d8bc4 <_ZN5spark24DefaultLogHandlerFactory13createHandlerEPKc8LogLevelNS_6VectorINS_17LogCategoryFilterENS_16DefaultAllocatorEEEP5PrintRKNS_9JSONValueE+0xbc>)
   d8b58:	602b      	str	r3, [r5, #0]
   d8b5a:	622c      	str	r4, [r5, #32]
    Print *stream_;
};

class JSONStreamLogHandler: public StreamLogHandler {
public:
    using StreamLogHandler::StreamLogHandler;
   d8b5c:	a804      	add	r0, sp, #16
   d8b5e:	f7fb fe35 	bl	d47cc <_ZN5spark6VectorINS_17LogCategoryFilterENS_16DefaultAllocatorEED1Ev>
   d8b62:	4b19      	ldr	r3, [pc, #100]	; (d8bc8 <_ZN5spark24DefaultLogHandlerFactory13createHandlerEPKc8LogLevelNS_6VectorINS_17LogCategoryFilterENS_16DefaultAllocatorEEEP5PrintRKNS_9JSONValueE+0xc0>)
   d8b64:	602b      	str	r3, [r5, #0]
   d8b66:	a801      	add	r0, sp, #4
   d8b68:	e01f      	b.n	d8baa <_ZN5spark24DefaultLogHandlerFactory13createHandlerEPKc8LogLevelNS_6VectorINS_17LogCategoryFilterENS_16DefaultAllocatorEEEP5PrintRKNS_9JSONValueE+0xa2>
    } else if (strcmp(type, "StreamLogHandler") == 0) {
   d8b6a:	4918      	ldr	r1, [pc, #96]	; (d8bcc <_ZN5spark24DefaultLogHandlerFactory13createHandlerEPKc8LogLevelNS_6VectorINS_17LogCategoryFilterENS_16DefaultAllocatorEEEP5PrintRKNS_9JSONValueE+0xc4>)
   d8b6c:	4638      	mov	r0, r7
   d8b6e:	f001 ff57 	bl	daa20 <strcmp>
   d8b72:	b9f0      	cbnz	r0, d8bb2 <_ZN5spark24DefaultLogHandlerFactory13createHandlerEPKc8LogLevelNS_6VectorINS_17LogCategoryFilterENS_16DefaultAllocatorEEEP5PrintRKNS_9JSONValueE+0xaa>
        if (!stream) {
   d8b74:	b1fc      	cbz	r4, d8bb6 <_ZN5spark24DefaultLogHandlerFactory13createHandlerEPKc8LogLevelNS_6VectorINS_17LogCategoryFilterENS_16DefaultAllocatorEEEP5PrintRKNS_9JSONValueE+0xae>
            return nullptr;
        }
        return new(std::nothrow) StreamLogHandler(*stream, level, std::move(filters));
   d8b76:	4629      	mov	r1, r5
   d8b78:	a804      	add	r0, sp, #16
   d8b7a:	f7ff fdb3 	bl	d86e4 <_ZN5spark6VectorINS_17LogCategoryFilterENS_16DefaultAllocatorEEC1EOS3_>
   d8b7e:	4910      	ldr	r1, [pc, #64]	; (d8bc0 <_ZN5spark24DefaultLogHandlerFactory13createHandlerEPKc8LogLevelNS_6VectorINS_17LogCategoryFilterENS_16DefaultAllocatorEEEP5PrintRKNS_9JSONValueE+0xb8>)
   d8b80:	2024      	movs	r0, #36	; 0x24
   d8b82:	f001 fd67 	bl	da654 <_ZnwjRKSt9nothrow_t>
   d8b86:	4605      	mov	r5, r0
   d8b88:	b170      	cbz	r0, d8ba8 <_ZN5spark24DefaultLogHandlerFactory13createHandlerEPKc8LogLevelNS_6VectorINS_17LogCategoryFilterENS_16DefaultAllocatorEEEP5PrintRKNS_9JSONValueE+0xa0>
}

// spark::StreamLogHandler
inline spark::StreamLogHandler::StreamLogHandler(Print &stream, LogLevel level, LogCategoryFilters filters) :
        LogHandler(level, filters),
        stream_(&stream) {
   d8b8a:	a904      	add	r1, sp, #16
   d8b8c:	a807      	add	r0, sp, #28
   d8b8e:	f7fb fe5e 	bl	d484e <_ZN5spark6VectorINS_17LogCategoryFilterENS_16DefaultAllocatorEEC1ERKS3_>
   d8b92:	aa07      	add	r2, sp, #28
   d8b94:	4631      	mov	r1, r6
   d8b96:	4628      	mov	r0, r5
   d8b98:	f7ff ff9e 	bl	d8ad8 <_ZN5spark10LogHandlerC1E8LogLevelNS_6VectorINS_17LogCategoryFilterENS_16DefaultAllocatorEEE>
   d8b9c:	a807      	add	r0, sp, #28
   d8b9e:	f7fb fe15 	bl	d47cc <_ZN5spark6VectorINS_17LogCategoryFilterENS_16DefaultAllocatorEED1Ev>
   d8ba2:	4b08      	ldr	r3, [pc, #32]	; (d8bc4 <_ZN5spark24DefaultLogHandlerFactory13createHandlerEPKc8LogLevelNS_6VectorINS_17LogCategoryFilterENS_16DefaultAllocatorEEEP5PrintRKNS_9JSONValueE+0xbc>)
   d8ba4:	602b      	str	r3, [r5, #0]
   d8ba6:	622c      	str	r4, [r5, #32]
   d8ba8:	a804      	add	r0, sp, #16
   d8baa:	f7fb fe0f 	bl	d47cc <_ZN5spark6VectorINS_17LogCategoryFilterENS_16DefaultAllocatorEED1Ev>
   d8bae:	4628      	mov	r0, r5
   d8bb0:	e002      	b.n	d8bb8 <_ZN5spark24DefaultLogHandlerFactory13createHandlerEPKc8LogLevelNS_6VectorINS_17LogCategoryFilterENS_16DefaultAllocatorEEEP5PrintRKNS_9JSONValueE+0xb0>
// spark::DefaultLogHandlerFactory
LogHandler* spark::DefaultLogHandlerFactory::createHandler(const char *type, LogLevel level, LogCategoryFilters filters,
            Print *stream, const JSONValue &params) {
    if (strcmp(type, "JSONStreamLogHandler") == 0) {
        if (!stream) {
            return nullptr; // Output stream is not specified
   d8bb2:	2000      	movs	r0, #0
   d8bb4:	e000      	b.n	d8bb8 <_ZN5spark24DefaultLogHandlerFactory13createHandlerEPKc8LogLevelNS_6VectorINS_17LogCategoryFilterENS_16DefaultAllocatorEEEP5PrintRKNS_9JSONValueE+0xb0>
   d8bb6:	4620      	mov	r0, r4
            return nullptr;
        }
        return new(std::nothrow) StreamLogHandler(*stream, level, std::move(filters));
    }
    return nullptr; // Unknown handler type
}
   d8bb8:	b00b      	add	sp, #44	; 0x2c
   d8bba:	bdf0      	pop	{r4, r5, r6, r7, pc}
   d8bbc:	000dbca2 	.word	0x000dbca2
   d8bc0:	000dbf63 	.word	0x000dbf63
   d8bc4:	000dbd28 	.word	0x000dbd28
   d8bc8:	000dbc34 	.word	0x000dbc34
   d8bcc:	000dbca6 	.word	0x000dbca6

000d8bd0 <_GLOBAL__sub_I__ZN5spark3LogE>:
    // This handler doesn't support direct logging
}

// spark::Logger
inline spark::Logger::Logger(const char *name) :
        name_(name) {
   d8bd0:	4b01      	ldr	r3, [pc, #4]	; (d8bd8 <_GLOBAL__sub_I__ZN5spark3LogE+0x8>)
   d8bd2:	4a02      	ldr	r2, [pc, #8]	; (d8bdc <_GLOBAL__sub_I__ZN5spark3LogE+0xc>)
   d8bd4:	601a      	str	r2, [r3, #0]
   d8bd6:	4770      	bx	lr
   d8bd8:	2003e40c 	.word	0x2003e40c
   d8bdc:	000dbcb7 	.word	0x000dbcb7

000d8be0 <_ZN5spark16StreamLogHandler10logMessageEPKc8LogLevelS2_RK13LogAttributes>:
                return cmp < 0;
            }));
}

// spark::StreamLogHandler
void spark::StreamLogHandler::logMessage(const char *msg, LogLevel level, const char *category, const LogAttributes &attr) {
   d8be0:	e92d 47f0 	stmdb	sp!, {r4, r5, r6, r7, r8, r9, sl, lr}
   d8be4:	9d08      	ldr	r5, [sp, #32]
    // TODO: Move this check to a base class (see also JSONStreamLogHandler::logMessage())
#if PLATFORM_ID != PLATFORM_GCC
    if (stream_ == &Serial && Network.listening()) {
   d8be6:	f8d0 9020 	ldr.w	r9, [r0, #32]
                return cmp < 0;
            }));
}

// spark::StreamLogHandler
void spark::StreamLogHandler::logMessage(const char *msg, LogLevel level, const char *category, const LogAttributes &attr) {
   d8bea:	4604      	mov	r4, r0
   d8bec:	460e      	mov	r6, r1
   d8bee:	4617      	mov	r7, r2
   d8bf0:	4698      	mov	r8, r3
    // TODO: Move this check to a base class (see also JSONStreamLogHandler::logMessage())
#if PLATFORM_ID != PLATFORM_GCC
    if (stream_ == &Serial && Network.listening()) {
   d8bf2:	f000 fe31 	bl	d9858 <_Z16_fetch_usbserialv>
   d8bf6:	4581      	cmp	r9, r0
   d8bf8:	d105      	bne.n	d8c06 <_ZN5spark16StreamLogHandler10logMessageEPKc8LogLevelS2_RK13LogAttributes+0x26>
   d8bfa:	485a      	ldr	r0, [pc, #360]	; (d8d64 <_ZN5spark16StreamLogHandler10logMessageEPKc8LogLevelS2_RK13LogAttributes+0x184>)
   d8bfc:	f001 fae1 	bl	da1c2 <_ZN5spark12NetworkClass9listeningEv>
   d8c00:	2800      	cmp	r0, #0
   d8c02:	f040 80ac 	bne.w	d8d5e <_ZN5spark16StreamLogHandler10logMessageEPKc8LogLevelS2_RK13LogAttributes+0x17e>
        return; // Do not mix logging and serial console output
    }
#endif
    const char *s = nullptr;
    // Timestamp
    if (attr.has_time) {
   d8c06:	792b      	ldrb	r3, [r5, #4]
   d8c08:	071b      	lsls	r3, r3, #28
   d8c0a:	d505      	bpl.n	d8c18 <_ZN5spark16StreamLogHandler10logMessageEPKc8LogLevelS2_RK13LogAttributes+0x38>
    size_t println(const __FlashStringHelper*);

    template <typename... Args>
    inline size_t printf(const char* format, Args... args)
    {
        return this->printf_impl(false, format, args...);
   d8c0c:	696b      	ldr	r3, [r5, #20]
   d8c0e:	4a56      	ldr	r2, [pc, #344]	; (d8d68 <_ZN5spark16StreamLogHandler10logMessageEPKc8LogLevelS2_RK13LogAttributes+0x188>)
   d8c10:	6a20      	ldr	r0, [r4, #32]
   d8c12:	2100      	movs	r1, #0
   d8c14:	f7ff f985 	bl	d7f22 <_ZN5Print11printf_implEbPKcz>
        printf("%010u ", (unsigned)attr.time);
    }
    // Category
    if (category) {
   d8c18:	f1b8 0f00 	cmp.w	r8, #0
   d8c1c:	d00d      	beq.n	d8c3a <_ZN5spark16StreamLogHandler10logMessageEPKc8LogLevelS2_RK13LogAttributes+0x5a>
        write('[');
   d8c1e:	215b      	movs	r1, #91	; 0x5b
   d8c20:	4620      	mov	r0, r4
   d8c22:	f7ff fa2e 	bl	d8082 <_ZN5spark16StreamLogHandler5writeEc>
        write(category);
   d8c26:	4641      	mov	r1, r8
   d8c28:	4620      	mov	r0, r4
   d8c2a:	f7ff fa1c 	bl	d8066 <_ZN5spark16StreamLogHandler5writeEPKc>
        write("] ", 2);
   d8c2e:	6823      	ldr	r3, [r4, #0]
   d8c30:	494e      	ldr	r1, [pc, #312]	; (d8d6c <_ZN5spark16StreamLogHandler10logMessageEPKc8LogLevelS2_RK13LogAttributes+0x18c>)
   d8c32:	68db      	ldr	r3, [r3, #12]
   d8c34:	2202      	movs	r2, #2
   d8c36:	4620      	mov	r0, r4
   d8c38:	4798      	blx	r3
    }
    // Source file
    if (attr.has_file) {
   d8c3a:	792b      	ldrb	r3, [r5, #4]
   d8c3c:	07d9      	lsls	r1, r3, #31
   d8c3e:	d525      	bpl.n	d8c8c <_ZN5spark16StreamLogHandler10logMessageEPKc8LogLevelS2_RK13LogAttributes+0xac>
        s = extractFileName(attr.file); // Strip directory path
   d8c40:	f8d5 8008 	ldr.w	r8, [r5, #8]
    }
    return nullptr;
}

const char* extractFileName(const char *s) {
    const char *s1 = strrchr(s, '/');
   d8c44:	212f      	movs	r1, #47	; 0x2f
   d8c46:	4640      	mov	r0, r8
   d8c48:	f001 ff40 	bl	daacc <strrchr>
    if (s1) {
   d8c4c:	b108      	cbz	r0, d8c52 <_ZN5spark16StreamLogHandler10logMessageEPKc8LogLevelS2_RK13LogAttributes+0x72>
        return s1 + 1;
   d8c4e:	f100 0801 	add.w	r8, r0, #1
        write("] ", 2);
    }
    // Source file
    if (attr.has_file) {
        s = extractFileName(attr.file); // Strip directory path
        write(s); // File name
   d8c52:	4641      	mov	r1, r8
   d8c54:	4620      	mov	r0, r4
   d8c56:	f7ff fa06 	bl	d8066 <_ZN5spark16StreamLogHandler5writeEPKc>
        if (attr.has_line) {
   d8c5a:	792b      	ldrb	r3, [r5, #4]
   d8c5c:	079a      	lsls	r2, r3, #30
   d8c5e:	d509      	bpl.n	d8c74 <_ZN5spark16StreamLogHandler10logMessageEPKc8LogLevelS2_RK13LogAttributes+0x94>
            write(':');
   d8c60:	213a      	movs	r1, #58	; 0x3a
   d8c62:	4620      	mov	r0, r4
   d8c64:	f7ff fa0d 	bl	d8082 <_ZN5spark16StreamLogHandler5writeEc>
   d8c68:	68eb      	ldr	r3, [r5, #12]
   d8c6a:	4a41      	ldr	r2, [pc, #260]	; (d8d70 <_ZN5spark16StreamLogHandler10logMessageEPKc8LogLevelS2_RK13LogAttributes+0x190>)
   d8c6c:	6a20      	ldr	r0, [r4, #32]
   d8c6e:	2100      	movs	r1, #0
   d8c70:	f7ff f957 	bl	d7f22 <_ZN5Print11printf_implEbPKcz>
            printf("%d", (int)attr.line); // Line number
        }
        if (attr.has_function) {
   d8c74:	792b      	ldrb	r3, [r5, #4]
   d8c76:	f013 0f04 	tst.w	r3, #4
   d8c7a:	6823      	ldr	r3, [r4, #0]
            write(", ", 2);
   d8c7c:	bf18      	it	ne
   d8c7e:	493d      	ldrne	r1, [pc, #244]	; (d8d74 <_ZN5spark16StreamLogHandler10logMessageEPKc8LogLevelS2_RK13LogAttributes+0x194>)
   d8c80:	68db      	ldr	r3, [r3, #12]
        } else {
            write(": ", 2);
   d8c82:	bf08      	it	eq
   d8c84:	493c      	ldreq	r1, [pc, #240]	; (d8d78 <_ZN5spark16StreamLogHandler10logMessageEPKc8LogLevelS2_RK13LogAttributes+0x198>)
        if (attr.has_line) {
            write(':');
            printf("%d", (int)attr.line); // Line number
        }
        if (attr.has_function) {
            write(", ", 2);
   d8c86:	2202      	movs	r2, #2
        } else {
            write(": ", 2);
   d8c88:	4620      	mov	r0, r4
   d8c8a:	4798      	blx	r3
        }
    }
    // Function name
    if (attr.has_function) {
   d8c8c:	792b      	ldrb	r3, [r5, #4]
   d8c8e:	075b      	lsls	r3, r3, #29
   d8c90:	d518      	bpl.n	d8cc4 <_ZN5spark16StreamLogHandler10logMessageEPKc8LogLevelS2_RK13LogAttributes+0xe4>
        size_t n = 0;
        s = extractFuncName(attr.function, &n); // Strip argument and return types
   d8c92:	6929      	ldr	r1, [r5, #16]
   d8c94:	460a      	mov	r2, r1
    return s;
}

const char* extractFuncName(const char *s, size_t *size) {
    const char *s1 = s;
    for (; *s; ++s) {
   d8c96:	4613      	mov	r3, r2
   d8c98:	f813 0b01 	ldrb.w	r0, [r3], #1
   d8c9c:	b138      	cbz	r0, d8cae <_ZN5spark16StreamLogHandler10logMessageEPKc8LogLevelS2_RK13LogAttributes+0xce>
        if (*s == ' ') {
   d8c9e:	2820      	cmp	r0, #32
   d8ca0:	d101      	bne.n	d8ca6 <_ZN5spark16StreamLogHandler10logMessageEPKc8LogLevelS2_RK13LogAttributes+0xc6>
            s1 = s + 1; // Skip return type
   d8ca2:	4619      	mov	r1, r3
   d8ca4:	e001      	b.n	d8caa <_ZN5spark16StreamLogHandler10logMessageEPKc8LogLevelS2_RK13LogAttributes+0xca>
        } else if (*s == '(') {
   d8ca6:	2828      	cmp	r0, #40	; 0x28
   d8ca8:	d001      	beq.n	d8cae <_ZN5spark16StreamLogHandler10logMessageEPKc8LogLevelS2_RK13LogAttributes+0xce>
                return cmp < 0;
            }));
}

// spark::StreamLogHandler
void spark::StreamLogHandler::logMessage(const char *msg, LogLevel level, const char *category, const LogAttributes &attr) {
   d8caa:	461a      	mov	r2, r3
   d8cac:	e7f3      	b.n	d8c96 <_ZN5spark16StreamLogHandler10logMessageEPKc8LogLevelS2_RK13LogAttributes+0xb6>
    }
    // Function name
    if (attr.has_function) {
        size_t n = 0;
        s = extractFuncName(attr.function, &n); // Strip argument and return types
        write(s, n);
   d8cae:	6823      	ldr	r3, [r4, #0]
   d8cb0:	1a52      	subs	r2, r2, r1
   d8cb2:	68db      	ldr	r3, [r3, #12]
   d8cb4:	4620      	mov	r0, r4
   d8cb6:	4798      	blx	r3
        write("(): ", 4);
   d8cb8:	6823      	ldr	r3, [r4, #0]
   d8cba:	4930      	ldr	r1, [pc, #192]	; (d8d7c <_ZN5spark16StreamLogHandler10logMessageEPKc8LogLevelS2_RK13LogAttributes+0x19c>)
   d8cbc:	68db      	ldr	r3, [r3, #12]
   d8cbe:	2204      	movs	r2, #4
   d8cc0:	4620      	mov	r0, r4
   d8cc2:	4798      	blx	r3
inline LogLevel spark::LogHandler::level(const char *category) const {
    return filter_.level(category);
}

inline const char* spark::LogHandler::levelName(LogLevel level) {
    return log_level_name(level, nullptr);
   d8cc4:	2100      	movs	r1, #0
   d8cc6:	4638      	mov	r0, r7
   d8cc8:	f7fd fb14 	bl	d62f4 <log_level_name>
    }
    // Level
    s = levelName(level);
    write(s);
   d8ccc:	4601      	mov	r1, r0
   d8cce:	4620      	mov	r0, r4
   d8cd0:	f7ff f9c9 	bl	d8066 <_ZN5spark16StreamLogHandler5writeEPKc>
    write(": ", 2);
   d8cd4:	6823      	ldr	r3, [r4, #0]
   d8cd6:	4928      	ldr	r1, [pc, #160]	; (d8d78 <_ZN5spark16StreamLogHandler10logMessageEPKc8LogLevelS2_RK13LogAttributes+0x198>)
   d8cd8:	68db      	ldr	r3, [r3, #12]
   d8cda:	2202      	movs	r2, #2
   d8cdc:	4620      	mov	r0, r4
   d8cde:	4798      	blx	r3
    // Message
    if (msg) {
   d8ce0:	b11e      	cbz	r6, d8cea <_ZN5spark16StreamLogHandler10logMessageEPKc8LogLevelS2_RK13LogAttributes+0x10a>
        write(msg);
   d8ce2:	4631      	mov	r1, r6
   d8ce4:	4620      	mov	r0, r4
   d8ce6:	f7ff f9be 	bl	d8066 <_ZN5spark16StreamLogHandler5writeEPKc>
    }
    // Additional attributes
    if (attr.has_code || attr.has_details) {
   d8cea:	792b      	ldrb	r3, [r5, #4]
   d8cec:	f013 0f30 	tst.w	r3, #48	; 0x30
   d8cf0:	d02d      	beq.n	d8d4e <_ZN5spark16StreamLogHandler10logMessageEPKc8LogLevelS2_RK13LogAttributes+0x16e>
        write(" [", 2);
   d8cf2:	6823      	ldr	r3, [r4, #0]
   d8cf4:	4922      	ldr	r1, [pc, #136]	; (d8d80 <_ZN5spark16StreamLogHandler10logMessageEPKc8LogLevelS2_RK13LogAttributes+0x1a0>)
   d8cf6:	68db      	ldr	r3, [r3, #12]
   d8cf8:	4620      	mov	r0, r4
   d8cfa:	2202      	movs	r2, #2
   d8cfc:	4798      	blx	r3
        // Code
        if (attr.has_code) {
   d8cfe:	792b      	ldrb	r3, [r5, #4]
   d8d00:	06d8      	lsls	r0, r3, #27
   d8d02:	d50b      	bpl.n	d8d1c <_ZN5spark16StreamLogHandler10logMessageEPKc8LogLevelS2_RK13LogAttributes+0x13c>
            write("code = ", 7);
   d8d04:	6823      	ldr	r3, [r4, #0]
   d8d06:	491f      	ldr	r1, [pc, #124]	; (d8d84 <_ZN5spark16StreamLogHandler10logMessageEPKc8LogLevelS2_RK13LogAttributes+0x1a4>)
   d8d08:	68db      	ldr	r3, [r3, #12]
   d8d0a:	2207      	movs	r2, #7
   d8d0c:	4620      	mov	r0, r4
   d8d0e:	4798      	blx	r3
   d8d10:	69ab      	ldr	r3, [r5, #24]
   d8d12:	4a1d      	ldr	r2, [pc, #116]	; (d8d88 <_ZN5spark16StreamLogHandler10logMessageEPKc8LogLevelS2_RK13LogAttributes+0x1a8>)
   d8d14:	6a20      	ldr	r0, [r4, #32]
   d8d16:	2100      	movs	r1, #0
   d8d18:	f7ff f903 	bl	d7f22 <_ZN5Print11printf_implEbPKcz>
            printf("%" PRIiPTR, (intptr_t)attr.code);
        }
        // Details
        if (attr.has_details) {
   d8d1c:	792b      	ldrb	r3, [r5, #4]
   d8d1e:	0699      	lsls	r1, r3, #26
   d8d20:	d511      	bpl.n	d8d46 <_ZN5spark16StreamLogHandler10logMessageEPKc8LogLevelS2_RK13LogAttributes+0x166>
            if (attr.has_code) {
   d8d22:	06da      	lsls	r2, r3, #27
   d8d24:	d505      	bpl.n	d8d32 <_ZN5spark16StreamLogHandler10logMessageEPKc8LogLevelS2_RK13LogAttributes+0x152>
                write(", ", 2);
   d8d26:	6823      	ldr	r3, [r4, #0]
   d8d28:	4912      	ldr	r1, [pc, #72]	; (d8d74 <_ZN5spark16StreamLogHandler10logMessageEPKc8LogLevelS2_RK13LogAttributes+0x194>)
   d8d2a:	68db      	ldr	r3, [r3, #12]
   d8d2c:	2202      	movs	r2, #2
   d8d2e:	4620      	mov	r0, r4
   d8d30:	4798      	blx	r3
            }
            write("details = ", 10);
   d8d32:	6823      	ldr	r3, [r4, #0]
   d8d34:	4915      	ldr	r1, [pc, #84]	; (d8d8c <_ZN5spark16StreamLogHandler10logMessageEPKc8LogLevelS2_RK13LogAttributes+0x1ac>)
   d8d36:	68db      	ldr	r3, [r3, #12]
   d8d38:	4620      	mov	r0, r4
   d8d3a:	220a      	movs	r2, #10
   d8d3c:	4798      	blx	r3
            write(attr.details);
   d8d3e:	69e9      	ldr	r1, [r5, #28]
   d8d40:	4620      	mov	r0, r4
   d8d42:	f7ff f990 	bl	d8066 <_ZN5spark16StreamLogHandler5writeEPKc>
        }
        write(']');
   d8d46:	215d      	movs	r1, #93	; 0x5d
   d8d48:	4620      	mov	r0, r4
   d8d4a:	f7ff f99a 	bl	d8082 <_ZN5spark16StreamLogHandler5writeEc>
    }
    write("\r\n", 2);
   d8d4e:	6823      	ldr	r3, [r4, #0]
   d8d50:	490f      	ldr	r1, [pc, #60]	; (d8d90 <_ZN5spark16StreamLogHandler10logMessageEPKc8LogLevelS2_RK13LogAttributes+0x1b0>)
   d8d52:	68db      	ldr	r3, [r3, #12]
   d8d54:	4620      	mov	r0, r4
   d8d56:	2202      	movs	r2, #2
}
   d8d58:	e8bd 47f0 	ldmia.w	sp!, {r4, r5, r6, r7, r8, r9, sl, lr}
            write("details = ", 10);
            write(attr.details);
        }
        write(']');
    }
    write("\r\n", 2);
   d8d5c:	4718      	bx	r3
   d8d5e:	e8bd 87f0 	ldmia.w	sp!, {r4, r5, r6, r7, r8, r9, sl, pc}
   d8d62:	bf00      	nop
   d8d64:	2003e740 	.word	0x2003e740
   d8d68:	000dbcbb 	.word	0x000dbcbb
   d8d6c:	000dbcc2 	.word	0x000dbcc2
   d8d70:	000db31b 	.word	0x000db31b
   d8d74:	000dbcc5 	.word	0x000dbcc5
   d8d78:	000dbcca 	.word	0x000dbcca
   d8d7c:	000dbcc8 	.word	0x000dbcc8
   d8d80:	000dbccd 	.word	0x000dbccd
   d8d84:	000dbcd0 	.word	0x000dbcd0
   d8d88:	000dbcd8 	.word	0x000dbcd8
   d8d8c:	000dbcdb 	.word	0x000dbcdb
   d8d90:	000dbce6 	.word	0x000dbce6

000d8d94 <_ZN5spark20JSONStreamLogHandler10logMessageEPKc8LogLevelS2_RK13LogAttributes>:
}

// spark::JSONStreamLogHandler
void spark::JSONStreamLogHandler::logMessage(const char *msg, LogLevel level, const char *category, const LogAttributes &attr) {
   d8d94:	e92d 43f0 	stmdb	sp!, {r4, r5, r6, r7, r8, r9, lr}
   d8d98:	b085      	sub	sp, #20
   d8d9a:	f8d0 8020 	ldr.w	r8, [r0, #32]
   d8d9e:	9c0c      	ldr	r4, [sp, #48]	; 0x30
   d8da0:	4606      	mov	r6, r0
   d8da2:	460f      	mov	r7, r1
   d8da4:	4691      	mov	r9, r2
   d8da6:	461d      	mov	r5, r3
    // TODO: Move this check to a base class (see also StreamLogHandler::logMessage())
#if PLATFORM_ID != PLATFORM_GCC
    if (this->stream() == &Serial && Network.listening()) {
   d8da8:	f000 fd56 	bl	d9858 <_Z16_fetch_usbserialv>
   d8dac:	4580      	cmp	r8, r0
   d8dae:	d105      	bne.n	d8dbc <_ZN5spark20JSONStreamLogHandler10logMessageEPKc8LogLevelS2_RK13LogAttributes+0x28>
   d8db0:	484a      	ldr	r0, [pc, #296]	; (d8edc <_ZN5spark20JSONStreamLogHandler10logMessageEPKc8LogLevelS2_RK13LogAttributes+0x148>)
   d8db2:	f001 fa06 	bl	da1c2 <_ZN5spark12NetworkClass9listeningEv>
   d8db6:	2800      	cmp	r0, #0
   d8db8:	f040 808c 	bne.w	d8ed4 <_ZN5spark20JSONStreamLogHandler10logMessageEPKc8LogLevelS2_RK13LogAttributes+0x140>
   d8dbc:	6a33      	ldr	r3, [r6, #32]
    write(&c, 1);
}

// spark::JSONStreamWriter
inline spark::JSONStreamWriter::JSONStreamWriter(Print &stream) :
        strm_(stream) {
   d8dbe:	4a48      	ldr	r2, [pc, #288]	; (d8ee0 <_ZN5spark20JSONStreamLogHandler10logMessageEPKc8LogLevelS2_RK13LogAttributes+0x14c>)
   d8dc0:	9201      	str	r2, [sp, #4]
    return n_;
}

// spark::JSONWriter
inline spark::JSONWriter::JSONWriter() :
        state_(BEGIN) {
   d8dc2:	f04f 0800 	mov.w	r8, #0
        return; // Do not mix logging and serial console output
    }
#endif
    JSONStreamWriter json(*this->stream());
    json.beginObject();
   d8dc6:	a801      	add	r0, sp, #4
    write(&c, 1);
}

// spark::JSONStreamWriter
inline spark::JSONStreamWriter::JSONStreamWriter(Print &stream) :
        strm_(stream) {
   d8dc8:	9303      	str	r3, [sp, #12]
    return n_;
}

// spark::JSONWriter
inline spark::JSONWriter::JSONWriter() :
        state_(BEGIN) {
   d8dca:	f88d 8008 	strb.w	r8, [sp, #8]
   d8dce:	f001 fb3c 	bl	da44a <_ZN5spark10JSONWriter11beginObjectEv>
   d8dd2:	4641      	mov	r1, r8
   d8dd4:	4648      	mov	r0, r9
   d8dd6:	f7fd fa8d 	bl	d62f4 <log_level_name>
    // Level
    const char *s = levelName(level);
    json.name("l", 1).value(s);
   d8dda:	4942      	ldr	r1, [pc, #264]	; (d8ee4 <_ZN5spark20JSONStreamLogHandler10logMessageEPKc8LogLevelS2_RK13LogAttributes+0x150>)
   d8ddc:	4680      	mov	r8, r0
   d8dde:	2201      	movs	r2, #1
   d8de0:	a801      	add	r0, sp, #4
   d8de2:	f001 fbb7 	bl	da554 <_ZN5spark10JSONWriter4nameEPKcj>
   d8de6:	4641      	mov	r1, r8
   d8de8:	f7ff f92d 	bl	d8046 <_ZN5spark10JSONWriter5valueEPKc>
    // Message
    if (msg) {
   d8dec:	b13f      	cbz	r7, d8dfe <_ZN5spark20JSONStreamLogHandler10logMessageEPKc8LogLevelS2_RK13LogAttributes+0x6a>
        json.name("m", 1).value(msg);
   d8dee:	493e      	ldr	r1, [pc, #248]	; (d8ee8 <_ZN5spark20JSONStreamLogHandler10logMessageEPKc8LogLevelS2_RK13LogAttributes+0x154>)
   d8df0:	2201      	movs	r2, #1
   d8df2:	a801      	add	r0, sp, #4
   d8df4:	f001 fbae 	bl	da554 <_ZN5spark10JSONWriter4nameEPKcj>
   d8df8:	4639      	mov	r1, r7
   d8dfa:	f7ff f924 	bl	d8046 <_ZN5spark10JSONWriter5valueEPKc>
    }
    // Category
    if (category) {
   d8dfe:	b13d      	cbz	r5, d8e10 <_ZN5spark20JSONStreamLogHandler10logMessageEPKc8LogLevelS2_RK13LogAttributes+0x7c>
        json.name("c", 1).value(category);
   d8e00:	493a      	ldr	r1, [pc, #232]	; (d8eec <_ZN5spark20JSONStreamLogHandler10logMessageEPKc8LogLevelS2_RK13LogAttributes+0x158>)
   d8e02:	2201      	movs	r2, #1
   d8e04:	a801      	add	r0, sp, #4
   d8e06:	f001 fba5 	bl	da554 <_ZN5spark10JSONWriter4nameEPKcj>
   d8e0a:	4629      	mov	r1, r5
   d8e0c:	f7ff f91b 	bl	d8046 <_ZN5spark10JSONWriter5valueEPKc>
    }
    // File name
    if (attr.has_file) {
   d8e10:	7923      	ldrb	r3, [r4, #4]
   d8e12:	07df      	lsls	r7, r3, #31
   d8e14:	d50e      	bpl.n	d8e34 <_ZN5spark20JSONStreamLogHandler10logMessageEPKc8LogLevelS2_RK13LogAttributes+0xa0>
        s = extractFileName(attr.file); // Strip directory path
   d8e16:	68a5      	ldr	r5, [r4, #8]
    }
    return nullptr;
}

const char* extractFileName(const char *s) {
    const char *s1 = strrchr(s, '/');
   d8e18:	212f      	movs	r1, #47	; 0x2f
   d8e1a:	4628      	mov	r0, r5
   d8e1c:	f001 fe56 	bl	daacc <strrchr>
    if (s1) {
   d8e20:	b100      	cbz	r0, d8e24 <_ZN5spark20JSONStreamLogHandler10logMessageEPKc8LogLevelS2_RK13LogAttributes+0x90>
        return s1 + 1;
   d8e22:	1c45      	adds	r5, r0, #1
        json.name("c", 1).value(category);
    }
    // File name
    if (attr.has_file) {
        s = extractFileName(attr.file); // Strip directory path
        json.name("f", 1).value(s);
   d8e24:	4932      	ldr	r1, [pc, #200]	; (d8ef0 <_ZN5spark20JSONStreamLogHandler10logMessageEPKc8LogLevelS2_RK13LogAttributes+0x15c>)
   d8e26:	2201      	movs	r2, #1
   d8e28:	a801      	add	r0, sp, #4
   d8e2a:	f001 fb93 	bl	da554 <_ZN5spark10JSONWriter4nameEPKcj>
   d8e2e:	4629      	mov	r1, r5
   d8e30:	f7ff f909 	bl	d8046 <_ZN5spark10JSONWriter5valueEPKc>
    }
    // Line number
    if (attr.has_line) {
   d8e34:	7923      	ldrb	r3, [r4, #4]
   d8e36:	079d      	lsls	r5, r3, #30
   d8e38:	d507      	bpl.n	d8e4a <_ZN5spark20JSONStreamLogHandler10logMessageEPKc8LogLevelS2_RK13LogAttributes+0xb6>
        json.name("ln", 2).value(attr.line);
   d8e3a:	492e      	ldr	r1, [pc, #184]	; (d8ef4 <_ZN5spark20JSONStreamLogHandler10logMessageEPKc8LogLevelS2_RK13LogAttributes+0x160>)
   d8e3c:	2202      	movs	r2, #2
   d8e3e:	a801      	add	r0, sp, #4
   d8e40:	f001 fb88 	bl	da554 <_ZN5spark10JSONWriter4nameEPKcj>
   d8e44:	68e1      	ldr	r1, [r4, #12]
   d8e46:	f001 fb0d 	bl	da464 <_ZN5spark10JSONWriter5valueEi>
    }
    // Function name
    if (attr.has_function) {
   d8e4a:	7923      	ldrb	r3, [r4, #4]
   d8e4c:	0758      	lsls	r0, r3, #29
   d8e4e:	d516      	bpl.n	d8e7e <_ZN5spark20JSONStreamLogHandler10logMessageEPKc8LogLevelS2_RK13LogAttributes+0xea>
        size_t n = 0;
        s = extractFuncName(attr.function, &n); // Strip argument and return types
   d8e50:	6925      	ldr	r5, [r4, #16]
   d8e52:	462f      	mov	r7, r5
    return s;
}

const char* extractFuncName(const char *s, size_t *size) {
    const char *s1 = s;
    for (; *s; ++s) {
   d8e54:	463b      	mov	r3, r7
   d8e56:	f813 2b01 	ldrb.w	r2, [r3], #1
   d8e5a:	b13a      	cbz	r2, d8e6c <_ZN5spark20JSONStreamLogHandler10logMessageEPKc8LogLevelS2_RK13LogAttributes+0xd8>
        if (*s == ' ') {
   d8e5c:	2a20      	cmp	r2, #32
   d8e5e:	d101      	bne.n	d8e64 <_ZN5spark20JSONStreamLogHandler10logMessageEPKc8LogLevelS2_RK13LogAttributes+0xd0>
            s1 = s + 1; // Skip return type
   d8e60:	461d      	mov	r5, r3
   d8e62:	e001      	b.n	d8e68 <_ZN5spark20JSONStreamLogHandler10logMessageEPKc8LogLevelS2_RK13LogAttributes+0xd4>
        } else if (*s == '(') {
   d8e64:	2a28      	cmp	r2, #40	; 0x28
   d8e66:	d001      	beq.n	d8e6c <_ZN5spark20JSONStreamLogHandler10logMessageEPKc8LogLevelS2_RK13LogAttributes+0xd8>
    }
    write("\r\n", 2);
}

// spark::JSONStreamLogHandler
void spark::JSONStreamLogHandler::logMessage(const char *msg, LogLevel level, const char *category, const LogAttributes &attr) {
   d8e68:	461f      	mov	r7, r3
   d8e6a:	e7f3      	b.n	d8e54 <_ZN5spark20JSONStreamLogHandler10logMessageEPKc8LogLevelS2_RK13LogAttributes+0xc0>
    }
    // Function name
    if (attr.has_function) {
        size_t n = 0;
        s = extractFuncName(attr.function, &n); // Strip argument and return types
        json.name("fn", 2).value(s, n);
   d8e6c:	2202      	movs	r2, #2
   d8e6e:	4922      	ldr	r1, [pc, #136]	; (d8ef8 <_ZN5spark20JSONStreamLogHandler10logMessageEPKc8LogLevelS2_RK13LogAttributes+0x164>)
   d8e70:	a801      	add	r0, sp, #4
   d8e72:	f001 fb6f 	bl	da554 <_ZN5spark10JSONWriter4nameEPKcj>
   d8e76:	1b7a      	subs	r2, r7, r5
   d8e78:	4629      	mov	r1, r5
   d8e7a:	f001 fb7a 	bl	da572 <_ZN5spark10JSONWriter5valueEPKcj>
    }
    // Timestamp
    if (attr.has_time) {
   d8e7e:	7923      	ldrb	r3, [r4, #4]
   d8e80:	0719      	lsls	r1, r3, #28
   d8e82:	d507      	bpl.n	d8e94 <_ZN5spark20JSONStreamLogHandler10logMessageEPKc8LogLevelS2_RK13LogAttributes+0x100>
        json.name("t", 1).value((unsigned)attr.time);
   d8e84:	491d      	ldr	r1, [pc, #116]	; (d8efc <_ZN5spark20JSONStreamLogHandler10logMessageEPKc8LogLevelS2_RK13LogAttributes+0x168>)
   d8e86:	2201      	movs	r2, #1
   d8e88:	a801      	add	r0, sp, #4
   d8e8a:	f001 fb63 	bl	da554 <_ZN5spark10JSONWriter4nameEPKcj>
   d8e8e:	6961      	ldr	r1, [r4, #20]
   d8e90:	f001 fafa 	bl	da488 <_ZN5spark10JSONWriter5valueEj>
    }
    // Code (additional attribute)
    if (attr.has_code) {
   d8e94:	7923      	ldrb	r3, [r4, #4]
   d8e96:	06da      	lsls	r2, r3, #27
   d8e98:	d508      	bpl.n	d8eac <_ZN5spark20JSONStreamLogHandler10logMessageEPKc8LogLevelS2_RK13LogAttributes+0x118>
        json.name("code", 4).value((int)attr.code);
   d8e9a:	2204      	movs	r2, #4
   d8e9c:	4918      	ldr	r1, [pc, #96]	; (d8f00 <_ZN5spark20JSONStreamLogHandler10logMessageEPKc8LogLevelS2_RK13LogAttributes+0x16c>)
   d8e9e:	eb0d 0002 	add.w	r0, sp, r2
   d8ea2:	f001 fb57 	bl	da554 <_ZN5spark10JSONWriter4nameEPKcj>
   d8ea6:	69a1      	ldr	r1, [r4, #24]
   d8ea8:	f001 fadc 	bl	da464 <_ZN5spark10JSONWriter5valueEi>
    }
    // Details (additional attribute)
    if (attr.has_details) {
   d8eac:	7923      	ldrb	r3, [r4, #4]
   d8eae:	069b      	lsls	r3, r3, #26
   d8eb0:	d507      	bpl.n	d8ec2 <_ZN5spark20JSONStreamLogHandler10logMessageEPKc8LogLevelS2_RK13LogAttributes+0x12e>
        json.name("detail", 6).value(attr.details);
   d8eb2:	4914      	ldr	r1, [pc, #80]	; (d8f04 <_ZN5spark20JSONStreamLogHandler10logMessageEPKc8LogLevelS2_RK13LogAttributes+0x170>)
   d8eb4:	2206      	movs	r2, #6
   d8eb6:	a801      	add	r0, sp, #4
   d8eb8:	f001 fb4c 	bl	da554 <_ZN5spark10JSONWriter4nameEPKcj>
   d8ebc:	69e1      	ldr	r1, [r4, #28]
   d8ebe:	f7ff f8c2 	bl	d8046 <_ZN5spark10JSONWriter5valueEPKc>
    }
    json.endObject();
   d8ec2:	a801      	add	r0, sp, #4
   d8ec4:	f001 faab 	bl	da41e <_ZN5spark10JSONWriter9endObjectEv>
   d8ec8:	6a30      	ldr	r0, [r6, #32]
    this->stream()->write((const uint8_t*)"\r\n", 2);
   d8eca:	490f      	ldr	r1, [pc, #60]	; (d8f08 <_ZN5spark20JSONStreamLogHandler10logMessageEPKc8LogLevelS2_RK13LogAttributes+0x174>)
   d8ecc:	6803      	ldr	r3, [r0, #0]
   d8ece:	2202      	movs	r2, #2
   d8ed0:	68db      	ldr	r3, [r3, #12]
   d8ed2:	4798      	blx	r3
}
   d8ed4:	b005      	add	sp, #20
   d8ed6:	e8bd 83f0 	ldmia.w	sp!, {r4, r5, r6, r7, r8, r9, pc}
   d8eda:	bf00      	nop
   d8edc:	2003e740 	.word	0x2003e740
   d8ee0:	000dbc1c 	.word	0x000dbc1c
   d8ee4:	000dbc4e 	.word	0x000dbc4e
   d8ee8:	000dbc61 	.word	0x000dbc61
   d8eec:	000daed6 	.word	0x000daed6
   d8ef0:	000daeb1 	.word	0x000daeb1
   d8ef4:	000dbce9 	.word	0x000dbce9
   d8ef8:	000dbcec 	.word	0x000dbcec
   d8efc:	000dbc76 	.word	0x000dbc76
   d8f00:	000dbcef 	.word	0x000dbcef
   d8f04:	000dbcf4 	.word	0x000dbcf4
   d8f08:	000dbce6 	.word	0x000dbce6

000d8f0c <_GLOBAL__sub_I_TIME_FORMAT_DEFAULT>:
            calendar_time_cache = Convert_UnixTime_To_CalendarTime(unix_time);
            unix_time_cache = unix_time;
    }
}

const char* TimeClass::format_spec = TIME_FORMAT_DEFAULT;
   d8f0c:	4b02      	ldr	r3, [pc, #8]	; (d8f18 <_GLOBAL__sub_I_TIME_FORMAT_DEFAULT+0xc>)
   d8f0e:	681a      	ldr	r2, [r3, #0]
   d8f10:	4b02      	ldr	r3, [pc, #8]	; (d8f1c <_GLOBAL__sub_I_TIME_FORMAT_DEFAULT+0x10>)
   d8f12:	601a      	str	r2, [r3, #0]
   d8f14:	4770      	bx	lr
   d8f16:	bf00      	nop
   d8f18:	2003d868 	.word	0x2003d868
   d8f1c:	2003e410 	.word	0x2003e410

000d8f20 <_ZNSt16_Sp_counted_baseILN9__gnu_cxx12_Lock_policyE0EE10_M_releaseEv.part.4.constprop.12>:
    _Sp_counted_base<_S_single>::_M_add_ref_copy()
    { ++_M_use_count; }

  template<>
    inline void
    _Sp_counted_base<_S_single>::_M_release() noexcept
   d8f20:	b510      	push	{r4, lr}
    {
      if (--_M_use_count == 0)
        {
          _M_dispose();
   d8f22:	6803      	ldr	r3, [r0, #0]
    _Sp_counted_base<_S_single>::_M_add_ref_copy()
    { ++_M_use_count; }

  template<>
    inline void
    _Sp_counted_base<_S_single>::_M_release() noexcept
   d8f24:	4604      	mov	r4, r0
    {
      if (--_M_use_count == 0)
        {
          _M_dispose();
   d8f26:	689b      	ldr	r3, [r3, #8]
   d8f28:	4798      	blx	r3
          if (--_M_weak_count == 0)
   d8f2a:	68a3      	ldr	r3, [r4, #8]
   d8f2c:	3b01      	subs	r3, #1
   d8f2e:	60a3      	str	r3, [r4, #8]
   d8f30:	b92b      	cbnz	r3, d8f3e <_ZNSt16_Sp_counted_baseILN9__gnu_cxx12_Lock_policyE0EE10_M_releaseEv.part.4.constprop.12+0x1e>
            _M_destroy();
   d8f32:	6823      	ldr	r3, [r4, #0]
   d8f34:	4620      	mov	r0, r4
   d8f36:	68db      	ldr	r3, [r3, #12]
        }
    }
   d8f38:	e8bd 4010 	ldmia.w	sp!, {r4, lr}
    {
      if (--_M_use_count == 0)
        {
          _M_dispose();
          if (--_M_weak_count == 0)
            _M_destroy();
   d8f3c:	4718      	bx	r3
   d8f3e:	bd10      	pop	{r4, pc}

000d8f40 <_ZN9TCPClientD1Ev>:
class TCPClient : public Client {

public:
    TCPClient();
    TCPClient(sock_handle_t sock);
    virtual ~TCPClient() {};
   d8f40:	b510      	push	{r4, lr}
   d8f42:	4b06      	ldr	r3, [pc, #24]	; (d8f5c <_ZN9TCPClientD1Ev+0x1c>)
   d8f44:	6003      	str	r3, [r0, #0]
   d8f46:	4604      	mov	r4, r0
      // Does not throw if __r._M_get_use_count() == 0, caller must check.
      explicit __shared_count(const __weak_count<_Lp>& __r, std::nothrow_t);

      ~__shared_count() noexcept
      {
	if (_M_pi != nullptr)
   d8f48:	6980      	ldr	r0, [r0, #24]
   d8f4a:	b128      	cbz	r0, d8f58 <_ZN9TCPClientD1Ev+0x18>

  template<>
    inline void
    _Sp_counted_base<_S_single>::_M_release() noexcept
    {
      if (--_M_use_count == 0)
   d8f4c:	6843      	ldr	r3, [r0, #4]
   d8f4e:	3b01      	subs	r3, #1
   d8f50:	6043      	str	r3, [r0, #4]
   d8f52:	b90b      	cbnz	r3, d8f58 <_ZN9TCPClientD1Ev+0x18>
   d8f54:	f7ff ffe4 	bl	d8f20 <_ZNSt16_Sp_counted_baseILN9__gnu_cxx12_Lock_policyE0EE10_M_releaseEv.part.4.constprop.12>
   d8f58:	4620      	mov	r0, r4
   d8f5a:	bd10      	pop	{r4, pc}
   d8f5c:	000dbe7c 	.word	0x000dbe7c

000d8f60 <_ZN9TCPClientD0Ev>:
   d8f60:	b510      	push	{r4, lr}
   d8f62:	4604      	mov	r4, r0
   d8f64:	f7ff ffec 	bl	d8f40 <_ZN9TCPClientD1Ev>
   d8f68:	4620      	mov	r0, r4
   d8f6a:	211c      	movs	r1, #28
   d8f6c:	f001 fb70 	bl	da650 <_ZdlPvj>
   d8f70:	4620      	mov	r0, r4
   d8f72:	bd10      	pop	{r4, pc}

000d8f74 <_ZNSt14_Function_baseD1Ev>:
	}
      };

    _Function_base() : _M_manager(nullptr) { }

    ~_Function_base()
   d8f74:	b510      	push	{r4, lr}
    {
      if (_M_manager)
   d8f76:	6883      	ldr	r3, [r0, #8]
	}
      };

    _Function_base() : _M_manager(nullptr) { }

    ~_Function_base()
   d8f78:	4604      	mov	r4, r0
    {
      if (_M_manager)
   d8f7a:	b113      	cbz	r3, d8f82 <_ZNSt14_Function_baseD1Ev+0xe>
	_M_manager(_M_functor, _M_functor, __destroy_functor);
   d8f7c:	2203      	movs	r2, #3
   d8f7e:	4601      	mov	r1, r0
   d8f80:	4798      	blx	r3
    }
   d8f82:	4620      	mov	r0, r4
   d8f84:	bd10      	pop	{r4, pc}

000d8f86 <_ZN8RGBClassD1Ev>:
#include "rgbled.h"

typedef void (raw_rgb_change_handler_t)(uint8_t, uint8_t, uint8_t);
typedef std::function<raw_rgb_change_handler_t> wiring_rgb_change_handler_t;

class RGBClass {
   d8f86:	b510      	push	{r4, lr}
   d8f88:	4604      	mov	r4, r0
   *  @ingroup functors
   *
   *  Polymorphic function wrapper.
   */
  template<typename _Res, typename... _ArgTypes>
    class function<_Res(_ArgTypes...)>
   d8f8a:	f7ff fff3 	bl	d8f74 <_ZNSt14_Function_baseD1Ev>
   d8f8e:	4620      	mov	r0, r4
   d8f90:	bd10      	pop	{r4, pc}

000d8f92 <_ZSt4swapISt9_Any_dataEvRT_S2_>:
   *  @param  __b  Another thing of arbitrary type.
   *  @return   Nothing.
  */
  template<typename _Tp>
    inline void
    swap(_Tp& __a, _Tp& __b)
   d8f92:	b513      	push	{r0, r1, r4, lr}
   d8f94:	460b      	mov	r3, r1
   d8f96:	4604      	mov	r4, r0
#endif
    {
      // concept requirements
      __glibcxx_function_requires(_SGIAssignableConcept<_Tp>)

      _Tp __tmp = _GLIBCXX_MOVE(__a);
   d8f98:	c803      	ldmia	r0, {r0, r1}
   d8f9a:	e88d 0003 	stmia.w	sp, {r0, r1}
      __a = _GLIBCXX_MOVE(__b);
   d8f9e:	e893 0003 	ldmia.w	r3, {r0, r1}
   d8fa2:	e884 0003 	stmia.w	r4, {r0, r1}
      __b = _GLIBCXX_MOVE(__tmp);
   d8fa6:	e89d 0003 	ldmia.w	sp, {r0, r1}
   d8faa:	e883 0003 	stmia.w	r3, {r0, r1}
    }
   d8fae:	b002      	add	sp, #8
   d8fb0:	bd10      	pop	{r4, pc}
	...

000d8fb4 <_GLOBAL__sub_I_RGB>:
	{
	  _Base::_M_init_functor(__functor, std::__addressof(__f.get()));
	}
      };

    _Function_base() : _M_manager(nullptr) { }
   d8fb4:	4803      	ldr	r0, [pc, #12]	; (d8fc4 <_GLOBAL__sub_I_RGB+0x10>)
#include "spark_wiring_rgb.h"
#include "spark_wiring_interrupts.h"

#include "core_hal.h"

RGBClass RGB;
   d8fb6:	4a04      	ldr	r2, [pc, #16]	; (d8fc8 <_GLOBAL__sub_I_RGB+0x14>)
   d8fb8:	4904      	ldr	r1, [pc, #16]	; (d8fcc <_GLOBAL__sub_I_RGB+0x18>)
   d8fba:	2300      	movs	r3, #0
   d8fbc:	6083      	str	r3, [r0, #8]
   d8fbe:	f001 bb3a 	b.w	da636 <__aeabi_atexit>
   d8fc2:	bf00      	nop
   d8fc4:	2003e414 	.word	0x2003e414
   d8fc8:	2003d8d4 	.word	0x2003d8d4
   d8fcc:	000d8f87 	.word	0x000d8f87

000d8fd0 <serialEventRun>:

/**
 * Provides background processing of serial data.
 */
void serialEventRun()
{
   d8fd0:	b508      	push	{r3, lr}
    if (serialEvent && Serial.available()>0)
   d8fd2:	4b0c      	ldr	r3, [pc, #48]	; (d9004 <serialEventRun+0x34>)
   d8fd4:	b133      	cbz	r3, d8fe4 <serialEventRun+0x14>
   d8fd6:	f000 fc3f 	bl	d9858 <_Z16_fetch_usbserialv>
   d8fda:	6803      	ldr	r3, [r0, #0]
   d8fdc:	691b      	ldr	r3, [r3, #16]
   d8fde:	4798      	blx	r3
   d8fe0:	2800      	cmp	r0, #0
   d8fe2:	dc09      	bgt.n	d8ff8 <serialEventRun+0x28>
        serialEvent();

    if (serialEvent1 && Serial1.available()>0)
   d8fe4:	4b08      	ldr	r3, [pc, #32]	; (d9008 <serialEventRun+0x38>)
   d8fe6:	b163      	cbz	r3, d9002 <serialEventRun+0x32>
   d8fe8:	f000 fcbe 	bl	d9968 <_Z22__fetch_global_Serial1v>
   d8fec:	6803      	ldr	r3, [r0, #0]
   d8fee:	691b      	ldr	r3, [r3, #16]
   d8ff0:	4798      	blx	r3
   d8ff2:	2800      	cmp	r0, #0
   d8ff4:	dc03      	bgt.n	d8ffe <serialEventRun+0x2e>
   d8ff6:	bd08      	pop	{r3, pc}
 * Provides background processing of serial data.
 */
void serialEventRun()
{
    if (serialEvent && Serial.available()>0)
        serialEvent();
   d8ff8:	f3af 8000 	nop.w
   d8ffc:	e7f2      	b.n	d8fe4 <serialEventRun+0x14>

    if (serialEvent1 && Serial1.available()>0)
        serialEvent1();
   d8ffe:	f3af 8000 	nop.w
   d9002:	bd08      	pop	{r3, pc}
	...

000d900c <_post_loop>:
#if Wiring_Serial5
void serialEvent5() __attribute__((weak));
#endif

void _post_loop()
{
   d900c:	b508      	push	{r3, lr}
	serialEventRun();
   d900e:	f7ff ffdf 	bl	d8fd0 <serialEventRun>
		return !timeout_fn;
	}

	static inline system_tick_t current_time()
	{
		return HAL_Timer_Get_Milli_Seconds();
   d9012:	f7fc ffdf 	bl	d5fd4 <HAL_Timer_Get_Milli_Seconds>
	/**
	 * Lifesign that the application is still working normally.
	 */
	static void checkin()
	{
		last_checkin = current_time();
   d9016:	4b01      	ldr	r3, [pc, #4]	; (d901c <_post_loop+0x10>)
   d9018:	6018      	str	r0, [r3, #0]
   d901a:	bd08      	pop	{r3, pc}
   d901c:	2003e748 	.word	0x2003e748

000d9020 <_Z33system_initialize_user_backup_ramv>:
 * the dynamically linked application module.
 */
void system_initialize_user_backup_ram()
{
    size_t len = &link_global_retained_end-&link_global_retained_start;
    memcpy(&link_global_retained_start, &link_global_retained_initial_values, len);
   d9020:	4802      	ldr	r0, [pc, #8]	; (d902c <_Z33system_initialize_user_backup_ramv+0xc>)
   d9022:	4a03      	ldr	r2, [pc, #12]	; (d9030 <_Z33system_initialize_user_backup_ramv+0x10>)
   d9024:	4903      	ldr	r1, [pc, #12]	; (d9034 <_Z33system_initialize_user_backup_ramv+0x14>)
   d9026:	1a12      	subs	r2, r2, r0
   d9028:	f001 bc8b 	b.w	da942 <memcpy>
   d902c:	2003f400 	.word	0x2003f400
   d9030:	2003f404 	.word	0x2003f404
   d9034:	000dc110 	.word	0x000dc110

000d9038 <_Z27ctrl_request_custom_handlerP12ctrl_request>:
bool __backup_ram_was_valid() { return false; }

#endif

// Default handler for CTRL_REQUEST_APP_CUSTOM requests
void __attribute((weak)) ctrl_request_custom_handler(ctrl_request* req) {
   d9038:	b507      	push	{r0, r1, r2, lr}
    system_ctrl_set_result(req, SYSTEM_ERROR_NOT_SUPPORTED, nullptr, nullptr, nullptr);
   d903a:	2300      	movs	r3, #0
   d903c:	9300      	str	r3, [sp, #0]
   d903e:	461a      	mov	r2, r3
   d9040:	f06f 0177 	mvn.w	r1, #119	; 0x77
   d9044:	f7fd f988 	bl	d6358 <system_ctrl_set_result>
}
   d9048:	b003      	add	sp, #12
   d904a:	f85d fb04 	ldr.w	pc, [sp], #4
	...

000d9050 <_ZL20ctrl_request_handlerP12ctrl_request>:
// Callback invoked to process a logging configuration request
void(*log_process_ctrl_request_callback)(ctrl_request* req) = nullptr;
#endif

// Application handler for control requests
static void ctrl_request_handler(ctrl_request* req) {
   d9050:	b507      	push	{r0, r1, r2, lr}
    switch (req->type) {
   d9052:	8843      	ldrh	r3, [r0, #2]
   d9054:	2b0a      	cmp	r3, #10
   d9056:	d008      	beq.n	d906a <_ZL20ctrl_request_handlerP12ctrl_request+0x1a>
   d9058:	2b50      	cmp	r3, #80	; 0x50
   d905a:	d109      	bne.n	d9070 <_ZL20ctrl_request_handlerP12ctrl_request+0x20>
#if Wiring_LogConfig
    case CTRL_REQUEST_LOG_CONFIG: {
        if (log_process_ctrl_request_callback) {
   d905c:	4b09      	ldr	r3, [pc, #36]	; (d9084 <_ZL20ctrl_request_handlerP12ctrl_request+0x34>)
   d905e:	681b      	ldr	r3, [r3, #0]
   d9060:	b13b      	cbz	r3, d9072 <_ZL20ctrl_request_handlerP12ctrl_request+0x22>
    }
    default:
        system_ctrl_set_result(req, SYSTEM_ERROR_NOT_SUPPORTED, nullptr, nullptr, nullptr);
        break;
    }
}
   d9062:	b003      	add	sp, #12
   d9064:	f85d eb04 	ldr.w	lr, [sp], #4
static void ctrl_request_handler(ctrl_request* req) {
    switch (req->type) {
#if Wiring_LogConfig
    case CTRL_REQUEST_LOG_CONFIG: {
        if (log_process_ctrl_request_callback) {
            log_process_ctrl_request_callback(req);
   d9068:	4718      	bx	r3
        }
        break;
    }
#endif
    case CTRL_REQUEST_APP_CUSTOM: {
        ctrl_request_custom_handler(req);
   d906a:	f7ff ffe5 	bl	d9038 <_Z27ctrl_request_custom_handlerP12ctrl_request>
        break;
   d906e:	e006      	b.n	d907e <_ZL20ctrl_request_handlerP12ctrl_request+0x2e>
    }
    default:
        system_ctrl_set_result(req, SYSTEM_ERROR_NOT_SUPPORTED, nullptr, nullptr, nullptr);
   d9070:	2300      	movs	r3, #0
   d9072:	9300      	str	r3, [sp, #0]
   d9074:	461a      	mov	r2, r3
   d9076:	f06f 0177 	mvn.w	r1, #119	; 0x77
   d907a:	f7fd f96d 	bl	d6358 <system_ctrl_set_result>
        break;
    }
}
   d907e:	b003      	add	sp, #12
   d9080:	f85d fb04 	ldr.w	pc, [sp], #4
   d9084:	2003e424 	.word	0x2003e424

000d9088 <module_user_init_hook>:

void module_user_init_hook()
{
   d9088:	b538      	push	{r3, r4, r5, lr}
#if HAL_PLATFORM_BACKUP_RAM
    backup_ram_was_valid_ =  __backup_sram_signature==signature;
   d908a:	4c10      	ldr	r4, [pc, #64]	; (d90cc <module_user_init_hook+0x44>)
   d908c:	4d10      	ldr	r5, [pc, #64]	; (d90d0 <module_user_init_hook+0x48>)
   d908e:	6823      	ldr	r3, [r4, #0]
   d9090:	42ab      	cmp	r3, r5
   d9092:	4b10      	ldr	r3, [pc, #64]	; (d90d4 <module_user_init_hook+0x4c>)
   d9094:	bf0c      	ite	eq
   d9096:	2201      	moveq	r2, #1
   d9098:	2200      	movne	r2, #0
   d909a:	701a      	strb	r2, [r3, #0]
    if (!backup_ram_was_valid_) {
   d909c:	d002      	beq.n	d90a4 <module_user_init_hook+0x1c>
        system_initialize_user_backup_ram();
   d909e:	f7ff ffbf 	bl	d9020 <_Z33system_initialize_user_backup_ramv>
        __backup_sram_signature = signature;
   d90a2:	6025      	str	r5, [r4, #0]
    }
#endif

#if HAL_PLATFORM_RNG
    // Initialize the default stdlib PRNG using hardware RNG as a seed
    const uint32_t seed = HAL_RNG_GetRandomNumber();
   d90a4:	f7fc ff86 	bl	d5fb4 <HAL_RNG_GetRandomNumber>
   d90a8:	4604      	mov	r4, r0
    srand(seed);
   d90aa:	f001 fc79 	bl	da9a0 <srand>

    // If the user defines random_seed_from_cloud, call it with a seed value
    // generated by a hardware RNG as well.
    if (random_seed_from_cloud) {
   d90ae:	4b0a      	ldr	r3, [pc, #40]	; (d90d8 <module_user_init_hook+0x50>)
   d90b0:	b113      	cbz	r3, d90b8 <module_user_init_hook+0x30>
        random_seed_from_cloud(seed);
   d90b2:	4620      	mov	r0, r4
   d90b4:	f3af 8000 	nop.w
    }
#endif
    // Register the random_seed_from_cloud handler
    spark_set_random_seed_from_cloud_handler(&random_seed_from_cloud, nullptr);
   d90b8:	2100      	movs	r1, #0
   d90ba:	4807      	ldr	r0, [pc, #28]	; (d90d8 <module_user_init_hook+0x50>)
   d90bc:	f7fd f9b6 	bl	d642c <spark_set_random_seed_from_cloud_handler>

    // Register application handler for the control requests
    system_ctrl_set_app_request_handler(ctrl_request_handler, nullptr);
   d90c0:	2100      	movs	r1, #0
   d90c2:	4806      	ldr	r0, [pc, #24]	; (d90dc <module_user_init_hook+0x54>)
}
   d90c4:	e8bd 4038 	ldmia.w	sp!, {r3, r4, r5, lr}
#endif
    // Register the random_seed_from_cloud handler
    spark_set_random_seed_from_cloud_handler(&random_seed_from_cloud, nullptr);

    // Register application handler for the control requests
    system_ctrl_set_app_request_handler(ctrl_request_handler, nullptr);
   d90c8:	f7fd b93c 	b.w	d6344 <system_ctrl_set_app_request_handler>
   d90cc:	2003f400 	.word	0x2003f400
   d90d0:	9a271c1e 	.word	0x9a271c1e
   d90d4:	2003e428 	.word	0x2003e428
   d90d8:	00000000 	.word	0x00000000
   d90dc:	000d9051 	.word	0x000d9051

000d90e0 <_ZNSt15_Sp_counted_ptrIPN8particle6detail10FutureImplIbNS1_13FutureContextEEELN9__gnu_cxx12_Lock_policyE0EED1Ev>:
    class __shared_count;


  // Counted ptr with no deleter or allocator support
  template<typename _Ptr, _Lock_policy _Lp>
    class _Sp_counted_ptr final : public _Sp_counted_base<_Lp>
   d90e0:	4770      	bx	lr

000d90e2 <_ZNSt15_Sp_counted_ptrIPN8particle6detail10FutureImplIbNS1_13FutureContextEEELN9__gnu_cxx12_Lock_policyE0EE14_M_get_deleterERKSt9type_info>:
      _M_destroy() noexcept
      { delete this; }

      virtual void*
      _M_get_deleter(const std::type_info&) noexcept
      { return nullptr; }
   d90e2:	2000      	movs	r0, #0
   d90e4:	4770      	bx	lr

000d90e6 <_ZNSt15_Sp_counted_ptrIPN8particle6detail10FutureImplIbNS1_13FutureContextEEELN9__gnu_cxx12_Lock_policyE0EED0Ev>:
    class __shared_count;


  // Counted ptr with no deleter or allocator support
  template<typename _Ptr, _Lock_policy _Lp>
    class _Sp_counted_ptr final : public _Sp_counted_base<_Lp>
   d90e6:	b510      	push	{r4, lr}
   d90e8:	2110      	movs	r1, #16
   d90ea:	4604      	mov	r4, r0
   d90ec:	f001 fab0 	bl	da650 <_ZdlPvj>
   d90f0:	4620      	mov	r0, r4
   d90f2:	bd10      	pop	{r4, pc}

000d90f4 <_ZNSt15_Sp_counted_ptrIPN8particle6detail10FutureImplIbNS1_13FutureContextEEELN9__gnu_cxx12_Lock_policyE0EE10_M_destroyEv>:
      virtual void
      _M_dispose() noexcept
      { delete _M_ptr; }

      virtual void
      _M_destroy() noexcept
   d90f4:	b508      	push	{r3, lr}
      { delete this; }
   d90f6:	b108      	cbz	r0, d90fc <_ZNSt15_Sp_counted_ptrIPN8particle6detail10FutureImplIbNS1_13FutureContextEEELN9__gnu_cxx12_Lock_policyE0EE10_M_destroyEv+0x8>
   d90f8:	f7ff fff5 	bl	d90e6 <_ZNSt15_Sp_counted_ptrIPN8particle6detail10FutureImplIbNS1_13FutureContextEEELN9__gnu_cxx12_Lock_policyE0EED0Ev>
   d90fc:	bd08      	pop	{r3, pc}

000d90fe <_ZN8particle5ErrorC1EOS0_>:

} // namespace particle

inline particle::Error::Error(Type type) :
        msg_(nullptr),
        type_(type) {
   d90fe:	2200      	movs	r2, #0
   d9100:	6002      	str	r2, [r0, #0]

inline particle::Error::Error(const Error& error) :
        Error(error.type_, error.msg_) {
}

inline particle::Error::Error(Error&& error) :
   d9102:	b510      	push	{r4, lr}

} // namespace particle

inline particle::Error::Error(Type type) :
        msg_(nullptr),
        type_(type) {
   d9104:	f64f 729c 	movw	r2, #65436	; 0xff9c
   d9108:	8082      	strh	r2, [r0, #4]
    {
      // concept requirements
      __glibcxx_function_requires(_SGIAssignableConcept<_Tp>)

      _Tp __tmp = _GLIBCXX_MOVE(__a);
      __a = _GLIBCXX_MOVE(__b);
   d910a:	f9b1 4004 	ldrsh.w	r4, [r1, #4]
   d910e:	8084      	strh	r4, [r0, #4]
      __b = _GLIBCXX_MOVE(__tmp);
   d9110:	808a      	strh	r2, [r1, #4]
#endif
    {
      // concept requirements
      __glibcxx_function_requires(_SGIAssignableConcept<_Tp>)

      _Tp __tmp = _GLIBCXX_MOVE(__a);
   d9112:	6802      	ldr	r2, [r0, #0]
      __a = _GLIBCXX_MOVE(__b);
   d9114:	680c      	ldr	r4, [r1, #0]
   d9116:	6004      	str	r4, [r0, #0]
      __b = _GLIBCXX_MOVE(__tmp);
   d9118:	600a      	str	r2, [r1, #0]
}

inline particle::Error::Error(Error&& error) :
        Error() {
    swap(*this, error);
}
   d911a:	bd10      	pop	{r4, pc}

000d911c <_ZN8particle5ErrorD1Ev>:

inline particle::Error::~Error() {
   d911c:	b510      	push	{r4, lr}
   d911e:	4604      	mov	r4, r0
    free((void*)msg_);
   d9120:	6800      	ldr	r0, [r0, #0]
   d9122:	f7fd f993 	bl	d644c <free>
}
   d9126:	4620      	mov	r0, r4
   d9128:	bd10      	pop	{r4, pc}

000d912a <_ZNSt15_Sp_counted_ptrIPN8particle6detail10FutureImplIbNS1_13FutureContextEEELN9__gnu_cxx12_Lock_policyE0EE10_M_disposeEv>:
      explicit
      _Sp_counted_ptr(_Ptr __p) noexcept
      : _M_ptr(__p) { }

      virtual void
      _M_dispose() noexcept
   d912a:	b538      	push	{r3, r4, r5, lr}
      { delete _M_ptr; }
   d912c:	68c4      	ldr	r4, [r0, #12]
   d912e:	b1f4      	cbz	r4, d916e <_ZNSt15_Sp_counted_ptrIPN8particle6detail10FutureImplIbNS1_13FutureContextEEELN9__gnu_cxx12_Lock_policyE0EE10_M_disposeEv+0x44>

      _Tp
      load(memory_order __m = memory_order_seq_cst) const noexcept
      { 
        _Tp tmp;
	__atomic_load(&_M_i, &tmp, __m);
   d9130:	7823      	ldrb	r3, [r4, #0]
    ~FutureImpl() {
        // Call destructor of the appropriate unnamed enum's field
        const State s = this->state();
        if (s == State::SUCCEEDED) {
            result_.~ResultT();
        } else if (s == State::FAILED) {
   d9132:	2b02      	cmp	r3, #2
   d9134:	d103      	bne.n	d913e <_ZNSt15_Sp_counted_ptrIPN8particle6detail10FutureImplIbNS1_13FutureContextEEELN9__gnu_cxx12_Lock_policyE0EE10_M_disposeEv+0x14>
            error_.~Error();
   d9136:	f104 000c 	add.w	r0, r4, #12
   d913a:	f7ff ffef 	bl	d911c <_ZN8particle5ErrorD1Ev>
      {
        memory_order __b = __m & __memory_order_mask;
	__glibcxx_assert(__b != memory_order_release);
	__glibcxx_assert(__b != memory_order_acq_rel);

	return __atomic_load_n(&_M_p, __m);
   d913e:	6865      	ldr	r5, [r4, #4]
    // Completion callback types
    typedef typename detail::FutureCallbackTypes<ResultT>::OnSuccess OnSuccessCallback;
    typedef typename detail::FutureCallbackTypes<ResultT>::OnError OnErrorCallback;

    ~FutureImplBase() {
        delete onSuccess_.load(std::memory_order_relaxed);
   d9140:	b135      	cbz	r5, d9150 <_ZNSt15_Sp_counted_ptrIPN8particle6detail10FutureImplIbNS1_13FutureContextEEELN9__gnu_cxx12_Lock_policyE0EE10_M_disposeEv+0x26>
   *  @ingroup functors
   *
   *  Polymorphic function wrapper.
   */
  template<typename _Res, typename... _ArgTypes>
    class function<_Res(_ArgTypes...)>
   d9142:	4628      	mov	r0, r5
   d9144:	f7ff ff16 	bl	d8f74 <_ZNSt14_Function_baseD1Ev>
   d9148:	2110      	movs	r1, #16
   d914a:	4628      	mov	r0, r5
   d914c:	f001 fa80 	bl	da650 <_ZdlPvj>
   d9150:	68a5      	ldr	r5, [r4, #8]
        delete onError_.load(std::memory_order_relaxed);
   d9152:	b135      	cbz	r5, d9162 <_ZNSt15_Sp_counted_ptrIPN8particle6detail10FutureImplIbNS1_13FutureContextEEELN9__gnu_cxx12_Lock_policyE0EE10_M_disposeEv+0x38>
   d9154:	4628      	mov	r0, r5
   d9156:	f7ff ff0d 	bl	d8f74 <_ZNSt14_Function_baseD1Ev>
   d915a:	2110      	movs	r1, #16
   d915c:	4628      	mov	r0, r5
   d915e:	f001 fa77 	bl	da650 <_ZdlPvj>
   d9162:	4620      	mov	r0, r4
   d9164:	2114      	movs	r1, #20
   d9166:	e8bd 4038 	ldmia.w	sp!, {r3, r4, r5, lr}
   d916a:	f001 ba71 	b.w	da650 <_ZdlPvj>
   d916e:	bd38      	pop	{r3, r4, r5, pc}

000d9170 <_ZN8particle6FutureIbNS_6detail13FutureContextEEC1ESt10shared_ptrINS1_10FutureImplIbS2_EEE>:
};

template<typename ResultT, typename ContextT = detail::FutureContext>
class Future: public FutureBase<ResultT, ContextT> {
public:
    using FutureBase<ResultT, ContextT>::FutureBase;
   d9170:	b513      	push	{r0, r1, r4, lr}
   d9172:	4604      	mov	r4, r0
      }

      void
      _M_swap(__shared_count& __r) noexcept
      {
	_Sp_counted_base<_Lp>* __tmp = __r._M_pi;
   d9174:	e891 0005 	ldmia.w	r1, {r0, r2}
	__r._M_pi = _M_pi;
   d9178:	2300      	movs	r3, #0
   d917a:	604b      	str	r3, [r1, #4]

      __shared_ptr(__shared_ptr&& __r) noexcept
      : _M_ptr(__r._M_ptr), _M_refcount()
      {
	_M_refcount._M_swap(__r._M_refcount);
	__r._M_ptr = 0;
   d917c:	600b      	str	r3, [r1, #0]
	__shared_ptr(const __shared_ptr<_Tp1, _Lp>& __r) noexcept
	: _M_ptr(__r._M_ptr), _M_refcount(__r._M_refcount)
	{ }

      __shared_ptr(__shared_ptr&& __r) noexcept
      : _M_ptr(__r._M_ptr), _M_refcount()
   d917e:	6020      	str	r0, [r4, #0]
      void
      _M_swap(__shared_count& __r) noexcept
      {
	_Sp_counted_base<_Lp>* __tmp = __r._M_pi;
	__r._M_pi = _M_pi;
	_M_pi = __tmp;
   d9180:	6062      	str	r2, [r4, #4]
	: _M_ptr(__p), _M_refcount(__r._M_refcount) // never throws
	{ }

      __shared_ptr(const __shared_ptr&) noexcept = default;
      __shared_ptr& operator=(const __shared_ptr&) noexcept = default;
      ~__shared_ptr() = default;
   d9182:	a801      	add	r0, sp, #4

      void
      _M_swap(__shared_count& __r) noexcept
      {
	_Sp_counted_base<_Lp>* __tmp = __r._M_pi;
	__r._M_pi = _M_pi;
   d9184:	9301      	str	r3, [sp, #4]

      __shared_ptr(__shared_ptr&& __r) noexcept
      : _M_ptr(__r._M_ptr), _M_refcount()
      {
	_M_refcount._M_swap(__r._M_refcount);
	__r._M_ptr = 0;
   d9186:	9300      	str	r3, [sp, #0]
	: _M_ptr(__p), _M_refcount(__r._M_refcount) // never throws
	{ }

      __shared_ptr(const __shared_ptr&) noexcept = default;
      __shared_ptr& operator=(const __shared_ptr&) noexcept = default;
      ~__shared_ptr() = default;
   d9188:	f7fb fa32 	bl	d45f0 <_ZNSt14__shared_countILN9__gnu_cxx12_Lock_policyE0EED1Ev>
   d918c:	4620      	mov	r0, r4
   d918e:	b002      	add	sp, #8
   d9190:	bd10      	pop	{r4, pc}

000d9192 <_ZN8particle11PromiseBaseIbNS_6detail13FutureContextEE11fromDataPtrEPv>:
        // TODO: Use custom reference counting object to avoid unnecessary memory allocation
        return new detail::FutureImplPtr<ResultT, ContextT>(p_);
    }

    // Unwraps promise from an object pointer created via dataPtr() method
    static Promise<ResultT, ContextT> fromDataPtr(void* data) {
   d9192:	b5f7      	push	{r0, r1, r2, r4, r5, r6, r7, lr}
      template<typename _Tp1>
	__shared_ptr(const __shared_ptr<_Tp1, _Lp>& __r, _Tp* __p) noexcept
	: _M_ptr(__p), _M_refcount(__r._M_refcount) // never throws
	{ }

      __shared_ptr(const __shared_ptr&) noexcept = default;
   d9194:	460c      	mov	r4, r1
   d9196:	ad02      	add	r5, sp, #8
   d9198:	f854 3b04 	ldr.w	r3, [r4], #4
   d919c:	f845 3d08 	str.w	r3, [r5, #-8]!
   d91a0:	4606      	mov	r6, r0
   d91a2:	460f      	mov	r7, r1
   d91a4:	a801      	add	r0, sp, #4
   d91a6:	4621      	mov	r1, r4
   d91a8:	f7fe f81a 	bl	d71e0 <_ZNSt14__shared_countILN9__gnu_cxx12_Lock_policyE0EEC1ERKS2_>
        auto d = static_cast<detail::FutureImplPtr<ResultT, ContextT>*>(data);
        const Promise<ResultT, ContextT> p(*d);
   d91ac:	4629      	mov	r1, r5
   d91ae:	4630      	mov	r0, r6
   d91b0:	f7ff ffde 	bl	d9170 <_ZN8particle6FutureIbNS_6detail13FutureContextEEC1ESt10shared_ptrINS1_10FutureImplIbS2_EEE>
      __shared_ptr& operator=(const __shared_ptr&) noexcept = default;
      ~__shared_ptr() = default;
   d91b4:	a801      	add	r0, sp, #4
   d91b6:	f7fb fa1b 	bl	d45f0 <_ZNSt14__shared_countILN9__gnu_cxx12_Lock_policyE0EED1Ev>
   d91ba:	4620      	mov	r0, r4
   d91bc:	f7fb fa18 	bl	d45f0 <_ZNSt14__shared_countILN9__gnu_cxx12_Lock_policyE0EED1Ev>
        delete d;
   d91c0:	4638      	mov	r0, r7
   d91c2:	2108      	movs	r1, #8
   d91c4:	f001 fa44 	bl	da650 <_ZdlPvj>
        return p;
    }
   d91c8:	4630      	mov	r0, r6
   d91ca:	b003      	add	sp, #12
   d91cc:	bdf0      	pop	{r4, r5, r6, r7, pc}
	...

000d91d0 <_ZNSt14__shared_countILN9__gnu_cxx12_Lock_policyE0EEC1IPN8particle6detail10FutureImplIbNS5_13FutureContextEEEEET_>:
      constexpr __shared_count() noexcept : _M_pi(0)
      { }

      template<typename _Ptr>
        explicit
	__shared_count(_Ptr __p) : _M_pi(0)
   d91d0:	b538      	push	{r3, r4, r5, lr}
   d91d2:	2300      	movs	r3, #0
   d91d4:	4604      	mov	r4, r0
   d91d6:	6003      	str	r3, [r0, #0]
	{
	  __try
	    {
	      _M_pi = new _Sp_counted_ptr<_Ptr, _Lp>(__p);
   d91d8:	2010      	movs	r0, #16
      constexpr __shared_count() noexcept : _M_pi(0)
      { }

      template<typename _Ptr>
        explicit
	__shared_count(_Ptr __p) : _M_pi(0)
   d91da:	460d      	mov	r5, r1
	{
	  __try
	    {
	      _M_pi = new _Sp_counted_ptr<_Ptr, _Lp>(__p);
   d91dc:	f7fa ff5b 	bl	d4096 <_Znwj>
   d91e0:	b128      	cbz	r0, d91ee <_ZNSt14__shared_countILN9__gnu_cxx12_Lock_policyE0EEC1IPN8particle6detail10FutureImplIbNS5_13FutureContextEEEEET_+0x1e>
    class _Sp_counted_base
    : public _Mutex_base<_Lp>
    {
    public:  
      _Sp_counted_base() noexcept
      : _M_use_count(1), _M_weak_count(1) { }
   d91e2:	2301      	movs	r3, #1
   d91e4:	6043      	str	r3, [r0, #4]
   d91e6:	6083      	str	r3, [r0, #8]
    class _Sp_counted_ptr final : public _Sp_counted_base<_Lp>
    {
    public:
      explicit
      _Sp_counted_ptr(_Ptr __p) noexcept
      : _M_ptr(__p) { }
   d91e8:	4b02      	ldr	r3, [pc, #8]	; (d91f4 <_ZNSt14__shared_countILN9__gnu_cxx12_Lock_policyE0EEC1IPN8particle6detail10FutureImplIbNS5_13FutureContextEEEEET_+0x24>)
   d91ea:	6003      	str	r3, [r0, #0]
   d91ec:	60c5      	str	r5, [r0, #12]
        explicit
	__shared_count(_Ptr __p) : _M_pi(0)
	{
	  __try
	    {
	      _M_pi = new _Sp_counted_ptr<_Ptr, _Lp>(__p);
   d91ee:	6020      	str	r0, [r4, #0]
	  __catch(...)
	    {
	      delete __p;
	      __throw_exception_again;
	    }
	}
   d91f0:	4620      	mov	r0, r4
   d91f2:	bd38      	pop	{r3, r4, r5, pc}
   d91f4:	000dbd9c 	.word	0x000dbd9c

000d91f8 <_ZNKSt8functionIFvRKN8particle5ErrorEEEclES3_>:
  template<typename _Res, typename... _ArgTypes>
    _Res
    function<_Res(_ArgTypes...)>::
    operator()(_ArgTypes... __args) const
    {
      if (_M_empty())
   d91f8:	6882      	ldr	r2, [r0, #8]
	  }
      }

  template<typename _Res, typename... _ArgTypes>
    _Res
    function<_Res(_ArgTypes...)>::
   d91fa:	b510      	push	{r4, lr}
    operator()(_ArgTypes... __args) const
    {
      if (_M_empty())
   d91fc:	b90a      	cbnz	r2, d9202 <_ZNKSt8functionIFvRKN8particle5ErrorEEEclES3_+0xa>
	__throw_bad_function_call();
   d91fe:	f001 fa38 	bl	da672 <_ZSt25__throw_bad_function_callv>
      return _M_invoker(_M_functor, std::forward<_ArgTypes>(__args)...);
   d9202:	68c3      	ldr	r3, [r0, #12]
    }
   d9204:	e8bd 4010 	ldmia.w	sp!, {r4, lr}
    function<_Res(_ArgTypes...)>::
    operator()(_ArgTypes... __args) const
    {
      if (_M_empty())
	__throw_bad_function_call();
      return _M_invoker(_M_functor, std::forward<_ArgTypes>(__args)...);
   d9208:	4718      	bx	r3

000d920a <_ZNSt17_Function_handlerIFvvESt5_BindIFSt8functionIFvRKN8particle5ErrorEEES4_EEE9_M_invokeERKSt9_Any_data>:
    {
      typedef _Function_base::_Base_manager<_Functor> _Base;

     public:
      static void
      _M_invoke(const _Any_data& __functor, _ArgTypes&&... __args)
   d920a:	b508      	push	{r3, lr}
	static _Functor*
	_M_get_pointer(const _Any_data& __source)
	{
	  const _Functor* __ptr =
	    __stored_locally? std::__addressof(__source._M_access<_Functor>())
	    /* have stored a pointer */ : __source._M_access<_Functor*>();
   d920c:	6800      	ldr	r0, [r0, #0]
      template<typename _Result, typename... _Args, std::size_t... _Indexes>
	_Result
	__call(tuple<_Args...>&& __args, _Index_tuple<_Indexes...>)
	{
	  return _M_f(_Mu<_Bound_args>()
		      (std::get<_Indexes>(_M_bound_args), __args)...);
   d920e:	f100 0110 	add.w	r1, r0, #16
   d9212:	f7ff fff1 	bl	d91f8 <_ZNKSt8functionIFvRKN8particle5ErrorEEEclES3_>
   d9216:	bd08      	pop	{r3, pc}

000d9218 <_ZNKSt8functionIFvRKbEEclES1_>:
  template<typename _Res, typename... _ArgTypes>
    _Res
    function<_Res(_ArgTypes...)>::
    operator()(_ArgTypes... __args) const
    {
      if (_M_empty())
   d9218:	6882      	ldr	r2, [r0, #8]
	  }
      }

  template<typename _Res, typename... _ArgTypes>
    _Res
    function<_Res(_ArgTypes...)>::
   d921a:	b510      	push	{r4, lr}
    operator()(_ArgTypes... __args) const
    {
      if (_M_empty())
   d921c:	b90a      	cbnz	r2, d9222 <_ZNKSt8functionIFvRKbEEclES1_+0xa>
	__throw_bad_function_call();
   d921e:	f001 fa28 	bl	da672 <_ZSt25__throw_bad_function_callv>
      return _M_invoker(_M_functor, std::forward<_ArgTypes>(__args)...);
   d9222:	68c3      	ldr	r3, [r0, #12]
    }
   d9224:	e8bd 4010 	ldmia.w	sp!, {r4, lr}
    function<_Res(_ArgTypes...)>::
    operator()(_ArgTypes... __args) const
    {
      if (_M_empty())
	__throw_bad_function_call();
      return _M_invoker(_M_functor, std::forward<_ArgTypes>(__args)...);
   d9228:	4718      	bx	r3

000d922a <_ZNSt17_Function_handlerIFvvESt5_BindIFSt8functionIFvRKbEEbEEE9_M_invokeERKSt9_Any_data>:
    {
      typedef _Function_base::_Base_manager<_Functor> _Base;

     public:
      static void
      _M_invoke(const _Any_data& __functor, _ArgTypes&&... __args)
   d922a:	b508      	push	{r3, lr}
	static _Functor*
	_M_get_pointer(const _Any_data& __source)
	{
	  const _Functor* __ptr =
	    __stored_locally? std::__addressof(__source._M_access<_Functor>())
	    /* have stored a pointer */ : __source._M_access<_Functor*>();
   d922c:	6800      	ldr	r0, [r0, #0]
      template<typename _Result, typename... _Args, std::size_t... _Indexes>
	_Result
	__call(tuple<_Args...>&& __args, _Index_tuple<_Indexes...>)
	{
	  return _M_f(_Mu<_Bound_args>()
		      (std::get<_Indexes>(_M_bound_args), __args)...);
   d922e:	f100 0110 	add.w	r1, r0, #16
   d9232:	f7ff fff1 	bl	d9218 <_ZNKSt8functionIFvRKbEEclES1_>
   d9236:	bd08      	pop	{r3, pc}

000d9238 <_ZNSt8functionIFvRKN8particle5ErrorEEEC1ERKS5_>:
      _Invoker_type _M_invoker;
  };

  // Out-of-line member definitions.
  template<typename _Res, typename... _ArgTypes>
    function<_Res(_ArgTypes...)>::
   d9238:	b538      	push	{r3, r4, r5, lr}
	{
	  _Base::_M_init_functor(__functor, std::__addressof(__f.get()));
	}
      };

    _Function_base() : _M_manager(nullptr) { }
   d923a:	2300      	movs	r3, #0
   d923c:	6083      	str	r3, [r0, #8]
   d923e:	688b      	ldr	r3, [r1, #8]
      _Invoker_type _M_invoker;
  };

  // Out-of-line member definitions.
  template<typename _Res, typename... _ArgTypes>
    function<_Res(_ArgTypes...)>::
   d9240:	4604      	mov	r4, r0
   d9242:	460d      	mov	r5, r1
    function(const function& __x)
    : _Function_base()
    {
      if (static_cast<bool>(__x))
   d9244:	b12b      	cbz	r3, d9252 <_ZNSt8functionIFvRKN8particle5ErrorEEEC1ERKS5_+0x1a>
	{
	  __x._M_manager(_M_functor, __x._M_functor, __clone_functor);
   d9246:	2202      	movs	r2, #2
   d9248:	4798      	blx	r3
	  _M_invoker = __x._M_invoker;
   d924a:	68eb      	ldr	r3, [r5, #12]
   d924c:	60e3      	str	r3, [r4, #12]
	  _M_manager = __x._M_manager;
   d924e:	68ab      	ldr	r3, [r5, #8]
   d9250:	60a3      	str	r3, [r4, #8]
	}
    }
   d9252:	4620      	mov	r0, r4
   d9254:	bd38      	pop	{r3, r4, r5, pc}
	...

000d9258 <_ZN8particle11PromiseBaseIbNS_6detail13FutureContextEE8setErrorENS_5ErrorE>:

    explicit PromiseBase(detail::FutureImplPtr<ResultT, ContextT> ptr) :
            p_(std::move(ptr)) {
    }

    void setError(Error error) {
   d9258:	b5f0      	push	{r4, r5, r6, r7, lr}
   d925a:	b089      	sub	sp, #36	; 0x24
   d925c:	6804      	ldr	r4, [r0, #0]
        p_->setError(std::move(error));
   d925e:	4668      	mov	r0, sp
   d9260:	f7ff ff4d 	bl	d90fe <_ZN8particle5ErrorC1EOS0_>
            onSuccess_(nullptr),
            onError_(nullptr) {
    }

    bool changeState(State state) {
        State s = State::RUNNING; // Expected state
   d9264:	2300      	movs	r3, #0
   d9266:	f88d 3008 	strb.w	r3, [sp, #8]

      bool
      compare_exchange_strong(_Tp& __e, _Tp __i, memory_order __s, 
			      memory_order __f) noexcept
      {
	return __atomic_compare_exchange(&_M_i, &__e, &__i, false, __s, __f);
   d926a:	f04f 0202 	mov.w	r2, #2
   d926e:	e8d4 3f4f 	ldrexb	r3, [r4]
   d9272:	2b00      	cmp	r3, #0
   d9274:	d103      	bne.n	d927e <_ZN8particle11PromiseBaseIbNS_6detail13FutureContextEE8setErrorENS_5ErrorE+0x26>
   d9276:	e8c4 2f41 	strexb	r1, r2, [r4]
   d927a:	2900      	cmp	r1, #0
   d927c:	d1f7      	bne.n	d926e <_ZN8particle11PromiseBaseIbNS_6detail13FutureContextEE8setErrorENS_5ErrorE+0x16>
   d927e:	d002      	beq.n	d9286 <_ZN8particle11PromiseBaseIbNS_6detail13FutureContextEE8setErrorENS_5ErrorE+0x2e>
   d9280:	f88d 3008 	strb.w	r3, [sp, #8]
   d9284:	e063      	b.n	d934e <_ZN8particle11PromiseBaseIbNS_6detail13FutureContextEE8setErrorENS_5ErrorE+0xf6>
        return std::move(defaultValue);
    }

    void setError(Error error) {
        if (this->changeState(State::FAILED)) {
            new(&error_) Error(std::move(error));
   d9286:	f114 050c 	adds.w	r5, r4, #12
   d928a:	d003      	beq.n	d9294 <_ZN8particle11PromiseBaseIbNS_6detail13FutureContextEE8setErrorENS_5ErrorE+0x3c>
   d928c:	4669      	mov	r1, sp
   d928e:	4628      	mov	r0, r5
   d9290:	f7ff ff35 	bl	d90fe <_ZN8particle5ErrorC1EOS0_>
        memory_order __b = __m & __memory_order_mask;
	__glibcxx_assert(__b != memory_order_acquire);
	__glibcxx_assert(__b != memory_order_acq_rel);
	__glibcxx_assert(__b != memory_order_consume);

	__atomic_store_n(&_M_i, __i, __m);
   d9294:	f3bf 8f5f 	dmb	sy
   d9298:	2301      	movs	r3, #1
   d929a:	7063      	strb	r3, [r4, #1]

      _GLIBCXX_ALWAYS_INLINE __pointer_type
      exchange(__pointer_type __p,
	       memory_order __m = memory_order_seq_cst) noexcept
      {
	return __atomic_exchange_n(&_M_p, __p, __m);
   d929c:	2000      	movs	r0, #0
   d929e:	f104 0308 	add.w	r3, r4, #8
   d92a2:	f3bf 8f5f 	dmb	sy
   d92a6:	e853 6f00 	ldrex	r6, [r3]
   d92aa:	e843 0200 	strex	r2, r0, [r3]
   d92ae:	2a00      	cmp	r2, #0
   d92b0:	d1f9      	bne.n	d92a6 <_ZN8particle11PromiseBaseIbNS_6detail13FutureContextEE8setErrorENS_5ErrorE+0x4e>
   d92b2:	f3bf 8f5f 	dmb	sy

    // Takes a callback from its atomic wrapper and invokes it
    template<typename FunctionT, typename... ArgsT>
    static void invokeCallback(std::atomic<std::function<FunctionT>*>& wrapper, ArgsT&&... args) {
        std::function<FunctionT>* callbackPtr = wrapper.exchange(nullptr, std::memory_order_acq_rel);
        if (callbackPtr) {
   d92b6:	2e00      	cmp	r6, #0
   d92b8:	d049      	beq.n	d934e <_ZN8particle11PromiseBaseIbNS_6detail13FutureContextEE8setErrorENS_5ErrorE+0xf6>
        return (application_thread_invoke(callback, data, nullptr) == 0);
    }

    // Returns true if current thread is the application thread
    static bool isApplicationThreadCurrent() {
        return (application_thread_current(nullptr) != 0);
   d92ba:	f7fd f833 	bl	d6324 <application_thread_current>
    }

    // Invokes std::function in the application context
    template<typename FunctionT, typename... ArgsT>
    static void invokeCallback(const std::function<FunctionT>& callback, ArgsT&&... args) {
        if (ContextT::isApplicationThreadCurrent()) {
   d92be:	b120      	cbz	r0, d92ca <_ZN8particle11PromiseBaseIbNS_6detail13FutureContextEE8setErrorENS_5ErrorE+0x72>
            callback(std::forward<ArgsT>(args)...); // Synchronous call
   d92c0:	4629      	mov	r1, r5
   d92c2:	4630      	mov	r0, r6
   d92c4:	f7ff ff98 	bl	d91f8 <_ZNKSt8functionIFvRKN8particle5ErrorEEEclES3_>
   d92c8:	e03a      	b.n	d9340 <_ZN8particle11PromiseBaseIbNS_6detail13FutureContextEE8setErrorENS_5ErrorE+0xe8>
	}

     public:
      template<typename... _Args>
	explicit _Bind(const _Functor& __f, _Args&&... __args)
	: _M_f(__f), _M_bound_args(std::forward<_Args>(__args)...)
   d92ca:	4631      	mov	r1, r6
   d92cc:	a802      	add	r0, sp, #8
   d92ce:	f7ff ffb3 	bl	d9238 <_ZNSt8functionIFvRKN8particle5ErrorEEEC1ERKS5_>
inline particle::Error::Error(const char* msg) :
        Error(UNKNOWN, msg) {
}

inline particle::Error::Error(const Error& error) :
        Error(error.type_, error.msg_) {
   d92d2:	68e0      	ldr	r0, [r4, #12]
   d92d4:	f9b4 5010 	ldrsh.w	r5, [r4, #16]
        type_(type) {
}

inline particle::Error::Error(Type type, const char* msg) :
        msg_(msg ? (const char*)strdup(msg) : nullptr),
        type_(type) {
   d92d8:	b108      	cbz	r0, d92de <_ZN8particle11PromiseBaseIbNS_6detail13FutureContextEE8setErrorENS_5ErrorE+0x86>
   d92da:	f001 fbb3 	bl	daa44 <strdup>
   d92de:	9006      	str	r0, [sp, #24]
        } else {
            // Bind all arguments and wrap resulting function into a pointer
            auto callbackPtr = new std::function<void()>(std::bind(callback, std::forward<ArgsT>(args)...));
   d92e0:	2010      	movs	r0, #16
   d92e2:	f8ad 501c 	strh.w	r5, [sp, #28]
   d92e6:	f7fa fed6 	bl	d4096 <_Znwj>
   d92ea:	4605      	mov	r5, r0
   d92ec:	b1e8      	cbz	r0, d932a <_ZN8particle11PromiseBaseIbNS_6detail13FutureContextEE8setErrorENS_5ErrorE+0xd2>
	{
	  _Base::_M_init_functor(__functor, std::__addressof(__f.get()));
	}
      };

    _Function_base() : _M_manager(nullptr) { }
   d92ee:	2700      	movs	r7, #0
   d92f0:	6087      	str	r7, [r0, #8]
	_M_init_functor(_Any_data& __functor, _Functor&& __f, true_type)
	{ new (__functor._M_access()) _Functor(std::move(__f)); }

	static void
	_M_init_functor(_Any_data& __functor, _Functor&& __f, false_type)
	{ __functor._M_access<_Functor*>() = new _Functor(std::move(__f)); }
   d92f2:	2018      	movs	r0, #24
   d92f4:	f7fa fecf 	bl	d4096 <_Znwj>
   d92f8:	4604      	mov	r4, r0
   d92fa:	b188      	cbz	r0, d9320 <_ZN8particle11PromiseBaseIbNS_6detail13FutureContextEE8setErrorENS_5ErrorE+0xc8>
       *  Swap the targets of @c this function object and @a __f. This
       *  function will not throw an %exception.
       */
      void swap(function& __x)
      {
	std::swap(_M_functor, __x._M_functor);
   d92fc:	4601      	mov	r1, r0
	{
	  _Base::_M_init_functor(__functor, std::__addressof(__f.get()));
	}
      };

    _Function_base() : _M_manager(nullptr) { }
   d92fe:	6087      	str	r7, [r0, #8]
       *  Swap the targets of @c this function object and @a __f. This
       *  function will not throw an %exception.
       */
      void swap(function& __x)
      {
	std::swap(_M_functor, __x._M_functor);
   d9300:	a802      	add	r0, sp, #8
   d9302:	f7ff fe46 	bl	d8f92 <_ZSt4swapISt9_Any_dataEvRT_S2_>
#endif
    {
      // concept requirements
      __glibcxx_function_requires(_SGIAssignableConcept<_Tp>)

      _Tp __tmp = _GLIBCXX_MOVE(__a);
   d9306:	9b04      	ldr	r3, [sp, #16]
      __a = _GLIBCXX_MOVE(__b);
   d9308:	68a2      	ldr	r2, [r4, #8]
      __b = _GLIBCXX_MOVE(__tmp);
   d930a:	60a3      	str	r3, [r4, #8]
#endif
    {
      // concept requirements
      __glibcxx_function_requires(_SGIAssignableConcept<_Tp>)

      _Tp __tmp = _GLIBCXX_MOVE(__a);
   d930c:	9b05      	ldr	r3, [sp, #20]
      __a = _GLIBCXX_MOVE(__b);
   d930e:	9204      	str	r2, [sp, #16]
   d9310:	a906      	add	r1, sp, #24
   d9312:	68e2      	ldr	r2, [r4, #12]
      __b = _GLIBCXX_MOVE(__tmp);
   d9314:	60e3      	str	r3, [r4, #12]
   d9316:	f104 0010 	add.w	r0, r4, #16
    {
      // concept requirements
      __glibcxx_function_requires(_SGIAssignableConcept<_Tp>)

      _Tp __tmp = _GLIBCXX_MOVE(__a);
      __a = _GLIBCXX_MOVE(__b);
   d931a:	9205      	str	r2, [sp, #20]
   d931c:	f7ff feef 	bl	d90fe <_ZN8particle5ErrorC1EOS0_>
	typedef _Function_handler<_Signature_type, _Functor> _My_handler;

	if (_My_handler::_M_not_empty_function(__f))
	  {
	    _My_handler::_M_init_functor(_M_functor, std::move(__f));
	    _M_invoker = &_My_handler::_M_invoke;
   d9320:	4b0d      	ldr	r3, [pc, #52]	; (d9358 <_ZN8particle11PromiseBaseIbNS_6detail13FutureContextEE8setErrorENS_5ErrorE+0x100>)
   d9322:	60eb      	str	r3, [r5, #12]
	    _M_manager = &_My_handler::_M_manager;
   d9324:	4b0d      	ldr	r3, [pc, #52]	; (d935c <_ZN8particle11PromiseBaseIbNS_6detail13FutureContextEE8setErrorENS_5ErrorE+0x104>)
	_M_init_functor(_Any_data& __functor, _Functor&& __f, true_type)
	{ new (__functor._M_access()) _Functor(std::move(__f)); }

	static void
	_M_init_functor(_Any_data& __functor, _Functor&& __f, false_type)
	{ __functor._M_access<_Functor*>() = new _Functor(std::move(__f)); }
   d9326:	602c      	str	r4, [r5, #0]

	if (_My_handler::_M_not_empty_function(__f))
	  {
	    _My_handler::_M_init_functor(_M_functor, std::move(__f));
	    _M_invoker = &_My_handler::_M_invoke;
	    _M_manager = &_My_handler::_M_manager;
   d9328:	60ab      	str	r3, [r5, #8]
      static constexpr const _Head&
      _M_head(const _Head_base& __b) noexcept { return __b; }
    };

  template<std::size_t _Idx, typename _Head>
    struct _Head_base<_Idx, _Head, false>
   d932a:	a806      	add	r0, sp, #24
   d932c:	f7ff fef6 	bl	d911c <_ZN8particle5ErrorD1Ev>
   *  @ingroup functors
   *
   *  Polymorphic function wrapper.
   */
  template<typename _Res, typename... _ArgTypes>
    class function<_Res(_ArgTypes...)>
   d9330:	a802      	add	r0, sp, #8
   d9332:	f7ff fe1f 	bl	d8f74 <_ZNSt14_Function_baseD1Ev>
        spark_process();
    }

    // Asynchronously invokes a callback in the application context
    static bool invokeApplicationCallback(void (*callback)(void* data), void* data) {
        return (application_thread_invoke(callback, data, nullptr) == 0);
   d9336:	2200      	movs	r2, #0
   d9338:	4629      	mov	r1, r5
   d933a:	4809      	ldr	r0, [pc, #36]	; (d9360 <_ZN8particle11PromiseBaseIbNS_6detail13FutureContextEE8setErrorENS_5ErrorE+0x108>)
   d933c:	f7fc fffa 	bl	d6334 <application_thread_invoke>
   d9340:	4630      	mov	r0, r6
   d9342:	f7ff fe17 	bl	d8f74 <_ZNSt14_Function_baseD1Ev>
    template<typename FunctionT, typename... ArgsT>
    static void invokeCallback(std::atomic<std::function<FunctionT>*>& wrapper, ArgsT&&... args) {
        std::function<FunctionT>* callbackPtr = wrapper.exchange(nullptr, std::memory_order_acq_rel);
        if (callbackPtr) {
            invokeCallback(*callbackPtr, std::forward<ArgsT>(args)...);
            delete callbackPtr;
   d9346:	2110      	movs	r1, #16
   d9348:	4630      	mov	r0, r6
   d934a:	f001 f981 	bl	da650 <_ZdlPvj>
    explicit PromiseBase(detail::FutureImplPtr<ResultT, ContextT> ptr) :
            p_(std::move(ptr)) {
    }

    void setError(Error error) {
        p_->setError(std::move(error));
   d934e:	4668      	mov	r0, sp
   d9350:	f7ff fee4 	bl	d911c <_ZN8particle5ErrorD1Ev>
    }
   d9354:	b009      	add	sp, #36	; 0x24
   d9356:	bdf0      	pop	{r4, r5, r6, r7, pc}
   d9358:	000d920b 	.word	0x000d920b
   d935c:	000d9481 	.word	0x000d9481
   d9360:	000d99b5 	.word	0x000d99b5

000d9364 <_ZN10CloudClass13publish_eventEPKcS1_iN8particle5FlagsI15PublishFlagTypehEE>:
    desc.data = (void*)data;
    desc.funcKey = funcKey;
    return spark_function(NULL, (user_function_int_str_t*)&desc, NULL);
}

Future<bool> CloudClass::publish_event(const char *eventName, const char *eventData, int ttl, PublishFlags flags) {
   d9364:	e92d 4ff0 	stmdb	sp!, {r4, r5, r6, r7, r8, r9, sl, fp, lr}
   d9368:	b08b      	sub	sp, #44	; 0x2c
   d936a:	4606      	mov	r6, r0
   d936c:	460f      	mov	r7, r1
   d936e:	4690      	mov	r8, r2
   d9370:	4699      	mov	r9, r3
   d9372:	f89d a050 	ldrb.w	sl, [sp, #80]	; 0x50
    static void sleep(Spark_Sleep_TypeDef sleepMode, long seconds=0) __attribute__ ((deprecated("Please use System.sleep() instead.")))
    { SystemClass::sleep(sleepMode, seconds); }
    static void sleep(uint16_t wakeUpPin, InterruptMode edgeTriggerMode, long seconds=0) __attribute__ ((deprecated("Please use System.sleep() instead.")))
    { SystemClass::sleep(wakeUpPin, edgeTriggerMode, seconds); }

    static bool connected(void) { return spark_cloud_flag_connected(); }
   d9376:	f7fd f849 	bl	d640c <spark_cloud_flag_connected>
   d937a:	ad07      	add	r5, sp, #28
    if (!connected()) {
   d937c:	4683      	mov	fp, r0
   d937e:	bb30      	cbnz	r0, d93ce <_ZN10CloudClass13publish_eventEPKcS1_iN8particle5FlagsI15PublishFlagTypehEE+0x6a>

} // namespace particle

inline particle::Error::Error(Type type) :
        msg_(nullptr),
        type_(type) {
   d9380:	f64f 732e 	movw	r3, #65326	; 0xff2e
   d9384:	9005      	str	r0, [sp, #20]
    typedef typename detail::FutureImpl<ResultT, ContextT>::OnSuccessCallback OnSuccessCallback;
    typedef typename detail::FutureImpl<ResultT, ContextT>::OnErrorCallback OnErrorCallback;

    // Construct failed future
    explicit FutureBase(Error error) :
            p_(new detail::FutureImpl<ResultT, ContextT>(std::move(error))) {
   d9386:	a905      	add	r1, sp, #20
   d9388:	4628      	mov	r0, r5
   d938a:	f8ad 3018 	strh.w	r3, [sp, #24]
   d938e:	f7ff feb6 	bl	d90fe <_ZN8particle5ErrorC1EOS0_>
   d9392:	2014      	movs	r0, #20
   d9394:	f7fa fe7f 	bl	d4096 <_Znwj>
   d9398:	4604      	mov	r4, r0
   d939a:	b158      	cbz	r0, d93b4 <_ZN10CloudClass13publish_eventEPKcS1_iN8particle5FlagsI15PublishFlagTypehEE+0x50>
      ~atomic() noexcept = default;
      atomic(const atomic&) = delete;
      atomic& operator=(const atomic&) = delete;
      atomic& operator=(const atomic&) volatile = delete;

      constexpr atomic(_Tp __i) noexcept : _M_i(__i) { }
   d939c:	2302      	movs	r3, #2
   d939e:	7003      	strb	r3, [r0, #0]
      __atomic_base(const __atomic_base&) = delete;
      __atomic_base& operator=(const __atomic_base&) = delete;
      __atomic_base& operator=(const __atomic_base&) volatile = delete;

      // Requires __int_type convertible to _M_i.
      constexpr __atomic_base(__int_type __i) noexcept : _M_i (__i) { }
   d93a0:	2301      	movs	r3, #1
   d93a2:	7043      	strb	r3, [r0, #1]
      __atomic_base(const __atomic_base&) = delete;
      __atomic_base& operator=(const __atomic_base&) = delete;
      __atomic_base& operator=(const __atomic_base&) volatile = delete;

      // Requires __pointer_type convertible to _M_p.
      constexpr __atomic_base(__pointer_type __p) noexcept : _M_p (__p) { }
   d93a4:	f8c0 b004 	str.w	fp, [r0, #4]
   d93a8:	f8c0 b008 	str.w	fp, [r0, #8]
            result_(std::move(result)) {
    }

    explicit FutureImpl(Error error) :
            FutureImplBase<ResultT, ContextT>(State::FAILED),
            error_(std::move(error)) {
   d93ac:	4629      	mov	r1, r5
   d93ae:	300c      	adds	r0, #12
   d93b0:	f7ff fea5 	bl	d90fe <_ZN8particle5ErrorC1EOS0_>
      : _M_ptr(0), _M_refcount()
      { }

      template<typename _Tp1>
	explicit __shared_ptr(_Tp1* __p)
        : _M_ptr(__p), _M_refcount(__p)
   d93b4:	4630      	mov	r0, r6
   d93b6:	4621      	mov	r1, r4
   d93b8:	f840 4b04 	str.w	r4, [r0], #4
   d93bc:	f7ff ff08 	bl	d91d0 <_ZNSt14__shared_countILN9__gnu_cxx12_Lock_policyE0EEC1IPN8particle6detail10FutureImplIbNS5_13FutureContextEEEEET_>
    typedef typename detail::FutureImpl<ResultT, ContextT>::OnSuccessCallback OnSuccessCallback;
    typedef typename detail::FutureImpl<ResultT, ContextT>::OnErrorCallback OnErrorCallback;

    // Construct failed future
    explicit FutureBase(Error error) :
            p_(new detail::FutureImpl<ResultT, ContextT>(std::move(error))) {
   d93c0:	4628      	mov	r0, r5
   d93c2:	f7ff feab 	bl	d911c <_ZN8particle5ErrorD1Ev>
    }

    explicit FutureBase(Error::Type error) :
            FutureBase(Error(error)) {
   d93c6:	a805      	add	r0, sp, #20
   d93c8:	f7ff fea8 	bl	d911c <_ZN8particle5ErrorD1Ev>
   d93cc:	e052      	b.n	d9474 <_ZN10CloudClass13publish_eventEPKcS1_iN8particle5FlagsI15PublishFlagTypehEE+0x110>
        return Future<bool>(Error::INVALID_STATE);
    }
    spark_send_event_data d = { sizeof(spark_send_event_data) };
   d93ce:	2400      	movs	r4, #0
   d93d0:	230c      	movs	r3, #12
// can be acquired via Future
template<typename ResultT, typename ContextT>
class PromiseBase {
public:
    PromiseBase() :
            p_(new detail::FutureImpl<ResultT, ContextT>(State::RUNNING)) {
   d93d2:	2014      	movs	r0, #20
   d93d4:	606c      	str	r4, [r5, #4]
   d93d6:	60ac      	str	r4, [r5, #8]
   d93d8:	9307      	str	r3, [sp, #28]
   d93da:	f7fa fe5c 	bl	d4096 <_Znwj>
   d93de:	4601      	mov	r1, r0
   d93e0:	b118      	cbz	r0, d93ea <_ZN10CloudClass13publish_eventEPKcS1_iN8particle5FlagsI15PublishFlagTypehEE+0x86>
   d93e2:	7004      	strb	r4, [r0, #0]
      __atomic_base(const __atomic_base&) = delete;
      __atomic_base& operator=(const __atomic_base&) = delete;
      __atomic_base& operator=(const __atomic_base&) volatile = delete;

      // Requires __int_type convertible to _M_i.
      constexpr __atomic_base(__int_type __i) noexcept : _M_i (__i) { }
   d93e4:	7044      	strb	r4, [r0, #1]
      __atomic_base(const __atomic_base&) = delete;
      __atomic_base& operator=(const __atomic_base&) = delete;
      __atomic_base& operator=(const __atomic_base&) volatile = delete;

      // Requires __pointer_type convertible to _M_p.
      constexpr __atomic_base(__pointer_type __p) noexcept : _M_p (__p) { }
   d93e6:	6044      	str	r4, [r0, #4]
   d93e8:	6084      	str	r4, [r0, #8]
   d93ea:	a804      	add	r0, sp, #16
   d93ec:	9103      	str	r1, [sp, #12]
   d93ee:	f7ff feef 	bl	d91d0 <_ZNSt14__shared_countILN9__gnu_cxx12_Lock_policyE0EEC1IPN8particle6detail10FutureImplIbNS5_13FutureContextEEEEET_>

    // Completion handler
    Promise<bool> p;
    d.handler_callback = publishCompletionCallback;
   d93f2:	4b22      	ldr	r3, [pc, #136]	; (d947c <_ZN10CloudClass13publish_eventEPKcS1_iN8particle5FlagsI15PublishFlagTypehEE+0x118>)
   d93f4:	9308      	str	r3, [sp, #32]
    }

    // Wraps this promise into an object pointer that can be passed to a C function
    void* dataPtr() const {
        // TODO: Use custom reference counting object to avoid unnecessary memory allocation
        return new detail::FutureImplPtr<ResultT, ContextT>(p_);
   d93f6:	2008      	movs	r0, #8
   d93f8:	f7fa fe4d 	bl	d4096 <_Znwj>
   d93fc:	4604      	mov	r4, r0
   d93fe:	b128      	cbz	r0, d940c <_ZN10CloudClass13publish_eventEPKcS1_iN8particle5FlagsI15PublishFlagTypehEE+0xa8>
      template<typename _Tp1>
	__shared_ptr(const __shared_ptr<_Tp1, _Lp>& __r, _Tp* __p) noexcept
	: _M_ptr(__p), _M_refcount(__r._M_refcount) // never throws
	{ }

      __shared_ptr(const __shared_ptr&) noexcept = default;
   d9400:	9b03      	ldr	r3, [sp, #12]
   d9402:	f840 3b04 	str.w	r3, [r0], #4
   d9406:	a904      	add	r1, sp, #16
   d9408:	f7fd feea 	bl	d71e0 <_ZNSt14__shared_countILN9__gnu_cxx12_Lock_policyE0EEC1ERKS2_>
    d.handler_data = p.dataPtr();

    if (!spark_send_event(eventName, eventData, ttl, flags.value(), &d) && !p.isDone()) {
   d940c:	9500      	str	r5, [sp, #0]
   d940e:	fa5f f38a 	uxtb.w	r3, sl
   d9412:	464a      	mov	r2, r9
   d9414:	4641      	mov	r1, r8
   d9416:	4638      	mov	r0, r7
    spark_send_event_data d = { sizeof(spark_send_event_data) };

    // Completion handler
    Promise<bool> p;
    d.handler_callback = publishCompletionCallback;
    d.handler_data = p.dataPtr();
   d9418:	9409      	str	r4, [sp, #36]	; 0x24

    if (!spark_send_event(eventName, eventData, ttl, flags.value(), &d) && !p.isDone()) {
   d941a:	f7fc ffff 	bl	d641c <spark_send_event>
   d941e:	b920      	cbnz	r0, d942a <_ZN10CloudClass13publish_eventEPKcS1_iN8particle5FlagsI15PublishFlagTypehEE+0xc6>
      {
       memory_order __b = __m & __memory_order_mask;
	__glibcxx_assert(__b != memory_order_release);
	__glibcxx_assert(__b != memory_order_acq_rel);

	return __atomic_load_n(&_M_i, __m);
   d9420:	9b03      	ldr	r3, [sp, #12]
   d9422:	785b      	ldrb	r3, [r3, #1]
   d9424:	f003 02ff 	and.w	r2, r3, #255	; 0xff
   d9428:	b183      	cbz	r3, d944c <_ZN10CloudClass13publish_eventEPKcS1_iN8particle5FlagsI15PublishFlagTypehEE+0xe8>
   d942a:	9b03      	ldr	r3, [sp, #12]
   d942c:	9305      	str	r3, [sp, #20]
   d942e:	a904      	add	r1, sp, #16
   d9430:	a806      	add	r0, sp, #24
   d9432:	f7fd fed5 	bl	d71e0 <_ZNSt14__shared_countILN9__gnu_cxx12_Lock_policyE0EEC1ERKS2_>
    bool isDone() const {
        return p_->isDone();
    }

    Future<ResultT, ContextT> future() const {
        return Future<ResultT, ContextT>(p_);
   d9436:	a905      	add	r1, sp, #20
   d9438:	4630      	mov	r0, r6
   d943a:	f7ff fe99 	bl	d9170 <_ZN8particle6FutureIbNS_6detail13FutureContextEEC1ESt10shared_ptrINS1_10FutureImplIbS2_EEE>
      __shared_ptr& operator=(const __shared_ptr&) noexcept = default;
      ~__shared_ptr() = default;
   d943e:	a806      	add	r0, sp, #24
   d9440:	f7fb f8d6 	bl	d45f0 <_ZNSt14__shared_countILN9__gnu_cxx12_Lock_policyE0EED1Ev>
   d9444:	a804      	add	r0, sp, #16
   d9446:	f7fb f8d3 	bl	d45f0 <_ZNSt14__shared_countILN9__gnu_cxx12_Lock_policyE0EED1Ev>
   d944a:	e013      	b.n	d9474 <_ZN10CloudClass13publish_eventEPKcS1_iN8particle5FlagsI15PublishFlagTypehEE+0x110>
   d944c:	f64f 739c 	movw	r3, #65436	; 0xff9c
        // Set generic error code in case completion callback wasn't invoked for some reason
        p.setError(Error::UNKNOWN);
   d9450:	a905      	add	r1, sp, #20
   d9452:	a803      	add	r0, sp, #12
   d9454:	9205      	str	r2, [sp, #20]
   d9456:	f8ad 3018 	strh.w	r3, [sp, #24]
   d945a:	f7ff fefd 	bl	d9258 <_ZN8particle11PromiseBaseIbNS_6detail13FutureContextEE8setErrorENS_5ErrorE>
   d945e:	a805      	add	r0, sp, #20
   d9460:	f7ff fe5c 	bl	d911c <_ZN8particle5ErrorD1Ev>
        p.fromDataPtr(d.handler_data); // Free wrapper object
   d9464:	a805      	add	r0, sp, #20
   d9466:	9909      	ldr	r1, [sp, #36]	; 0x24
   d9468:	f7ff fe93 	bl	d9192 <_ZN8particle11PromiseBaseIbNS_6detail13FutureContextEE11fromDataPtrEPv>
   d946c:	a806      	add	r0, sp, #24
   d946e:	f7fb f8bf 	bl	d45f0 <_ZNSt14__shared_countILN9__gnu_cxx12_Lock_policyE0EED1Ev>
   d9472:	e7da      	b.n	d942a <_ZN10CloudClass13publish_eventEPKcS1_iN8particle5FlagsI15PublishFlagTypehEE+0xc6>
    }

    return p.future();
}
   d9474:	4630      	mov	r0, r6
   d9476:	b00b      	add	sp, #44	; 0x2c
   d9478:	e8bd 8ff0 	ldmia.w	sp!, {r4, r5, r6, r7, r8, r9, sl, fp, pc}
   d947c:	000d95f1 	.word	0x000d95f1

000d9480 <_ZNSt14_Function_base13_Base_managerISt5_BindIFSt8functionIFvRKN8particle5ErrorEEES4_EEE10_M_managerERSt9_Any_dataRKSC_St18_Manager_operation>:
      public:
	static bool
	_M_manager(_Any_data& __dest, const _Any_data& __source,
		   _Manager_operation __op)
	{
	  switch (__op)
   d9480:	2a02      	cmp	r2, #2
	  delete __victim._M_access<_Functor*>();
	}

      public:
	static bool
	_M_manager(_Any_data& __dest, const _Any_data& __source,
   d9482:	b5f8      	push	{r3, r4, r5, r6, r7, lr}
   d9484:	4604      	mov	r4, r0
		   _Manager_operation __op)
	{
	  switch (__op)
   d9486:	d006      	beq.n	d9496 <_ZNSt14_Function_base13_Base_managerISt5_BindIFSt8functionIFvRKN8particle5ErrorEEES4_EEE10_M_managerERSt9_Any_dataRKSC_St18_Manager_operation+0x16>
   d9488:	2a03      	cmp	r2, #3
   d948a:	d017      	beq.n	d94bc <_ZNSt14_Function_base13_Base_managerISt5_BindIFSt8functionIFvRKN8particle5ErrorEEES4_EEE10_M_managerERSt9_Any_dataRKSC_St18_Manager_operation+0x3c>
   d948c:	2a01      	cmp	r2, #1
   d948e:	d122      	bne.n	d94d6 <_ZNSt14_Function_base13_Base_managerISt5_BindIFSt8functionIFvRKN8particle5ErrorEEES4_EEE10_M_managerERSt9_Any_dataRKSC_St18_Manager_operation+0x56>
	static _Functor*
	_M_get_pointer(const _Any_data& __source)
	{
	  const _Functor* __ptr =
	    __stored_locally? std::__addressof(__source._M_access<_Functor>())
	    /* have stored a pointer */ : __source._M_access<_Functor*>();
   d9490:	680b      	ldr	r3, [r1, #0]
	    case __get_type_info:
	      __dest._M_access<const type_info*>() = &typeid(_Functor);
	      break;
#endif
	    case __get_functor_ptr:
	      __dest._M_access<_Functor*>() = _M_get_pointer(__source);
   d9492:	6003      	str	r3, [r0, #0]
	      break;
   d9494:	e01f      	b.n	d94d6 <_ZNSt14_Function_base13_Base_managerISt5_BindIFSt8functionIFvRKN8particle5ErrorEEES4_EEE10_M_managerERSt9_Any_dataRKSC_St18_Manager_operation+0x56>
	// Clone a function object that is not location-invariant or
	// that cannot fit into an _Any_data structure.
	static void
	_M_clone(_Any_data& __dest, const _Any_data& __source, false_type)
	{
	  __dest._M_access<_Functor*>() =
   d9496:	2018      	movs	r0, #24
   d9498:	680e      	ldr	r6, [r1, #0]
   d949a:	f7fa fdfc 	bl	d4096 <_Znwj>
   d949e:	4605      	mov	r5, r0
   d94a0:	b150      	cbz	r0, d94b8 <_ZNSt14_Function_base13_Base_managerISt5_BindIFSt8functionIFvRKN8particle5ErrorEEES4_EEE10_M_managerERSt9_Any_dataRKSC_St18_Manager_operation+0x38>
      template<typename... _Args>
	explicit _Bind(_Functor&& __f, _Args&&... __args)
	: _M_f(std::move(__f)), _M_bound_args(std::forward<_Args>(__args)...)
	{ }

      _Bind(const _Bind&) = default;
   d94a2:	4631      	mov	r1, r6
   d94a4:	f7ff fec8 	bl	d9238 <_ZNSt8functionIFvRKN8particle5ErrorEEEC1ERKS5_>
inline particle::Error::Error(const char* msg) :
        Error(UNKNOWN, msg) {
}

inline particle::Error::Error(const Error& error) :
        Error(error.type_, error.msg_) {
   d94a8:	6930      	ldr	r0, [r6, #16]
   d94aa:	f9b6 7014 	ldrsh.w	r7, [r6, #20]
        type_(type) {
}

inline particle::Error::Error(Type type, const char* msg) :
        msg_(msg ? (const char*)strdup(msg) : nullptr),
        type_(type) {
   d94ae:	b108      	cbz	r0, d94b4 <_ZNSt14_Function_base13_Base_managerISt5_BindIFSt8functionIFvRKN8particle5ErrorEEES4_EEE10_M_managerERSt9_Any_dataRKSC_St18_Manager_operation+0x34>
   d94b0:	f001 fac8 	bl	daa44 <strdup>
   d94b4:	6128      	str	r0, [r5, #16]
   d94b6:	82af      	strh	r7, [r5, #20]
	// Clone a function object that is not location-invariant or
	// that cannot fit into an _Any_data structure.
	static void
	_M_clone(_Any_data& __dest, const _Any_data& __source, false_type)
	{
	  __dest._M_access<_Functor*>() =
   d94b8:	6025      	str	r5, [r4, #0]
   d94ba:	e00c      	b.n	d94d6 <_ZNSt14_Function_base13_Base_managerISt5_BindIFSt8functionIFvRKN8particle5ErrorEEES4_EEE10_M_managerERSt9_Any_dataRKSC_St18_Manager_operation+0x56>

	// Destroying an object located on the heap.
	static void
	_M_destroy(_Any_data& __victim, false_type)
	{
	  delete __victim._M_access<_Functor*>();
   d94bc:	6804      	ldr	r4, [r0, #0]
   d94be:	b154      	cbz	r4, d94d6 <_ZNSt14_Function_base13_Base_managerISt5_BindIFSt8functionIFvRKN8particle5ErrorEEES4_EEE10_M_managerERSt9_Any_dataRKSC_St18_Manager_operation+0x56>
   d94c0:	f104 0010 	add.w	r0, r4, #16
   d94c4:	f7ff fe2a 	bl	d911c <_ZN8particle5ErrorD1Ev>
   *  @ingroup functors
   *
   *  Polymorphic function wrapper.
   */
  template<typename _Res, typename... _ArgTypes>
    class function<_Res(_ArgTypes...)>
   d94c8:	4620      	mov	r0, r4
   d94ca:	f7ff fd53 	bl	d8f74 <_ZNSt14_Function_baseD1Ev>

	// Destroying an object located on the heap.
	static void
	_M_destroy(_Any_data& __victim, false_type)
	{
	  delete __victim._M_access<_Functor*>();
   d94ce:	2118      	movs	r1, #24
   d94d0:	4620      	mov	r0, r4
   d94d2:	f001 f8bd 	bl	da650 <_ZdlPvj>
	    case __destroy_functor:
	      _M_destroy(__dest, _Local_storage());
	      break;
	    }
	  return false;
	}
   d94d6:	2000      	movs	r0, #0
   d94d8:	bdf8      	pop	{r3, r4, r5, r6, r7, pc}

000d94da <_ZNSt8functionIFvRKbEEC1ERKS3_>:
      _Invoker_type _M_invoker;
  };

  // Out-of-line member definitions.
  template<typename _Res, typename... _ArgTypes>
    function<_Res(_ArgTypes...)>::
   d94da:	b538      	push	{r3, r4, r5, lr}
	{
	  _Base::_M_init_functor(__functor, std::__addressof(__f.get()));
	}
      };

    _Function_base() : _M_manager(nullptr) { }
   d94dc:	2300      	movs	r3, #0
   d94de:	6083      	str	r3, [r0, #8]
   d94e0:	688b      	ldr	r3, [r1, #8]
      _Invoker_type _M_invoker;
  };

  // Out-of-line member definitions.
  template<typename _Res, typename... _ArgTypes>
    function<_Res(_ArgTypes...)>::
   d94e2:	4604      	mov	r4, r0
   d94e4:	460d      	mov	r5, r1
    function(const function& __x)
    : _Function_base()
    {
      if (static_cast<bool>(__x))
   d94e6:	b12b      	cbz	r3, d94f4 <_ZNSt8functionIFvRKbEEC1ERKS3_+0x1a>
	{
	  __x._M_manager(_M_functor, __x._M_functor, __clone_functor);
   d94e8:	2202      	movs	r2, #2
   d94ea:	4798      	blx	r3
	  _M_invoker = __x._M_invoker;
   d94ec:	68eb      	ldr	r3, [r5, #12]
   d94ee:	60e3      	str	r3, [r4, #12]
	  _M_manager = __x._M_manager;
   d94f0:	68ab      	ldr	r3, [r5, #8]
   d94f2:	60a3      	str	r3, [r4, #8]
	}
    }
   d94f4:	4620      	mov	r0, r4
   d94f6:	bd38      	pop	{r3, r4, r5, pc}

000d94f8 <_ZNSt14_Function_base13_Base_managerISt5_BindIFSt8functionIFvRKbEEbEEE10_M_managerERSt9_Any_dataRKSA_St18_Manager_operation>:
      public:
	static bool
	_M_manager(_Any_data& __dest, const _Any_data& __source,
		   _Manager_operation __op)
	{
	  switch (__op)
   d94f8:	2a02      	cmp	r2, #2
	  delete __victim._M_access<_Functor*>();
	}

      public:
	static bool
	_M_manager(_Any_data& __dest, const _Any_data& __source,
   d94fa:	b570      	push	{r4, r5, r6, lr}
   d94fc:	4604      	mov	r4, r0
		   _Manager_operation __op)
	{
	  switch (__op)
   d94fe:	d006      	beq.n	d950e <_ZNSt14_Function_base13_Base_managerISt5_BindIFSt8functionIFvRKbEEbEEE10_M_managerERSt9_Any_dataRKSA_St18_Manager_operation+0x16>
   d9500:	2a03      	cmp	r2, #3
   d9502:	d011      	beq.n	d9528 <_ZNSt14_Function_base13_Base_managerISt5_BindIFSt8functionIFvRKbEEbEEE10_M_managerERSt9_Any_dataRKSA_St18_Manager_operation+0x30>
   d9504:	2a01      	cmp	r2, #1
   d9506:	d118      	bne.n	d953a <_ZNSt14_Function_base13_Base_managerISt5_BindIFSt8functionIFvRKbEEbEEE10_M_managerERSt9_Any_dataRKSA_St18_Manager_operation+0x42>
	static _Functor*
	_M_get_pointer(const _Any_data& __source)
	{
	  const _Functor* __ptr =
	    __stored_locally? std::__addressof(__source._M_access<_Functor>())
	    /* have stored a pointer */ : __source._M_access<_Functor*>();
   d9508:	680b      	ldr	r3, [r1, #0]
	    case __get_type_info:
	      __dest._M_access<const type_info*>() = &typeid(_Functor);
	      break;
#endif
	    case __get_functor_ptr:
	      __dest._M_access<_Functor*>() = _M_get_pointer(__source);
   d950a:	6003      	str	r3, [r0, #0]
	      break;
   d950c:	e015      	b.n	d953a <_ZNSt14_Function_base13_Base_managerISt5_BindIFSt8functionIFvRKbEEbEEE10_M_managerERSt9_Any_dataRKSA_St18_Manager_operation+0x42>
	// Clone a function object that is not location-invariant or
	// that cannot fit into an _Any_data structure.
	static void
	_M_clone(_Any_data& __dest, const _Any_data& __source, false_type)
	{
	  __dest._M_access<_Functor*>() =
   d950e:	2014      	movs	r0, #20
   d9510:	680e      	ldr	r6, [r1, #0]
   d9512:	f7fa fdc0 	bl	d4096 <_Znwj>
   d9516:	4605      	mov	r5, r0
   d9518:	b120      	cbz	r0, d9524 <_ZNSt14_Function_base13_Base_managerISt5_BindIFSt8functionIFvRKbEEbEEE10_M_managerERSt9_Any_dataRKSA_St18_Manager_operation+0x2c>
      template<typename... _Args>
	explicit _Bind(_Functor&& __f, _Args&&... __args)
	: _M_f(std::move(__f)), _M_bound_args(std::forward<_Args>(__args)...)
	{ }

      _Bind(const _Bind&) = default;
   d951a:	4631      	mov	r1, r6
   d951c:	f7ff ffdd 	bl	d94da <_ZNSt8functionIFvRKbEEC1ERKS3_>
   d9520:	7c33      	ldrb	r3, [r6, #16]
   d9522:	742b      	strb	r3, [r5, #16]
	// Clone a function object that is not location-invariant or
	// that cannot fit into an _Any_data structure.
	static void
	_M_clone(_Any_data& __dest, const _Any_data& __source, false_type)
	{
	  __dest._M_access<_Functor*>() =
   d9524:	6025      	str	r5, [r4, #0]
   d9526:	e008      	b.n	d953a <_ZNSt14_Function_base13_Base_managerISt5_BindIFSt8functionIFvRKbEEbEEE10_M_managerERSt9_Any_dataRKSA_St18_Manager_operation+0x42>

	// Destroying an object located on the heap.
	static void
	_M_destroy(_Any_data& __victim, false_type)
	{
	  delete __victim._M_access<_Functor*>();
   d9528:	6804      	ldr	r4, [r0, #0]
   d952a:	b134      	cbz	r4, d953a <_ZNSt14_Function_base13_Base_managerISt5_BindIFSt8functionIFvRKbEEbEEE10_M_managerERSt9_Any_dataRKSA_St18_Manager_operation+0x42>
   *  @ingroup functors
   *
   *  Polymorphic function wrapper.
   */
  template<typename _Res, typename... _ArgTypes>
    class function<_Res(_ArgTypes...)>
   d952c:	4620      	mov	r0, r4
   d952e:	f7ff fd21 	bl	d8f74 <_ZNSt14_Function_baseD1Ev>

	// Destroying an object located on the heap.
	static void
	_M_destroy(_Any_data& __victim, false_type)
	{
	  delete __victim._M_access<_Functor*>();
   d9532:	2114      	movs	r1, #20
   d9534:	4620      	mov	r0, r4
   d9536:	f001 f88b 	bl	da650 <_ZdlPvj>
	    case __destroy_functor:
	      _M_destroy(__dest, _Local_storage());
	      break;
	    }
	  return false;
	}
   d953a:	2000      	movs	r0, #0
   d953c:	bd70      	pop	{r4, r5, r6, pc}
	...

000d9540 <_ZN8particle6detail14FutureImplBaseIbNS0_13FutureContextEE14invokeCallbackIFvRKbEIRbEEEvRSt6atomicIPSt8functionIT_EEDpOT0_>:
        delete callbackPtr; // Delete old callback
    }

    // Takes a callback from its atomic wrapper and invokes it
    template<typename FunctionT, typename... ArgsT>
    static void invokeCallback(std::atomic<std::function<FunctionT>*>& wrapper, ArgsT&&... args) {
   d9540:	b5f0      	push	{r4, r5, r6, r7, lr}

      _GLIBCXX_ALWAYS_INLINE __pointer_type
      exchange(__pointer_type __p,
	       memory_order __m = memory_order_seq_cst) noexcept
      {
	return __atomic_exchange_n(&_M_p, __p, __m);
   d9542:	2300      	movs	r3, #0
   d9544:	b087      	sub	sp, #28
   d9546:	460c      	mov	r4, r1
   d9548:	f3bf 8f5f 	dmb	sy
   d954c:	e850 6f00 	ldrex	r6, [r0]
   d9550:	e840 3200 	strex	r2, r3, [r0]
   d9554:	2a00      	cmp	r2, #0
   d9556:	d1f9      	bne.n	d954c <_ZN8particle6detail14FutureImplBaseIbNS0_13FutureContextEE14invokeCallbackIFvRKbEIRbEEEvRSt6atomicIPSt8functionIT_EEDpOT0_+0xc>
   d9558:	f3bf 8f5f 	dmb	sy
        std::function<FunctionT>* callbackPtr = wrapper.exchange(nullptr, std::memory_order_acq_rel);
        if (callbackPtr) {
   d955c:	2e00      	cmp	r6, #0
   d955e:	d03f      	beq.n	d95e0 <_ZN8particle6detail14FutureImplBaseIbNS0_13FutureContextEE14invokeCallbackIFvRKbEIRbEEEvRSt6atomicIPSt8functionIT_EEDpOT0_+0xa0>
        return (application_thread_invoke(callback, data, nullptr) == 0);
    }

    // Returns true if current thread is the application thread
    static bool isApplicationThreadCurrent() {
        return (application_thread_current(nullptr) != 0);
   d9560:	4618      	mov	r0, r3
   d9562:	f7fc fedf 	bl	d6324 <application_thread_current>
    }

    // Invokes std::function in the application context
    template<typename FunctionT, typename... ArgsT>
    static void invokeCallback(const std::function<FunctionT>& callback, ArgsT&&... args) {
        if (ContextT::isApplicationThreadCurrent()) {
   d9566:	4607      	mov	r7, r0
   d9568:	b120      	cbz	r0, d9574 <_ZN8particle6detail14FutureImplBaseIbNS0_13FutureContextEE14invokeCallbackIFvRKbEIRbEEEvRSt6atomicIPSt8functionIT_EEDpOT0_+0x34>
            callback(std::forward<ArgsT>(args)...); // Synchronous call
   d956a:	4621      	mov	r1, r4
   d956c:	4630      	mov	r0, r6
   d956e:	f7ff fe53 	bl	d9218 <_ZNKSt8functionIFvRKbEEclES1_>
   d9572:	e02e      	b.n	d95d2 <_ZN8particle6detail14FutureImplBaseIbNS0_13FutureContextEE14invokeCallbackIFvRKbEIRbEEEvRSt6atomicIPSt8functionIT_EEDpOT0_+0x92>
	}

     public:
      template<typename... _Args>
	explicit _Bind(const _Functor& __f, _Args&&... __args)
	: _M_f(__f), _M_bound_args(std::forward<_Args>(__args)...)
   d9574:	4631      	mov	r1, r6
   d9576:	a801      	add	r0, sp, #4
   d9578:	f7ff ffaf 	bl	d94da <_ZNSt8functionIFvRKbEEC1ERKS3_>
      constexpr _Head_base(const _Head_base&) = default;
      constexpr _Head_base(_Head_base&&) = default;

      template<typename _UHead>
        constexpr _Head_base(_UHead&& __h)
	: _M_head_impl(std::forward<_UHead>(__h)) { }
   d957c:	7823      	ldrb	r3, [r4, #0]
   d957e:	f88d 3014 	strb.w	r3, [sp, #20]
        } else {
            // Bind all arguments and wrap resulting function into a pointer
            auto callbackPtr = new std::function<void()>(std::bind(callback, std::forward<ArgsT>(args)...));
   d9582:	2010      	movs	r0, #16
   d9584:	f7fa fd87 	bl	d4096 <_Znwj>
   d9588:	4605      	mov	r5, r0
   d958a:	b1d0      	cbz	r0, d95c2 <_ZN8particle6detail14FutureImplBaseIbNS0_13FutureContextEE14invokeCallbackIFvRKbEIRbEEEvRSt6atomicIPSt8functionIT_EEDpOT0_+0x82>
	{
	  _Base::_M_init_functor(__functor, std::__addressof(__f.get()));
	}
      };

    _Function_base() : _M_manager(nullptr) { }
   d958c:	6087      	str	r7, [r0, #8]
	_M_init_functor(_Any_data& __functor, _Functor&& __f, true_type)
	{ new (__functor._M_access()) _Functor(std::move(__f)); }

	static void
	_M_init_functor(_Any_data& __functor, _Functor&& __f, false_type)
	{ __functor._M_access<_Functor*>() = new _Functor(std::move(__f)); }
   d958e:	2014      	movs	r0, #20
   d9590:	f7fa fd81 	bl	d4096 <_Znwj>
   d9594:	4604      	mov	r4, r0
   d9596:	b178      	cbz	r0, d95b8 <_ZN8particle6detail14FutureImplBaseIbNS0_13FutureContextEE14invokeCallbackIFvRKbEIRbEEEvRSt6atomicIPSt8functionIT_EEDpOT0_+0x78>
	{
	  _Base::_M_init_functor(__functor, std::__addressof(__f.get()));
	}
      };

    _Function_base() : _M_manager(nullptr) { }
   d9598:	6087      	str	r7, [r0, #8]
       *  Swap the targets of @c this function object and @a __f. This
       *  function will not throw an %exception.
       */
      void swap(function& __x)
      {
	std::swap(_M_functor, __x._M_functor);
   d959a:	4601      	mov	r1, r0
   d959c:	a801      	add	r0, sp, #4
   d959e:	f7ff fcf8 	bl	d8f92 <_ZSt4swapISt9_Any_dataEvRT_S2_>
#endif
    {
      // concept requirements
      __glibcxx_function_requires(_SGIAssignableConcept<_Tp>)

      _Tp __tmp = _GLIBCXX_MOVE(__a);
   d95a2:	9b03      	ldr	r3, [sp, #12]
      __a = _GLIBCXX_MOVE(__b);
   d95a4:	68a2      	ldr	r2, [r4, #8]
      __b = _GLIBCXX_MOVE(__tmp);
   d95a6:	60a3      	str	r3, [r4, #8]
#endif
    {
      // concept requirements
      __glibcxx_function_requires(_SGIAssignableConcept<_Tp>)

      _Tp __tmp = _GLIBCXX_MOVE(__a);
   d95a8:	9b04      	ldr	r3, [sp, #16]
      __a = _GLIBCXX_MOVE(__b);
   d95aa:	9203      	str	r2, [sp, #12]
   d95ac:	68e2      	ldr	r2, [r4, #12]
      __b = _GLIBCXX_MOVE(__tmp);
   d95ae:	60e3      	str	r3, [r4, #12]
   d95b0:	f89d 3014 	ldrb.w	r3, [sp, #20]
    {
      // concept requirements
      __glibcxx_function_requires(_SGIAssignableConcept<_Tp>)

      _Tp __tmp = _GLIBCXX_MOVE(__a);
      __a = _GLIBCXX_MOVE(__b);
   d95b4:	9204      	str	r2, [sp, #16]
   d95b6:	7423      	strb	r3, [r4, #16]
	typedef _Function_handler<_Signature_type, _Functor> _My_handler;

	if (_My_handler::_M_not_empty_function(__f))
	  {
	    _My_handler::_M_init_functor(_M_functor, std::move(__f));
	    _M_invoker = &_My_handler::_M_invoke;
   d95b8:	4b0a      	ldr	r3, [pc, #40]	; (d95e4 <_ZN8particle6detail14FutureImplBaseIbNS0_13FutureContextEE14invokeCallbackIFvRKbEIRbEEEvRSt6atomicIPSt8functionIT_EEDpOT0_+0xa4>)
   d95ba:	60eb      	str	r3, [r5, #12]
	    _M_manager = &_My_handler::_M_manager;
   d95bc:	4b0a      	ldr	r3, [pc, #40]	; (d95e8 <_ZN8particle6detail14FutureImplBaseIbNS0_13FutureContextEE14invokeCallbackIFvRKbEIRbEEEvRSt6atomicIPSt8functionIT_EEDpOT0_+0xa8>)
	_M_init_functor(_Any_data& __functor, _Functor&& __f, true_type)
	{ new (__functor._M_access()) _Functor(std::move(__f)); }

	static void
	_M_init_functor(_Any_data& __functor, _Functor&& __f, false_type)
	{ __functor._M_access<_Functor*>() = new _Functor(std::move(__f)); }
   d95be:	602c      	str	r4, [r5, #0]

	if (_My_handler::_M_not_empty_function(__f))
	  {
	    _My_handler::_M_init_functor(_M_functor, std::move(__f));
	    _M_invoker = &_My_handler::_M_invoke;
	    _M_manager = &_My_handler::_M_manager;
   d95c0:	60ab      	str	r3, [r5, #8]
   *  @ingroup functors
   *
   *  Polymorphic function wrapper.
   */
  template<typename _Res, typename... _ArgTypes>
    class function<_Res(_ArgTypes...)>
   d95c2:	a801      	add	r0, sp, #4
   d95c4:	f7ff fcd6 	bl	d8f74 <_ZNSt14_Function_baseD1Ev>
        spark_process();
    }

    // Asynchronously invokes a callback in the application context
    static bool invokeApplicationCallback(void (*callback)(void* data), void* data) {
        return (application_thread_invoke(callback, data, nullptr) == 0);
   d95c8:	2200      	movs	r2, #0
   d95ca:	4629      	mov	r1, r5
   d95cc:	4807      	ldr	r0, [pc, #28]	; (d95ec <_ZN8particle6detail14FutureImplBaseIbNS0_13FutureContextEE14invokeCallbackIFvRKbEIRbEEEvRSt6atomicIPSt8functionIT_EEDpOT0_+0xac>)
   d95ce:	f7fc feb1 	bl	d6334 <application_thread_invoke>
   d95d2:	4630      	mov	r0, r6
   d95d4:	f7ff fcce 	bl	d8f74 <_ZNSt14_Function_baseD1Ev>
    template<typename FunctionT, typename... ArgsT>
    static void invokeCallback(std::atomic<std::function<FunctionT>*>& wrapper, ArgsT&&... args) {
        std::function<FunctionT>* callbackPtr = wrapper.exchange(nullptr, std::memory_order_acq_rel);
        if (callbackPtr) {
            invokeCallback(*callbackPtr, std::forward<ArgsT>(args)...);
            delete callbackPtr;
   d95d8:	2110      	movs	r1, #16
   d95da:	4630      	mov	r0, r6
   d95dc:	f001 f838 	bl	da650 <_ZdlPvj>
        }
    }
   d95e0:	b007      	add	sp, #28
   d95e2:	bdf0      	pop	{r4, r5, r6, r7, pc}
   d95e4:	000d922b 	.word	0x000d922b
   d95e8:	000d94f9 	.word	0x000d94f9
   d95ec:	000d99b5 	.word	0x000d99b5

000d95f0 <_ZN12_GLOBAL__N_125publishCompletionCallbackEiPKvPvS2_>:

namespace {

using namespace particle;

void publishCompletionCallback(int error, const void* data, void* callbackData, void* reserved) {
   d95f0:	b530      	push	{r4, r5, lr}
   d95f2:	b085      	sub	sp, #20
   d95f4:	4604      	mov	r4, r0
   d95f6:	460d      	mov	r5, r1
    auto p = Promise<bool>::fromDataPtr(callbackData);
   d95f8:	4668      	mov	r0, sp
   d95fa:	4611      	mov	r1, r2
   d95fc:	f7ff fdc9 	bl	d9192 <_ZN8particle11PromiseBaseIbNS_6detail13FutureContextEE11fromDataPtrEPv>
    if (error != Error::NONE) {
   d9600:	b17c      	cbz	r4, d9622 <_ZN12_GLOBAL__N_125publishCompletionCallbackEiPKvPvS2_+0x32>
        p.setError(Error((Error::Type)error, (const char*)data));
   d9602:	b224      	sxth	r4, r4
   d9604:	4628      	mov	r0, r5
   d9606:	b10d      	cbz	r5, d960c <_ZN12_GLOBAL__N_125publishCompletionCallbackEiPKvPvS2_+0x1c>
   d9608:	f001 fa1c 	bl	daa44 <strdup>
   d960c:	9002      	str	r0, [sp, #8]
   d960e:	a902      	add	r1, sp, #8
   d9610:	4668      	mov	r0, sp
   d9612:	f8ad 400c 	strh.w	r4, [sp, #12]
   d9616:	f7ff fe1f 	bl	d9258 <_ZN8particle11PromiseBaseIbNS_6detail13FutureContextEE8setErrorENS_5ErrorE>
   d961a:	a802      	add	r0, sp, #8
   d961c:	f7ff fd7e 	bl	d911c <_ZN8particle5ErrorD1Ev>
   d9620:	e01d      	b.n	d965e <_ZN12_GLOBAL__N_125publishCompletionCallbackEiPKvPvS2_+0x6e>
   d9622:	9800      	ldr	r0, [sp, #0]
            onSuccess_(nullptr),
            onError_(nullptr) {
    }

    bool changeState(State state) {
        State s = State::RUNNING; // Expected state
   d9624:	f88d 4008 	strb.w	r4, [sp, #8]

      bool
      compare_exchange_strong(_Tp& __e, _Tp __i, memory_order __s, 
			      memory_order __f) noexcept
      {
	return __atomic_compare_exchange(&_M_i, &__e, &__i, false, __s, __f);
   d9628:	f04f 0201 	mov.w	r2, #1
   d962c:	e8d0 3f4f 	ldrexb	r3, [r0]
   d9630:	42a3      	cmp	r3, r4
   d9632:	d103      	bne.n	d963c <_ZN12_GLOBAL__N_125publishCompletionCallbackEiPKvPvS2_+0x4c>
   d9634:	e8c0 2f41 	strexb	r1, r2, [r0]
   d9638:	2900      	cmp	r1, #0
   d963a:	d1f7      	bne.n	d962c <_ZN12_GLOBAL__N_125publishCompletionCallbackEiPKvPvS2_+0x3c>
   d963c:	d002      	beq.n	d9644 <_ZN12_GLOBAL__N_125publishCompletionCallbackEiPKvPvS2_+0x54>
   d963e:	f88d 3008 	strb.w	r3, [sp, #8]
   d9642:	e00c      	b.n	d965e <_ZN12_GLOBAL__N_125publishCompletionCallbackEiPKvPvS2_+0x6e>
        }
    }

    void setResult(ResultT result) {
        if (this->changeState(State::SUCCEEDED)) {
            new(&result_) ResultT(std::move(result));
   d9644:	f110 010c 	adds.w	r1, r0, #12
   d9648:	f04f 0301 	mov.w	r3, #1
   d964c:	bf18      	it	ne
   d964e:	7303      	strbne	r3, [r0, #12]
        memory_order __b = __m & __memory_order_mask;
	__glibcxx_assert(__b != memory_order_acquire);
	__glibcxx_assert(__b != memory_order_acq_rel);
	__glibcxx_assert(__b != memory_order_consume);

	__atomic_store_n(&_M_i, __i, __m);
   d9650:	f3bf 8f5f 	dmb	sy
            this->releaseDone();
            this->invokeCallback(this->onSuccess_, result_);
   d9654:	3004      	adds	r0, #4
   d9656:	f800 3c03 	strb.w	r3, [r0, #-3]
   d965a:	f7ff ff71 	bl	d9540 <_ZN8particle6detail14FutureImplBaseIbNS0_13FutureContextEE14invokeCallbackIFvRKbEIRbEEEvRSt6atomicIPSt8functionIT_EEDpOT0_>
   d965e:	a801      	add	r0, sp, #4
   d9660:	f7fa ffc6 	bl	d45f0 <_ZNSt14__shared_countILN9__gnu_cxx12_Lock_policyE0EED1Ev>
    } else {
        p.setResult(true);
    }
}
   d9664:	b005      	add	sp, #20
   d9666:	bd30      	pop	{r4, r5, pc}

000d9668 <_ZN9IPAddressD1Ev>:
    IPAddress(uint8_t first_octet, uint8_t second_octet, uint8_t third_octet, uint8_t fourth_octet);
    IPAddress(uint32_t address);
    IPAddress(const uint8_t* address);
    IPAddress(const HAL_IPAddress& address);

    virtual ~IPAddress() {}
   d9668:	4770      	bx	lr

000d966a <_ZN9IPAddressD0Ev>:
   d966a:	b510      	push	{r4, lr}
   d966c:	2118      	movs	r1, #24
   d966e:	4604      	mov	r4, r0
   d9670:	f000 ffee 	bl	da650 <_ZdlPvj>
   d9674:	4620      	mov	r0, r4
   d9676:	bd10      	pop	{r4, pc}

000d9678 <_ZNK9IPAddress7printToER5Print>:
#endif // Wiring_IPv6
	return address.ipv4==that.address.ipv4;
}

size_t IPAddress::printTo(Print& p) const
{
   d9678:	b5f0      	push	{r4, r5, r6, r7, lr}
#if Wiring_IPv6
#if HAL_USE_INET_HAL_POSIX
	if (address.v==6) {
   d967a:	7d03      	ldrb	r3, [r0, #20]
   d967c:	2b06      	cmp	r3, #6
#endif // Wiring_IPv6
	return address.ipv4==that.address.ipv4;
}

size_t IPAddress::printTo(Print& p) const
{
   d967e:	b08d      	sub	sp, #52	; 0x34
   d9680:	460e      	mov	r6, r1
   d9682:	f100 0704 	add.w	r7, r0, #4
   d9686:	f04f 0400 	mov.w	r4, #0
#if Wiring_IPv6
#if HAL_USE_INET_HAL_POSIX
	if (address.v==6) {
   d968a:	d002      	beq.n	d9692 <_ZNK9IPAddress7printToER5Print+0x1a>
   d968c:	f100 0508 	add.w	r5, r0, #8
   d9690:	e018      	b.n	d96c4 <_ZNK9IPAddress7printToER5Print+0x4c>
		char buf[INET6_ADDRSTRLEN+1];
		buf[0] = 0;
   d9692:	ad0c      	add	r5, sp, #48	; 0x30
		inet_inet_ntop(AF_INET6, address.ipv6, buf, sizeof(buf));
   d9694:	4639      	mov	r1, r7
{
#if Wiring_IPv6
#if HAL_USE_INET_HAL_POSIX
	if (address.v==6) {
		char buf[INET6_ADDRSTRLEN+1];
		buf[0] = 0;
   d9696:	f805 4d30 	strb.w	r4, [r5, #-48]!
		inet_inet_ntop(AF_INET6, address.ipv6, buf, sizeof(buf));
   d969a:	232f      	movs	r3, #47	; 0x2f
   d969c:	462a      	mov	r2, r5
   d969e:	200a      	movs	r0, #10
   d96a0:	f7fc fd38 	bl	d6114 <inet_inet_ntop>
    void clearWriteError() { setWriteError(0); }

    virtual size_t write(uint8_t) = 0;
    size_t write(const char *str) {
      if (str == NULL) return 0;
      return write((const uint8_t *)str, strlen(str));
   d96a4:	4628      	mov	r0, r5
   d96a6:	f001 f9e8 	bl	daa7a <strlen>
   d96aa:	6833      	ldr	r3, [r6, #0]
   d96ac:	4602      	mov	r2, r0
   d96ae:	68db      	ldr	r3, [r3, #12]
   d96b0:	4629      	mov	r1, r5
   d96b2:	4630      	mov	r0, r6
   d96b4:	4798      	blx	r3
   d96b6:	e00f      	b.n	d96d8 <_ZNK9IPAddress7printToER5Print+0x60>
#endif // HAL_USE_INET_HAL_POSIX
#endif // Wiring_IPv6
    size_t n = 0;
    for (int i = 0; i < 4; i++)
    {
        if (n)
   d96b8:	b124      	cbz	r4, d96c4 <_ZNK9IPAddress7printToER5Print+0x4c>
            n += p.print('.');
   d96ba:	212e      	movs	r1, #46	; 0x2e
   d96bc:	4630      	mov	r0, r6
   d96be:	f7fe fc01 	bl	d7ec4 <_ZN5Print5printEc>
   d96c2:	4404      	add	r4, r0
            t = print('-');
            val = -n;
        } else {
            val = n;
        }
        return printNumber(val, base) + t;
   d96c4:	f815 1d01 	ldrb.w	r1, [r5, #-1]!
   d96c8:	220a      	movs	r2, #10
   d96ca:	4630      	mov	r0, r6
   d96cc:	f7fe fc09 	bl	d7ee2 <_ZN5Print11printNumberEmh>
#else
#pragma message "HAL_USE_INET_HAL_POSIX is required for IPv6 support in IPAddress::printTo()"
#endif // HAL_USE_INET_HAL_POSIX
#endif // Wiring_IPv6
    size_t n = 0;
    for (int i = 0; i < 4; i++)
   d96d0:	42bd      	cmp	r5, r7
    {
        if (n)
            n += p.print('.');
        n += p.print((*this)[i], DEC);
   d96d2:	4404      	add	r4, r0
#else
#pragma message "HAL_USE_INET_HAL_POSIX is required for IPv6 support in IPAddress::printTo()"
#endif // HAL_USE_INET_HAL_POSIX
#endif // Wiring_IPv6
    size_t n = 0;
    for (int i = 0; i < 4; i++)
   d96d4:	d1f0      	bne.n	d96b8 <_ZNK9IPAddress7printToER5Print+0x40>
    {
        if (n)
            n += p.print('.');
        n += p.print((*this)[i], DEC);
   d96d6:	4620      	mov	r0, r4
    }
    return n;
}
   d96d8:	b00d      	add	sp, #52	; 0x34
   d96da:	bdf0      	pop	{r4, r5, r6, r7, pc}

000d96dc <_ZN9IPAddressC1Ev>:

#if HAL_USE_INET_HAL_POSIX
#include <arpa/inet.h>
#endif // HAL_USE_INET_HAL_POSIX

IPAddress::IPAddress()
   d96dc:	b510      	push	{r4, lr}
   d96de:	4b05      	ldr	r3, [pc, #20]	; (d96f4 <_ZN9IPAddressC1Ev+0x18>)
   d96e0:	4604      	mov	r4, r0
        return address;
    }

    virtual size_t printTo(Print& p) const;

    void clear() { memset(&address, 0, sizeof (address)); }
   d96e2:	2211      	movs	r2, #17
   d96e4:	f840 3b04 	str.w	r3, [r0], #4
   d96e8:	2100      	movs	r1, #0
   d96ea:	f001 f950 	bl	da98e <memset>
{
    clear();
}
   d96ee:	4620      	mov	r0, r4
   d96f0:	bd10      	pop	{r4, pc}
   d96f2:	bf00      	nop
   d96f4:	000dbdb8 	.word	0x000dbdb8

000d96f8 <_ZN9IPAddressC1ERK16_HAL_IPAddress_t>:

IPAddress::IPAddress(const HAL_IPAddress& address)
   d96f8:	4603      	mov	r3, r0
   d96fa:	4a07      	ldr	r2, [pc, #28]	; (d9718 <_ZN9IPAddressC1ERK16_HAL_IPAddress_t+0x20>)
   d96fc:	b510      	push	{r4, lr}
   d96fe:	f843 2b04 	str.w	r2, [r3], #4
{
    memcpy(&this->address, &address, sizeof(address));
   d9702:	f101 0210 	add.w	r2, r1, #16
   d9706:	f851 4b04 	ldr.w	r4, [r1], #4
   d970a:	f843 4b04 	str.w	r4, [r3], #4
   d970e:	4291      	cmp	r1, r2
   d9710:	d1f9      	bne.n	d9706 <_ZN9IPAddressC1ERK16_HAL_IPAddress_t+0xe>
   d9712:	780a      	ldrb	r2, [r1, #0]
   d9714:	701a      	strb	r2, [r3, #0]
}
   d9716:	bd10      	pop	{r4, pc}
   d9718:	000dbdb8 	.word	0x000dbdb8

000d971c <_ZNK9IPAddresscvbEv>:
{
    *this = address;
}

IPAddress::operator bool() const
{
   d971c:	7d03      	ldrb	r3, [r0, #20]
#if Wiring_IPv6
    if (version() == 4) {
   d971e:	2b04      	cmp	r3, #4
   d9720:	d101      	bne.n	d9726 <_ZNK9IPAddresscvbEv+0xa>
        return address.ipv4 != 0;
   d9722:	6840      	ldr	r0, [r0, #4]
   d9724:	e008      	b.n	d9738 <_ZNK9IPAddresscvbEv+0x1c>
    } else if (version() == 6) {
   d9726:	2b06      	cmp	r3, #6
   d9728:	d10a      	bne.n	d9740 <_ZNK9IPAddresscvbEv+0x24>
        return address.ipv6[0] != 0 || address.ipv6[1] != 0 || address.ipv6[2] != 0 || address.ipv6[3] != 0;
   d972a:	6843      	ldr	r3, [r0, #4]
   d972c:	b953      	cbnz	r3, d9744 <_ZNK9IPAddresscvbEv+0x28>
   d972e:	6883      	ldr	r3, [r0, #8]
   d9730:	b943      	cbnz	r3, d9744 <_ZNK9IPAddresscvbEv+0x28>
   d9732:	68c3      	ldr	r3, [r0, #12]
   d9734:	b933      	cbnz	r3, d9744 <_ZNK9IPAddresscvbEv+0x28>
   d9736:	6900      	ldr	r0, [r0, #16]
   d9738:	3000      	adds	r0, #0
   d973a:	bf18      	it	ne
   d973c:	2001      	movne	r0, #1
   d973e:	4770      	bx	lr
    } else {
        return false;
   d9740:	2000      	movs	r0, #0
   d9742:	4770      	bx	lr
{
#if Wiring_IPv6
    if (version() == 4) {
        return address.ipv4 != 0;
    } else if (version() == 6) {
        return address.ipv6[0] != 0 || address.ipv6[1] != 0 || address.ipv6[2] != 0 || address.ipv6[3] != 0;
   d9744:	2001      	movs	r0, #1
        return false;
    }
#else
    return address.ipv4!=0;
#endif
}
   d9746:	4770      	bx	lr

000d9748 <_ZN9IPAddress8set_ipv4Ehhhh>:

void IPAddress::set_ipv4(uint8_t b0, uint8_t b1, uint8_t b2, uint8_t b3)
{
   d9748:	b510      	push	{r4, lr}
    address.ipv4 = b0<<24 | b1 << 16 | b2 << 8 | b3;
   d974a:	f89d 4008 	ldrb.w	r4, [sp, #8]
   d974e:	ea44 2303 	orr.w	r3, r4, r3, lsl #8
   d9752:	ea43 4202 	orr.w	r2, r3, r2, lsl #16
   d9756:	ea42 6101 	orr.w	r1, r2, r1, lsl #24
        return &address;
    }

    inline void setVersion(uint8_t version) {
#if HAL_IPv6
        address.v = version;
   d975a:	2304      	movs	r3, #4
   d975c:	6041      	str	r1, [r0, #4]
   d975e:	7503      	strb	r3, [r0, #20]
   d9760:	bd10      	pop	{r4, pc}

000d9762 <_ZN9IPAddressaSEPKh>:
    setVersion(4);
}

IPAddress& IPAddress::operator=(const uint8_t* address)
{
   d9762:	b537      	push	{r0, r1, r2, r4, r5, lr}
    set_ipv4(address[0], address[1], address[2], address[3]);
   d9764:	780d      	ldrb	r5, [r1, #0]
   d9766:	788b      	ldrb	r3, [r1, #2]
   d9768:	784a      	ldrb	r2, [r1, #1]
   d976a:	78c9      	ldrb	r1, [r1, #3]
   d976c:	9100      	str	r1, [sp, #0]
   d976e:	4629      	mov	r1, r5
   d9770:	f7ff ffea 	bl	d9748 <_ZN9IPAddress8set_ipv4Ehhhh>
    return *this;
}
   d9774:	b003      	add	sp, #12
   d9776:	bd30      	pop	{r4, r5, pc}

000d9778 <_ZN9IPAddressC1EPKh>:
IPAddress::IPAddress(uint32_t address)
{
    *this = address;
}

IPAddress::IPAddress(const uint8_t* address)
   d9778:	b510      	push	{r4, lr}
   d977a:	4b03      	ldr	r3, [pc, #12]	; (d9788 <_ZN9IPAddressC1EPKh+0x10>)
   d977c:	6003      	str	r3, [r0, #0]
   d977e:	4604      	mov	r4, r0
{
    *this = address;
   d9780:	f7ff ffef 	bl	d9762 <_ZN9IPAddressaSEPKh>
}
   d9784:	4620      	mov	r0, r4
   d9786:	bd10      	pop	{r4, pc}
   d9788:	000dbdb8 	.word	0x000dbdb8

000d978c <_ZN9USBSerial14blockOnOverrunEb>:
  HAL_USB_USART_Flush_Data(_serial);
}

void USBSerial::blockOnOverrun(bool block)
{
  _blocking = block;
   d978c:	7441      	strb	r1, [r0, #17]
   d978e:	4770      	bx	lr

000d9790 <_ZN9USBSerialD1Ev>:
#include "usb_hal.h"
#include "system_task.h"
#include "spark_wiring_startup.h"
#include "concurrent_hal.h"

class USBSerial : public Stream
   d9790:	4770      	bx	lr

000d9792 <_ZN9USBSerial4readEv>:
}


// Read data from buffer
int USBSerial::read()
{
   d9792:	b508      	push	{r3, lr}
	return std::max(-1, (int)HAL_USB_USART_Receive_Data(_serial, false));
   d9794:	2100      	movs	r1, #0
   d9796:	7c00      	ldrb	r0, [r0, #16]
   d9798:	f7fc fd7c 	bl	d6294 <HAL_USB_USART_Receive_Data>
}
   d979c:	ea30 0020 	bics.w	r0, r0, r0, asr #32
   d97a0:	bf28      	it	cs
   d97a2:	f04f 30ff 	movcs.w	r0, #4294967295
   d97a6:	bd08      	pop	{r3, pc}

000d97a8 <_ZN9USBSerial4peekEv>:
{
  _blocking = block;
}

int USBSerial::peek()
{
   d97a8:	b508      	push	{r3, lr}
	return std::max(-1, (int)HAL_USB_USART_Receive_Data(_serial, true));
   d97aa:	2101      	movs	r1, #1
   d97ac:	7c00      	ldrb	r0, [r0, #16]
   d97ae:	f7fc fd71 	bl	d6294 <HAL_USB_USART_Receive_Data>
}
   d97b2:	ea30 0020 	bics.w	r0, r0, r0, asr #32
   d97b6:	bf28      	it	cs
   d97b8:	f04f 30ff 	movcs.w	r0, #4294967295
   d97bc:	bd08      	pop	{r3, pc}

000d97be <_ZN9USBSerial17availableForWriteEv>:
{
	return std::max(-1, (int)HAL_USB_USART_Receive_Data(_serial, false));
}

int USBSerial::availableForWrite()
{
   d97be:	b508      	push	{r3, lr}
  return std::max(0, (int)HAL_USB_USART_Available_Data_For_Write(_serial));
   d97c0:	7c00      	ldrb	r0, [r0, #16]
   d97c2:	f7fc fd5f 	bl	d6284 <HAL_USB_USART_Available_Data_For_Write>
}
   d97c6:	ea20 70e0 	bic.w	r0, r0, r0, asr #31
   d97ca:	bd08      	pop	{r3, pc}

000d97cc <_ZN9USBSerial9availableEv>:

int USBSerial::available()
{
   d97cc:	b508      	push	{r3, lr}
	return std::max(0, (int)HAL_USB_USART_Available_Data(_serial));
   d97ce:	7c00      	ldrb	r0, [r0, #16]
   d97d0:	f7fc fd50 	bl	d6274 <HAL_USB_USART_Available_Data>
}
   d97d4:	ea20 70e0 	bic.w	r0, r0, r0, asr #31
   d97d8:	bd08      	pop	{r3, pc}

000d97da <_ZN9USBSerial5flushEv>:
  return 0;
}

void USBSerial::flush()
{
  HAL_USB_USART_Flush_Data(_serial);
   d97da:	7c00      	ldrb	r0, [r0, #16]
   d97dc:	f7fc bd6a 	b.w	d62b4 <HAL_USB_USART_Flush_Data>

000d97e0 <_ZN9USBSerialD0Ev>:
   d97e0:	b510      	push	{r4, lr}
   d97e2:	2114      	movs	r1, #20
   d97e4:	4604      	mov	r4, r0
   d97e6:	f000 ff33 	bl	da650 <_ZdlPvj>
   d97ea:	4620      	mov	r0, r4
   d97ec:	bd10      	pop	{r4, pc}

000d97ee <_ZN9USBSerial5writeEh>:
{
	return std::max(0, (int)HAL_USB_USART_Available_Data(_serial));
}

size_t USBSerial::write(uint8_t byte)
{
   d97ee:	b538      	push	{r3, r4, r5, lr}
   d97f0:	4604      	mov	r4, r0
  if (HAL_USB_USART_Available_Data_For_Write(_serial) > 0 || _blocking) {
   d97f2:	7c00      	ldrb	r0, [r0, #16]
{
	return std::max(0, (int)HAL_USB_USART_Available_Data(_serial));
}

size_t USBSerial::write(uint8_t byte)
{
   d97f4:	460d      	mov	r5, r1
  if (HAL_USB_USART_Available_Data_For_Write(_serial) > 0 || _blocking) {
   d97f6:	f7fc fd45 	bl	d6284 <HAL_USB_USART_Available_Data_For_Write>
   d97fa:	2800      	cmp	r0, #0
   d97fc:	dc01      	bgt.n	d9802 <_ZN9USBSerial5writeEh+0x14>
   d97fe:	7c60      	ldrb	r0, [r4, #17]
   d9800:	b128      	cbz	r0, d980e <_ZN9USBSerial5writeEh+0x20>
    return std::max(0, (int)HAL_USB_USART_Send_Data(_serial, byte));
   d9802:	4629      	mov	r1, r5
   d9804:	7c20      	ldrb	r0, [r4, #16]
   d9806:	f7fc fd4d 	bl	d62a4 <HAL_USB_USART_Send_Data>
   d980a:	ea20 70e0 	bic.w	r0, r0, r0, asr #31
  }
  return 0;
}
   d980e:	bd38      	pop	{r3, r4, r5, pc}

000d9810 <_ZN9USBSerialC1E20HAL_USB_USART_SerialRK20HAL_USB_USART_Config>:

  HAL_USB_USART_Config conf = acquireSerialBuffer();
  HAL_USB_USART_Init(_serial, &conf);
}

USBSerial::USBSerial(HAL_USB_USART_Serial serial, const HAL_USB_USART_Config& conf)
   d9810:	b510      	push	{r4, lr}
   d9812:	4604      	mov	r4, r0
  protected:
    void setWriteError(int err = 1) { write_error = err; }
    size_t printf_impl(bool newline, const char* format, ...);

  public:
    Print() : write_error(0) {}
   d9814:	2300      	movs	r3, #0
   d9816:	6063      	str	r3, [r4, #4]
    virtual int available() = 0;
    virtual int read() = 0;
    virtual int peek() = 0;
    virtual void flush() = 0;

    Stream() {_timeout=1000;}
   d9818:	f44f 737a 	mov.w	r3, #1000	; 0x3e8
   d981c:	60a3      	str	r3, [r4, #8]
   d981e:	4b05      	ldr	r3, [pc, #20]	; (d9834 <_ZN9USBSerialC1E20HAL_USB_USART_SerialRK20HAL_USB_USART_Config+0x24>)
   d9820:	6023      	str	r3, [r4, #0]
{
  _serial = serial;
  _blocking = true;
   d9822:	2301      	movs	r3, #1

  HAL_USB_USART_Config conf = acquireSerialBuffer();
  HAL_USB_USART_Init(_serial, &conf);
}

USBSerial::USBSerial(HAL_USB_USART_Serial serial, const HAL_USB_USART_Config& conf)
   d9824:	4608      	mov	r0, r1
{
  _serial = serial;
   d9826:	7421      	strb	r1, [r4, #16]
  _blocking = true;
   d9828:	7463      	strb	r3, [r4, #17]

  HAL_USB_USART_Init(_serial, &conf);
   d982a:	4611      	mov	r1, r2
   d982c:	f7fc fd0a 	bl	d6244 <HAL_USB_USART_Init>
}
   d9830:	4620      	mov	r0, r4
   d9832:	bd10      	pop	{r4, pc}
   d9834:	000dbdcc 	.word	0x000dbdcc

000d9838 <_ZN9USBSerial5beginEl>:
// Public methods
//

void USBSerial::begin(long speed)
{
    HAL_USB_USART_Begin(_serial, speed, NULL);
   d9838:	2200      	movs	r2, #0
   d983a:	7c00      	ldrb	r0, [r0, #16]
   d983c:	f7fc bd0a 	b.w	d6254 <HAL_USB_USART_Begin>

000d9840 <_ZN9USBSerial3endEv>:
}

void USBSerial::end()
{
    HAL_USB_USART_End(_serial);
   d9840:	7c00      	ldrb	r0, [r0, #16]
   d9842:	f7fc bd0f 	b.w	d6264 <HAL_USB_USART_End>

000d9846 <_Z19acquireSerialBufferv>:

// Preinstantiate Objects //////////////////////////////////////////////////////
#ifdef SPARK_USB_SERIAL

HAL_USB_USART_Config __attribute__((weak)) acquireSerialBuffer()
{
   d9846:	b510      	push	{r4, lr}
  HAL_USB_USART_Config conf = {0};
   d9848:	2214      	movs	r2, #20

// Preinstantiate Objects //////////////////////////////////////////////////////
#ifdef SPARK_USB_SERIAL

HAL_USB_USART_Config __attribute__((weak)) acquireSerialBuffer()
{
   d984a:	4604      	mov	r4, r0
  HAL_USB_USART_Config conf = {0};
   d984c:	2100      	movs	r1, #0
   d984e:	f001 f89e 	bl	da98e <memset>
  conf.rx_buffer_size = USB_RX_BUFFER_SIZE;
  conf.tx_buffer_size = USB_TX_BUFFER_SIZE;
#endif

  return conf;
}
   d9852:	4620      	mov	r0, r4
   d9854:	bd10      	pop	{r4, pc}
	...

000d9858 <_Z16_fetch_usbserialv>:

USBSerial& _fetch_usbserial()
{
   d9858:	b530      	push	{r4, r5, lr}
  HAL_USB_USART_Config conf = acquireSerialBuffer();
	static USBSerial _usbserial(HAL_USB_USART_SERIAL, conf);
   d985a:	4d0e      	ldr	r5, [pc, #56]	; (d9894 <_Z16_fetch_usbserialv+0x3c>)

  return conf;
}

USBSerial& _fetch_usbserial()
{
   d985c:	b087      	sub	sp, #28
  HAL_USB_USART_Config conf = acquireSerialBuffer();
   d985e:	a801      	add	r0, sp, #4
   d9860:	f7ff fff1 	bl	d9846 <_Z19acquireSerialBufferv>
	static USBSerial _usbserial(HAL_USB_USART_SERIAL, conf);
   d9864:	6829      	ldr	r1, [r5, #0]
   d9866:	f011 0401 	ands.w	r4, r1, #1
   d986a:	d110      	bne.n	d988e <_Z16_fetch_usbserialv+0x36>
   d986c:	4628      	mov	r0, r5
   d986e:	f7fa fc25 	bl	d40bc <__cxa_guard_acquire>
   d9872:	b160      	cbz	r0, d988e <_Z16_fetch_usbserialv+0x36>
   d9874:	aa01      	add	r2, sp, #4
   d9876:	4621      	mov	r1, r4
   d9878:	4807      	ldr	r0, [pc, #28]	; (d9898 <_Z16_fetch_usbserialv+0x40>)
   d987a:	f7ff ffc9 	bl	d9810 <_ZN9USBSerialC1E20HAL_USB_USART_SerialRK20HAL_USB_USART_Config>
   d987e:	4628      	mov	r0, r5
   d9880:	f7fa fc21 	bl	d40c6 <__cxa_guard_release>
   d9884:	4a05      	ldr	r2, [pc, #20]	; (d989c <_Z16_fetch_usbserialv+0x44>)
   d9886:	4906      	ldr	r1, [pc, #24]	; (d98a0 <_Z16_fetch_usbserialv+0x48>)
   d9888:	4803      	ldr	r0, [pc, #12]	; (d9898 <_Z16_fetch_usbserialv+0x40>)
   d988a:	f000 fed4 	bl	da636 <__aeabi_atexit>
	return _usbserial;
}
   d988e:	4802      	ldr	r0, [pc, #8]	; (d9898 <_Z16_fetch_usbserialv+0x40>)
   d9890:	b007      	add	sp, #28
   d9892:	bd30      	pop	{r4, r5, pc}
   d9894:	2003e42c 	.word	0x2003e42c
   d9898:	2003e430 	.word	0x2003e430
   d989c:	2003d8d4 	.word	0x2003d8d4
   d98a0:	000d9791 	.word	0x000d9791

000d98a4 <_ZN11USARTSerialD1Ev>:
private:
  HAL_USART_Serial _serial;
  bool _blocking;
public:
  USARTSerial(HAL_USART_Serial serial, Ring_Buffer *rx_buffer, Ring_Buffer *tx_buffer);
  virtual ~USARTSerial() {};
   d98a4:	4770      	bx	lr

000d98a6 <_ZN11USARTSerial14blockOnOverrunEb>:
    HAL_USART_Half_Duplex(_serial, Enable);
}

void USARTSerial::blockOnOverrun(bool block)
{
  _blocking = block;
   d98a6:	7441      	strb	r1, [r0, #17]
   d98a8:	4770      	bx	lr

000d98aa <_ZN11USARTSerial17availableForWriteEv>:
}


int USARTSerial::availableForWrite(void)
{
   d98aa:	b508      	push	{r3, lr}
  return std::max(0, (int)HAL_USART_Available_Data_For_Write(_serial));
   d98ac:	7c00      	ldrb	r0, [r0, #16]
   d98ae:	f7fc fc81 	bl	d61b4 <HAL_USART_Available_Data_For_Write>
}
   d98b2:	ea20 70e0 	bic.w	r0, r0, r0, asr #31
   d98b6:	bd08      	pop	{r3, pc}

000d98b8 <_ZN11USARTSerial9availableEv>:

int USARTSerial::available(void)
{
   d98b8:	b508      	push	{r3, lr}
  return std::max(0, (int)HAL_USART_Available_Data(_serial));
   d98ba:	7c00      	ldrb	r0, [r0, #16]
   d98bc:	f7fc fc5a 	bl	d6174 <HAL_USART_Available_Data>
}
   d98c0:	ea20 70e0 	bic.w	r0, r0, r0, asr #31
   d98c4:	bd08      	pop	{r3, pc}

000d98c6 <_ZN11USARTSerial4peekEv>:

int USARTSerial::peek(void)
{
   d98c6:	b508      	push	{r3, lr}
  return std::max(-1, (int)HAL_USART_Peek_Data(_serial));
   d98c8:	7c00      	ldrb	r0, [r0, #16]
   d98ca:	f7fc fc63 	bl	d6194 <HAL_USART_Peek_Data>
}
   d98ce:	ea30 0020 	bics.w	r0, r0, r0, asr #32
   d98d2:	bf28      	it	cs
   d98d4:	f04f 30ff 	movcs.w	r0, #4294967295
   d98d8:	bd08      	pop	{r3, pc}

000d98da <_ZN11USARTSerial4readEv>:

int USARTSerial::read(void)
{
   d98da:	b508      	push	{r3, lr}
  return std::max(-1, (int)HAL_USART_Read_Data(_serial));
   d98dc:	7c00      	ldrb	r0, [r0, #16]
   d98de:	f7fc fc51 	bl	d6184 <HAL_USART_Read_Data>
}
   d98e2:	ea30 0020 	bics.w	r0, r0, r0, asr #32
   d98e6:	bf28      	it	cs
   d98e8:	f04f 30ff 	movcs.w	r0, #4294967295
   d98ec:	bd08      	pop	{r3, pc}

000d98ee <_ZN11USARTSerial5flushEv>:

void USARTSerial::flush()
{
  HAL_USART_Flush_Data(_serial);
   d98ee:	7c00      	ldrb	r0, [r0, #16]
   d98f0:	f7fc bc58 	b.w	d61a4 <HAL_USART_Flush_Data>

000d98f4 <_ZN11USARTSerialD0Ev>:
   d98f4:	b510      	push	{r4, lr}
   d98f6:	2114      	movs	r1, #20
   d98f8:	4604      	mov	r4, r0
   d98fa:	f000 fea9 	bl	da650 <_ZdlPvj>
   d98fe:	4620      	mov	r0, r4
   d9900:	bd10      	pop	{r4, pc}

000d9902 <_ZN11USARTSerial5writeEh>:
}

size_t USARTSerial::write(uint8_t c)
{
   d9902:	b570      	push	{r4, r5, r6, lr}
  // attempt a write if blocking, or for non-blocking if there is room.
  if (_blocking || HAL_USART_Available_Data_For_Write(_serial) > 0) {
   d9904:	7c45      	ldrb	r5, [r0, #17]
{
  HAL_USART_Flush_Data(_serial);
}

size_t USARTSerial::write(uint8_t c)
{
   d9906:	4604      	mov	r4, r0
   d9908:	460e      	mov	r6, r1
  // attempt a write if blocking, or for non-blocking if there is room.
  if (_blocking || HAL_USART_Available_Data_For_Write(_serial) > 0) {
   d990a:	b925      	cbnz	r5, d9916 <_ZN11USARTSerial5writeEh+0x14>
   d990c:	7c00      	ldrb	r0, [r0, #16]
   d990e:	f7fc fc51 	bl	d61b4 <HAL_USART_Available_Data_For_Write>
   d9912:	2800      	cmp	r0, #0
   d9914:	dd05      	ble.n	d9922 <_ZN11USARTSerial5writeEh+0x20>
    // the HAL always blocks.
	  return HAL_USART_Write_Data(_serial, c);
   d9916:	4631      	mov	r1, r6
   d9918:	7c20      	ldrb	r0, [r4, #16]
  }
  return 0;
}
   d991a:	e8bd 4070 	ldmia.w	sp!, {r4, r5, r6, lr}
size_t USARTSerial::write(uint8_t c)
{
  // attempt a write if blocking, or for non-blocking if there is room.
  if (_blocking || HAL_USART_Available_Data_For_Write(_serial) > 0) {
    // the HAL always blocks.
	  return HAL_USART_Write_Data(_serial, c);
   d991e:	f7fc bc21 	b.w	d6164 <HAL_USART_Write_Data>
  }
  return 0;
}
   d9922:	4628      	mov	r0, r5
   d9924:	bd70      	pop	{r4, r5, r6, pc}
	...

000d9928 <_ZN11USARTSerialC1E16HAL_USART_SerialP11Ring_BufferS2_>:
#include "spark_wiring_constants.h"
#include "module_info.h"

// Constructors ////////////////////////////////////////////////////////////////

USARTSerial::USARTSerial(HAL_USART_Serial serial, Ring_Buffer *rx_buffer, Ring_Buffer *tx_buffer)
   d9928:	b510      	push	{r4, lr}
   d992a:	4604      	mov	r4, r0
   d992c:	4608      	mov	r0, r1
   d992e:	4611      	mov	r1, r2
   d9930:	2200      	movs	r2, #0
   d9932:	6062      	str	r2, [r4, #4]
   d9934:	f44f 727a 	mov.w	r2, #1000	; 0x3e8
   d9938:	60a2      	str	r2, [r4, #8]
   d993a:	4a05      	ldr	r2, [pc, #20]	; (d9950 <_ZN11USARTSerialC1E16HAL_USART_SerialP11Ring_BufferS2_+0x28>)
   d993c:	6022      	str	r2, [r4, #0]
{
  _serial = serial;
  // Default is blocking mode
  _blocking = true;
   d993e:	2201      	movs	r2, #1

// Constructors ////////////////////////////////////////////////////////////////

USARTSerial::USARTSerial(HAL_USART_Serial serial, Ring_Buffer *rx_buffer, Ring_Buffer *tx_buffer)
{
  _serial = serial;
   d9940:	7420      	strb	r0, [r4, #16]
  // Default is blocking mode
  _blocking = true;
   d9942:	7462      	strb	r2, [r4, #17]
  HAL_USART_Init(serial, rx_buffer, tx_buffer);
   d9944:	461a      	mov	r2, r3
   d9946:	f7fc fbfd 	bl	d6144 <HAL_USART_Init>
}
   d994a:	4620      	mov	r0, r4
   d994c:	bd10      	pop	{r4, pc}
   d994e:	bf00      	nop
   d9950:	000dbdfc 	.word	0x000dbdfc

000d9954 <_ZN11USARTSerial5beginEmm>:
  begin(baud, SERIAL_8N1);
}

void USARTSerial::begin(unsigned long baud, uint32_t config)
{
  HAL_USART_BeginConfig(_serial, baud, config, 0);
   d9954:	2300      	movs	r3, #0
   d9956:	7c00      	ldrb	r0, [r0, #16]
   d9958:	f7fc bc34 	b.w	d61c4 <HAL_USART_BeginConfig>

000d995c <_ZN11USARTSerial5beginEm>:
}
// Public Methods //////////////////////////////////////////////////////////////

void USARTSerial::begin(unsigned long baud)
{
  begin(baud, SERIAL_8N1);
   d995c:	2200      	movs	r2, #0
   d995e:	f7ff bff9 	b.w	d9954 <_ZN11USARTSerial5beginEmm>

000d9962 <_ZN11USARTSerial3endEv>:
  HAL_USART_BeginConfig(_serial, baud, config, 0);
}

void USARTSerial::end()
{
  HAL_USART_End(_serial);
   d9962:	7c00      	ldrb	r0, [r0, #16]
   d9964:	f7fc bbf6 	b.w	d6154 <HAL_USART_End>

000d9968 <_Z22__fetch_global_Serial1v>:
static Ring_Buffer* serial1_rx_buffer = NULL;
static Ring_Buffer* serial1_tx_buffer = NULL;
#endif

USARTSerial& __fetch_global_Serial1()
{
   d9968:	b538      	push	{r3, r4, r5, lr}
#if ((MODULE_FUNCTION == MOD_FUNC_USER_PART) || (MODULE_FUNCTION == MOD_FUNC_MONO_FIRMWARE))
	static USARTSerial serial1(HAL_USART_SERIAL1, &serial1_rx_buffer, &serial1_tx_buffer);
   d996a:	4d0c      	ldr	r5, [pc, #48]	; (d999c <_Z22__fetch_global_Serial1v+0x34>)
   d996c:	6829      	ldr	r1, [r5, #0]
   d996e:	f011 0401 	ands.w	r4, r1, #1
   d9972:	d111      	bne.n	d9998 <_Z22__fetch_global_Serial1v+0x30>
   d9974:	4628      	mov	r0, r5
   d9976:	f7fa fba1 	bl	d40bc <__cxa_guard_acquire>
   d997a:	b168      	cbz	r0, d9998 <_Z22__fetch_global_Serial1v+0x30>
   d997c:	4a08      	ldr	r2, [pc, #32]	; (d99a0 <_Z22__fetch_global_Serial1v+0x38>)
   d997e:	4b09      	ldr	r3, [pc, #36]	; (d99a4 <_Z22__fetch_global_Serial1v+0x3c>)
   d9980:	4809      	ldr	r0, [pc, #36]	; (d99a8 <_Z22__fetch_global_Serial1v+0x40>)
   d9982:	4621      	mov	r1, r4
   d9984:	f7ff ffd0 	bl	d9928 <_ZN11USARTSerialC1E16HAL_USART_SerialP11Ring_BufferS2_>
   d9988:	4628      	mov	r0, r5
   d998a:	f7fa fb9c 	bl	d40c6 <__cxa_guard_release>
   d998e:	4a07      	ldr	r2, [pc, #28]	; (d99ac <_Z22__fetch_global_Serial1v+0x44>)
   d9990:	4907      	ldr	r1, [pc, #28]	; (d99b0 <_Z22__fetch_global_Serial1v+0x48>)
   d9992:	4805      	ldr	r0, [pc, #20]	; (d99a8 <_Z22__fetch_global_Serial1v+0x40>)
   d9994:	f000 fe4f 	bl	da636 <__aeabi_atexit>
    serial1_tx_buffer = new Ring_Buffer();
  }
  static USARTSerial serial1(HAL_USART_SERIAL1, serial1_rx_buffer, serial1_tx_buffer);
#endif
	return serial1;
}
   d9998:	4803      	ldr	r0, [pc, #12]	; (d99a8 <_Z22__fetch_global_Serial1v+0x40>)
   d999a:	bd38      	pop	{r3, r4, r5, pc}
   d999c:	2003e4dc 	.word	0x2003e4dc
   d99a0:	2003e4e0 	.word	0x2003e4e0
   d99a4:	2003e458 	.word	0x2003e458
   d99a8:	2003e444 	.word	0x2003e444
   d99ac:	2003d8d4 	.word	0x2003d8d4
   d99b0:	000d98a5 	.word	0x000d98a5

000d99b4 <_ZN8particle6detail21futureCallbackWrapperEPv>:
 * License along with this library; if not, see <http://www.gnu.org/licenses/>.
 */

#include "spark_wiring_async.h"

void particle::detail::futureCallbackWrapper(void* data) {
   d99b4:	b510      	push	{r4, lr}
  template<typename _Res, typename... _ArgTypes>
    _Res
    function<_Res(_ArgTypes...)>::
    operator()(_ArgTypes... __args) const
    {
      if (_M_empty())
   d99b6:	6883      	ldr	r3, [r0, #8]
   d99b8:	4604      	mov	r4, r0
   d99ba:	b90b      	cbnz	r3, d99c0 <_ZN8particle6detail21futureCallbackWrapperEPv+0xc>
	__throw_bad_function_call();
   d99bc:	f000 fe59 	bl	da672 <_ZSt25__throw_bad_function_callv>
      return _M_invoker(_M_functor, std::forward<_ArgTypes>(__args)...);
   d99c0:	68c3      	ldr	r3, [r0, #12]
   d99c2:	4798      	blx	r3

    _Function_base() : _M_manager(nullptr) { }

    ~_Function_base()
    {
      if (_M_manager)
   d99c4:	68a3      	ldr	r3, [r4, #8]
   d99c6:	b11b      	cbz	r3, d99d0 <_ZN8particle6detail21futureCallbackWrapperEPv+0x1c>
	_M_manager(_M_functor, _M_functor, __destroy_functor);
   d99c8:	2203      	movs	r2, #3
   d99ca:	4621      	mov	r1, r4
   d99cc:	4620      	mov	r0, r4
   d99ce:	4798      	blx	r3
    auto callbackPtr = static_cast<const std::function<void()>*>(data);
    (*callbackPtr)();
    delete callbackPtr;
   d99d0:	4620      	mov	r0, r4
   d99d2:	2110      	movs	r1, #16
}
   d99d4:	e8bd 4010 	ldmia.w	sp!, {r4, lr}
#include "spark_wiring_async.h"

void particle::detail::futureCallbackWrapper(void* data) {
    auto callbackPtr = static_cast<const std::function<void()>*>(data);
    (*callbackPtr)();
    delete callbackPtr;
   d99d8:	f000 be3a 	b.w	da650 <_ZdlPvj>

000d99dc <_ZN5spark9MeshClass9listeningEv>:
    uint16_t getListenTimeout(void) {
        return network_get_listen_timeout(*this, 0, NULL);
    }

    bool listening(void) {
        return network_listening(*this, 0, NULL);
   d99dc:	2200      	movs	r2, #0
   d99de:	4611      	mov	r1, r2
   d99e0:	6840      	ldr	r0, [r0, #4]
   d99e2:	f7fc bcfb 	b.w	d63dc <network_listening>

000d99e6 <_ZN5spark9MeshClass16getListenTimeoutEv>:
    void setListenTimeout(uint16_t timeout) {
        network_set_listen_timeout(*this, timeout, NULL);
    }

    uint16_t getListenTimeout(void) {
        return network_get_listen_timeout(*this, 0, NULL);
   d99e6:	2200      	movs	r2, #0
   d99e8:	4611      	mov	r1, r2
   d99ea:	6840      	ldr	r0, [r0, #4]
   d99ec:	f7fc bd06 	b.w	d63fc <network_get_listen_timeout>

000d99f0 <_ZN5spark9MeshClass16setListenTimeoutEt>:
    void listen(bool begin=true) {
        network_listen(*this, begin ? 0 : 1, NULL);
    }

    void setListenTimeout(uint16_t timeout) {
        network_set_listen_timeout(*this, timeout, NULL);
   d99f0:	2200      	movs	r2, #0
   d99f2:	6840      	ldr	r0, [r0, #4]
   d99f4:	f7fc bcfa 	b.w	d63ec <network_set_listen_timeout>

000d99f8 <_ZN5spark9MeshClass6listenEb>:
    void disconnect() {
        network_disconnect(*this, NETWORK_DISCONNECT_REASON_USER, NULL);
    }

    void listen(bool begin=true) {
        network_listen(*this, begin ? 0 : 1, NULL);
   d99f8:	2200      	movs	r2, #0
   d99fa:	f081 0101 	eor.w	r1, r1, #1
   d99fe:	6840      	ldr	r0, [r0, #4]
   d9a00:	f7fc bce4 	b.w	d63cc <network_listen>

000d9a04 <_ZN5spark9MeshClass3offEv>:
    void on() {
        network_on(*this, 0, 0, NULL);
    }

    void off() {
        network_off(*this, 1, 0, NULL);
   d9a04:	2300      	movs	r3, #0
   d9a06:	461a      	mov	r2, r3
   d9a08:	2101      	movs	r1, #1
   d9a0a:	6840      	ldr	r0, [r0, #4]
   d9a0c:	f7fc bcd6 	b.w	d63bc <network_off>

000d9a10 <_ZN5spark9MeshClass2onEv>:
    MeshClass() :
            NetworkClass(NETWORK_INTERFACE_MESH) {
    }

    void on() {
        network_on(*this, 0, 0, NULL);
   d9a10:	2300      	movs	r3, #0
   d9a12:	461a      	mov	r2, r3
   d9a14:	4619      	mov	r1, r3
   d9a16:	6840      	ldr	r0, [r0, #4]
   d9a18:	f7fc bcc8 	b.w	d63ac <network_on>

000d9a1c <_ZN5spark9MeshClass5readyEv>:
    bool listening(void) {
        return network_listening(*this, 0, NULL);
    }

    bool ready() {
        return network_ready(*this, 0,  NULL);
   d9a1c:	2200      	movs	r2, #0
   d9a1e:	4611      	mov	r1, r2
   d9a20:	6840      	ldr	r0, [r0, #4]
   d9a22:	f7fc bcbb 	b.w	d639c <network_ready>

000d9a26 <_ZN5spark9MeshClass10connectingEv>:
    void connect(unsigned flags=0) {
        network_connect(*this, flags, 0, NULL);
    }

    bool connecting(void) {
        return network_connecting(*this, 0, NULL);
   d9a26:	2200      	movs	r2, #0
   d9a28:	4611      	mov	r1, r2
   d9a2a:	6840      	ldr	r0, [r0, #4]
   d9a2c:	f7fc bca6 	b.w	d637c <network_connecting>

000d9a30 <_ZN5spark9MeshClass10disconnectEv>:
    }

    void disconnect() {
        network_disconnect(*this, NETWORK_DISCONNECT_REASON_USER, NULL);
   d9a30:	2200      	movs	r2, #0
   d9a32:	2102      	movs	r1, #2
   d9a34:	6840      	ldr	r0, [r0, #4]
   d9a36:	f7fc bca9 	b.w	d638c <network_disconnect>

000d9a3a <_ZN5spark9MeshClass7connectEj>:
    void off() {
        network_off(*this, 1, 0, NULL);
    }

    void connect(unsigned flags=0) {
        network_connect(*this, flags, 0, NULL);
   d9a3a:	2300      	movs	r3, #0
   d9a3c:	461a      	mov	r2, r3
   d9a3e:	6840      	ldr	r0, [r0, #4]
   d9a40:	f7fc bc94 	b.w	d636c <network_connect>

000d9a44 <_ZNKSt14default_deleteIN6Thread4DataEEclEPS1_.isra.6>:
	       enable_if<is_convertible<_Up*, _Tp*>::value>::type>
        default_delete(const default_delete<_Up>&) noexcept { }

      /// Calls @c delete @p __ptr
      void
      operator()(_Tp* __ptr) const
   d9a44:	b538      	push	{r3, r4, r5, lr}
      {
	static_assert(!is_void<_Tp>::value,
		      "can't delete pointer to incomplete type");
	static_assert(sizeof(_Tp)>0,
		      "can't delete pointer to incomplete type");
	delete __ptr;
   d9a46:	4605      	mov	r5, r0
   d9a48:	b188      	cbz	r0, d9a6e <_ZNKSt14default_deleteIN6Thread4DataEEclEPS1_.isra.6+0x2a>

      /// Destructor, invokes the deleter if the stored pointer is not null.
      ~unique_ptr() noexcept
      {
	auto& __ptr = std::get<0>(_M_t);
	if (__ptr != nullptr)
   d9a4a:	6804      	ldr	r4, [r0, #0]
   d9a4c:	b14c      	cbz	r4, d9a62 <_ZNKSt14default_deleteIN6Thread4DataEEclEPS1_.isra.6+0x1e>

    _Function_base() : _M_manager(nullptr) { }

    ~_Function_base()
    {
      if (_M_manager)
   d9a4e:	68a3      	ldr	r3, [r4, #8]
   d9a50:	b11b      	cbz	r3, d9a5a <_ZNKSt14default_deleteIN6Thread4DataEEclEPS1_.isra.6+0x16>
	_M_manager(_M_functor, _M_functor, __destroy_functor);
   d9a52:	2203      	movs	r2, #3
   d9a54:	4621      	mov	r1, r4
   d9a56:	4620      	mov	r0, r4
   d9a58:	4798      	blx	r3
      {
	static_assert(!is_void<_Tp>::value,
		      "can't delete pointer to incomplete type");
	static_assert(sizeof(_Tp)>0,
		      "can't delete pointer to incomplete type");
	delete __ptr;
   d9a5a:	2110      	movs	r1, #16
   d9a5c:	4620      	mov	r0, r4
   d9a5e:	f000 fdf7 	bl	da650 <_ZdlPvj>
   d9a62:	4628      	mov	r0, r5
   d9a64:	2114      	movs	r1, #20
      }
   d9a66:	e8bd 4038 	ldmia.w	sp!, {r3, r4, r5, lr}
      {
	static_assert(!is_void<_Tp>::value,
		      "can't delete pointer to incomplete type");
	static_assert(sizeof(_Tp)>0,
		      "can't delete pointer to incomplete type");
	delete __ptr;
   d9a6a:	f000 bdf1 	b.w	da650 <_ZdlPvj>
   d9a6e:	bd38      	pop	{r3, r4, r5, pc}

000d9a70 <_ZNKSt14default_deleteI3UDPEclEPS0_.isra.8.constprop.13>:
   d9a70:	b110      	cbz	r0, d9a78 <_ZNKSt14default_deleteI3UDPEclEPS0_.isra.8.constprop.13+0x8>
   d9a72:	6803      	ldr	r3, [r0, #0]
   d9a74:	685b      	ldr	r3, [r3, #4]
   d9a76:	4718      	bx	r3
   d9a78:	4770      	bx	lr

000d9a7a <_ZN6ThreadD1Ev>:
    Thread(Thread&& thread)
        : d_(std::move(thread.d_))
    {
    }

    ~Thread()
   d9a7a:	b510      	push	{r4, lr}
      }

      /// Return the stored pointer.
      pointer
      get() const noexcept
      { return std::get<0>(_M_t); }
   d9a7c:	6803      	ldr	r3, [r0, #0]
   d9a7e:	4604      	mov	r4, r0
        dispose();
    }

    void dispose()
    {
        if (!isValid())
   d9a80:	b1bb      	cbz	r3, d9ab2 <_ZN6ThreadD1Ev+0x38>
        return isCurrent();
    }

    bool isCurrent() const
    {
        return isValid() && os_thread_is_current(d_->handle);
   d9a82:	6858      	ldr	r0, [r3, #4]
   d9a84:	f7fc fb0e 	bl	d60a4 <os_thread_is_current>
   d9a88:	b978      	cbnz	r0, d9aaa <_ZN6ThreadD1Ev+0x30>
   d9a8a:	6823      	ldr	r3, [r4, #0]

        // We shouldn't dispose of current thread
        if (isCurrent())
            return;

        if (!d_->exited) {
   d9a8c:	7c5a      	ldrb	r2, [r3, #17]
   d9a8e:	b912      	cbnz	r2, d9a96 <_ZN6ThreadD1Ev+0x1c>
        d_.reset();
    }

    bool join()
    {
        return isValid() && os_thread_join(d_->handle)==0;
   d9a90:	6858      	ldr	r0, [r3, #4]
   d9a92:	f7fc fb0f 	bl	d60b4 <os_thread_join>

        if (!d_->exited) {
            join();
        }

        os_thread_cleanup(d_->handle);
   d9a96:	6823      	ldr	r3, [r4, #0]
   d9a98:	6858      	ldr	r0, [r3, #4]
   d9a9a:	f7fc fb13 	bl	d60c4 <os_thread_cleanup>
#endif
    {
      // concept requirements
      __glibcxx_function_requires(_SGIAssignableConcept<_Tp>)

      _Tp __tmp = _GLIBCXX_MOVE(__a);
   d9a9e:	6820      	ldr	r0, [r4, #0]
      __a = _GLIBCXX_MOVE(__b);
   d9aa0:	2300      	movs	r3, #0
   d9aa2:	6023      	str	r3, [r4, #0]
      void
      reset(pointer __p = pointer()) noexcept
      {
	using std::swap;
	swap(std::get<0>(_M_t), __p);
	if (__p != pointer())
   d9aa4:	b128      	cbz	r0, d9ab2 <_ZN6ThreadD1Ev+0x38>
	  get_deleter()(__p);
   d9aa6:	f7ff ffcd 	bl	d9a44 <_ZNKSt14default_deleteIN6Thread4DataEEclEPS1_.isra.6>

      /// Destructor, invokes the deleter if the stored pointer is not null.
      ~unique_ptr() noexcept
      {
	auto& __ptr = std::get<0>(_M_t);
	if (__ptr != nullptr)
   d9aaa:	6820      	ldr	r0, [r4, #0]
   d9aac:	b108      	cbz	r0, d9ab2 <_ZN6ThreadD1Ev+0x38>
	  get_deleter()(__ptr);
   d9aae:	f7ff ffc9 	bl	d9a44 <_ZNKSt14default_deleteIN6Thread4DataEEclEPS1_.isra.6>
    }

    ~Thread()
    {
        dispose();
    }
   d9ab2:	4620      	mov	r0, r4
   d9ab4:	bd10      	pop	{r4, pc}

000d9ab6 <_ZN5spark11MeshPublishD1Ev>:
    virtual float getQualityValue() const {
        return 0.0f;
    }
};

class MeshPublish {
   d9ab6:	b538      	push	{r3, r4, r5, lr}
   d9ab8:	4604      	mov	r4, r0

      /// Destructor, invokes the deleter if the stored pointer is not null.
      ~unique_ptr()
      {
	auto& __ptr = std::get<0>(_M_t);
	if (__ptr != nullptr)
   d9aba:	f8d0 01c4 	ldr.w	r0, [r0, #452]	; 0x1c4
   d9abe:	b108      	cbz	r0, d9ac4 <_ZN5spark11MeshPublishD1Ev+0xe>
      void
      operator()(_Tp* __ptr) const
      {
	static_assert(sizeof(_Tp)>0,
		      "can't delete pointer to incomplete type");
	delete [] __ptr;
   d9ac0:	f7fa faef 	bl	d40a2 <_ZdaPv>
        dispose();
    }

    void dispose()
    {
        if (handle_) {
   d9ac4:	f8d4 01c0 	ldr.w	r0, [r4, #448]	; 0x1c0
   d9ac8:	b108      	cbz	r0, d9ace <_ZN5spark11MeshPublishD1Ev+0x18>
            os_mutex_recursive_destroy(handle_);
   d9aca:	f7fc fb0b 	bl	d60e4 <os_mutex_recursive_destroy>

      /// Destructor, invokes the deleter if the stored pointer is not null.
      ~unique_ptr() noexcept
      {
	auto& __ptr = std::get<0>(_M_t);
	if (__ptr != nullptr)
   d9ace:	f8d4 51bc 	ldr.w	r5, [r4, #444]	; 0x1bc
   d9ad2:	b135      	cbz	r5, d9ae2 <_ZN5spark11MeshPublishD1Ev+0x2c>
      {
	static_assert(!is_void<_Tp>::value,
		      "can't delete pointer to incomplete type");
	static_assert(sizeof(_Tp)>0,
		      "can't delete pointer to incomplete type");
	delete __ptr;
   d9ad4:	4628      	mov	r0, r5
   d9ad6:	f7ff ffd0 	bl	d9a7a <_ZN6ThreadD1Ev>
   d9ada:	2104      	movs	r1, #4
   d9adc:	4628      	mov	r0, r5
   d9ade:	f000 fdb7 	bl	da650 <_ZdlPvj>

      /// Destructor, invokes the deleter if the stored pointer is not null.
      ~unique_ptr() noexcept
      {
	auto& __ptr = std::get<0>(_M_t);
	if (__ptr != nullptr)
   d9ae2:	6820      	ldr	r0, [r4, #0]
   d9ae4:	b108      	cbz	r0, d9aea <_ZN5spark11MeshPublishD1Ev+0x34>
	  get_deleter()(__ptr);
   d9ae6:	f7ff ffc3 	bl	d9a70 <_ZNKSt14default_deleteI3UDPEclEPS0_.isra.8.constprop.13>
   d9aea:	4620      	mov	r0, r4
   d9aec:	bd38      	pop	{r3, r4, r5, pc}
	...

000d9af0 <_ZN5spark9MeshClassD1Ev>:
    RecursiveMutex mutex_;
    std::unique_ptr<uint8_t[]> buffer_;
    std::atomic_bool exit_;
};

class MeshClass : public NetworkClass, public MeshPublish {
   d9af0:	b510      	push	{r4, lr}
   d9af2:	4b04      	ldr	r3, [pc, #16]	; (d9b04 <_ZN5spark9MeshClassD1Ev+0x14>)
   d9af4:	4604      	mov	r4, r0
   d9af6:	f840 3b08 	str.w	r3, [r0], #8
   d9afa:	f7ff ffdc 	bl	d9ab6 <_ZN5spark11MeshPublishD1Ev>
   d9afe:	4620      	mov	r0, r4
   d9b00:	bd10      	pop	{r4, pc}
   d9b02:	bf00      	nop
   d9b04:	000dbe2c 	.word	0x000dbe2c

000d9b08 <_GLOBAL__sub_I__ZN5spark11MeshPublish13Subscriptions20event_handler_existsEPKcPFvS3_S3_EPvN17SubscriptionScope4EnumES3_>:

    return addr;
}

MeshClass Mesh;
} // namespace spark
   d9b08:	b538      	push	{r3, r4, r5, lr}
   d9b0a:	4c0e      	ldr	r4, [pc, #56]	; (d9b44 <_GLOBAL__sub_I__ZN5spark11MeshPublish13Subscriptions20event_handler_existsEPKcPFvS3_S3_EPvN17SubscriptionScope4EnumES3_+0x3c>)
   d9b0c:	4b0e      	ldr	r3, [pc, #56]	; (d9b48 <_GLOBAL__sub_I__ZN5spark11MeshPublish13Subscriptions20event_handler_existsEPKcPFvS3_S3_EPvN17SubscriptionScope4EnumES3_+0x40>)
   d9b0e:	6023      	str	r3, [r4, #0]

  template<std::size_t _Idx, typename _Head>
    struct _Head_base<_Idx, _Head, false>
    {
      constexpr _Head_base()
      : _M_head_impl() { }
   d9b10:	2500      	movs	r5, #0
   d9b12:	2302      	movs	r3, #2
     */
    RecursiveMutex(os_mutex_recursive_t handle) : handle_(handle) {}

    RecursiveMutex() : handle_(nullptr)
    {
        os_mutex_recursive_create(&handle_);
   d9b14:	f504 70e4 	add.w	r0, r4, #456	; 0x1c8
   d9b18:	6063      	str	r3, [r4, #4]
   d9b1a:	60a5      	str	r5, [r4, #8]
   d9b1c:	f8c4 51c4 	str.w	r5, [r4, #452]	; 0x1c4
    /**
     * Creates a shared mutex.
     */
    RecursiveMutex(os_mutex_recursive_t handle) : handle_(handle) {}

    RecursiveMutex() : handle_(nullptr)
   d9b20:	f8c4 51c8 	str.w	r5, [r4, #456]	; 0x1c8
    {
        os_mutex_recursive_create(&handle_);
   d9b24:	f7fc fad6 	bl	d60d4 <os_mutex_recursive_create>
public:
    MeshClass() :
            NetworkClass(NETWORK_INTERFACE_MESH) {
   d9b28:	4b08      	ldr	r3, [pc, #32]	; (d9b4c <_GLOBAL__sub_I__ZN5spark11MeshPublish13Subscriptions20event_handler_existsEPKcPFvS3_S3_EPvN17SubscriptionScope4EnumES3_+0x44>)
   d9b2a:	f8c4 51cc 	str.w	r5, [r4, #460]	; 0x1cc
      __atomic_base(const __atomic_base&) = delete;
      __atomic_base& operator=(const __atomic_base&) = delete;
      __atomic_base& operator=(const __atomic_base&) volatile = delete;

      // Requires __int_type convertible to _M_i.
      constexpr __atomic_base(__int_type __i) noexcept : _M_i (__i) { }
   d9b2e:	f884 51d0 	strb.w	r5, [r4, #464]	; 0x1d0
   d9b32:	6023      	str	r3, [r4, #0]
    }

    return addr;
}

MeshClass Mesh;
   d9b34:	4620      	mov	r0, r4
   d9b36:	4a06      	ldr	r2, [pc, #24]	; (d9b50 <_GLOBAL__sub_I__ZN5spark11MeshPublish13Subscriptions20event_handler_existsEPKcPFvS3_S3_EPvN17SubscriptionScope4EnumES3_+0x48>)
   d9b38:	4906      	ldr	r1, [pc, #24]	; (d9b54 <_GLOBAL__sub_I__ZN5spark11MeshPublish13Subscriptions20event_handler_existsEPKcPFvS3_S3_EPvN17SubscriptionScope4EnumES3_+0x4c>)
} // namespace spark
   d9b3a:	e8bd 4038 	ldmia.w	sp!, {r3, r4, r5, lr}
    }

    return addr;
}

MeshClass Mesh;
   d9b3e:	f000 bd7a 	b.w	da636 <__aeabi_atexit>
   d9b42:	bf00      	nop
   d9b44:	2003e564 	.word	0x2003e564
   d9b48:	000dbf14 	.word	0x000dbf14
   d9b4c:	000dbe2c 	.word	0x000dbe2c
   d9b50:	2003d8d4 	.word	0x2003d8d4
   d9b54:	000d9af1 	.word	0x000d9af1

000d9b58 <_ZN9TCPClient5writeEh>:
    done.dismiss();

    return 1; // success
}

size_t TCPClient::write(uint8_t b) {
   d9b58:	b537      	push	{r0, r1, r2, r4, r5, lr}
   d9b5a:	ac02      	add	r4, sp, #8
    return write(&b, 1, SOCKET_WAIT_FOREVER);
   d9b5c:	6803      	ldr	r3, [r0, #0]
    done.dismiss();

    return 1; // success
}

size_t TCPClient::write(uint8_t b) {
   d9b5e:	f804 1d01 	strb.w	r1, [r4, #-1]!
    return write(&b, 1, SOCKET_WAIT_FOREVER);
   d9b62:	6bdd      	ldr	r5, [r3, #60]	; 0x3c
   d9b64:	2201      	movs	r2, #1
   d9b66:	f04f 33ff 	mov.w	r3, #4294967295
   d9b6a:	4621      	mov	r1, r4
   d9b6c:	47a8      	blx	r5
}
   d9b6e:	b003      	add	sp, #12
   d9b70:	bd30      	pop	{r4, r5, pc}

000d9b72 <_ZN9TCPClient5writeEPKhj>:

size_t TCPClient::write(const uint8_t *buffer, size_t size) {
   d9b72:	b410      	push	{r4}
    return write(buffer, size, SOCKET_WAIT_FOREVER);
   d9b74:	6803      	ldr	r3, [r0, #0]
   d9b76:	6bdc      	ldr	r4, [r3, #60]	; 0x3c
   d9b78:	f04f 33ff 	mov.w	r3, #4294967295
   d9b7c:	46a4      	mov	ip, r4
}
   d9b7e:	f85d 4b04 	ldr.w	r4, [sp], #4
size_t TCPClient::write(uint8_t b) {
    return write(&b, 1, SOCKET_WAIT_FOREVER);
}

size_t TCPClient::write(const uint8_t *buffer, size_t size) {
    return write(buffer, size, SOCKET_WAIT_FOREVER);
   d9b82:	4760      	bx	ip

000d9b84 <_ZN9TCPClient5writeEhm>:
}

size_t TCPClient::write(uint8_t b, system_tick_t timeout) {
   d9b84:	b537      	push	{r0, r1, r2, r4, r5, lr}
   d9b86:	ac02      	add	r4, sp, #8
    return write(&b, 1, timeout);
   d9b88:	6803      	ldr	r3, [r0, #0]

size_t TCPClient::write(const uint8_t *buffer, size_t size) {
    return write(buffer, size, SOCKET_WAIT_FOREVER);
}

size_t TCPClient::write(uint8_t b, system_tick_t timeout) {
   d9b8a:	f804 1d01 	strb.w	r1, [r4, #-1]!
    return write(&b, 1, timeout);
   d9b8e:	6bdd      	ldr	r5, [r3, #60]	; 0x3c
   d9b90:	4621      	mov	r1, r4
   d9b92:	4613      	mov	r3, r2
   d9b94:	2201      	movs	r2, #1
   d9b96:	47a8      	blx	r5
}
   d9b98:	b003      	add	sp, #12
   d9b9a:	bd30      	pop	{r4, r5, pc}

000d9b9c <_ZN9TCPClient5flushEv>:
void TCPClient::flush_buffer() {
    d_->offset = 0;
    d_->total = 0;
}

void TCPClient::flush() {
   d9b9c:	4770      	bx	lr

000d9b9e <_ZN9TCPClient9connectedEv>:
    d_->sock = -1;
    d_->remoteIP.clear();
    flush_buffer();
}

uint8_t TCPClient::connected() {
   d9b9e:	b538      	push	{r3, r4, r5, lr}
   d9ba0:	6943      	ldr	r3, [r0, #20]
    bool rv = (status() || bufferCount());
   d9ba2:	681a      	ldr	r2, [r3, #0]
   d9ba4:	2a00      	cmp	r2, #0
    d_->sock = -1;
    d_->remoteIP.clear();
    flush_buffer();
}

uint8_t TCPClient::connected() {
   d9ba6:	4604      	mov	r4, r0
    bool rv = (status() || bufferCount());
   d9ba8:	da05      	bge.n	d9bb6 <_ZN9TCPClient9connectedEv+0x18>
   d9baa:	f8b3 2086 	ldrh.w	r2, [r3, #134]	; 0x86
   d9bae:	f8b3 3084 	ldrh.w	r3, [r3, #132]	; 0x84
   d9bb2:	429a      	cmp	r2, r3
   d9bb4:	d001      	beq.n	d9bba <_ZN9TCPClient9connectedEv+0x1c>
   d9bb6:	2501      	movs	r5, #1
   d9bb8:	e00b      	b.n	d9bd2 <_ZN9TCPClient9connectedEv+0x34>
    if (!rv) {
        rv = available();
   d9bba:	6803      	ldr	r3, [r0, #0]
   d9bbc:	691b      	ldr	r3, [r3, #16]
   d9bbe:	4798      	blx	r3
   d9bc0:	2800      	cmp	r0, #0
   d9bc2:	bf14      	ite	ne
   d9bc4:	2501      	movne	r5, #1
   d9bc6:	2500      	moveq	r5, #0
        if (!rv) {
   d9bc8:	d103      	bne.n	d9bd2 <_ZN9TCPClient9connectedEv+0x34>
            stop();
   d9bca:	6823      	ldr	r3, [r4, #0]
   d9bcc:	4620      	mov	r0, r4
   d9bce:	6adb      	ldr	r3, [r3, #44]	; 0x2c
   d9bd0:	4798      	blx	r3
        }
    }
    return rv;
}
   d9bd2:	4628      	mov	r0, r5
   d9bd4:	bd38      	pop	{r3, r4, r5, pc}

000d9bd6 <_ZN9TCPClientcvbEv>:

uint8_t TCPClient::status() {
    return (isOpen(d_->sock));
   d9bd6:	6943      	ldr	r3, [r0, #20]
}

TCPClient::operator bool() {
   return (status() != 0);
   d9bd8:	6818      	ldr	r0, [r3, #0]
}
   d9bda:	43c0      	mvns	r0, r0
   d9bdc:	0fc0      	lsrs	r0, r0, #31
   d9bde:	4770      	bx	lr

000d9be0 <_ZNSt19_Sp_counted_deleterIPN9TCPClient4DataENSt12__shared_ptrIS1_LN9__gnu_cxx12_Lock_policyE0EE8_DeleterISaIS1_EEES8_LS5_0EED1Ev>:

      // __d(__p) must not throw.
      _Sp_counted_deleter(_Ptr __p, _Deleter __d, const _Alloc& __a) noexcept
      : _M_impl(__p, __d, __a) { }

      ~_Sp_counted_deleter() noexcept { }
   d9be0:	4770      	bx	lr

000d9be2 <_ZNSt19_Sp_counted_deleterIPN9TCPClient4DataENSt12__shared_ptrIS1_LN9__gnu_cxx12_Lock_policyE0EE8_DeleterISaIS1_EEES8_LS5_0EE14_M_get_deleterERKSt9type_info>:
	  ? std::__addressof(_M_impl._M_del())
	  : nullptr;
#else
        return nullptr;
#endif
      }
   d9be2:	2000      	movs	r0, #0
   d9be4:	4770      	bx	lr

000d9be6 <_ZNSt19_Sp_counted_deleterIPN9TCPClient4DataENSt12__shared_ptrIS1_LN9__gnu_cxx12_Lock_policyE0EE8_DeleterISaIS1_EEES8_LS5_0EED0Ev>:

      // __d(__p) must not throw.
      _Sp_counted_deleter(_Ptr __p, _Deleter __d, const _Alloc& __a) noexcept
      : _M_impl(__p, __d, __a) { }

      ~_Sp_counted_deleter() noexcept { }
   d9be6:	b510      	push	{r4, lr}
   d9be8:	2114      	movs	r1, #20
   d9bea:	4604      	mov	r4, r0
   d9bec:	f000 fd30 	bl	da650 <_ZdlPvj>
   d9bf0:	4620      	mov	r0, r4
   d9bf2:	bd10      	pop	{r4, pc}

000d9bf4 <_ZNSt19_Sp_counted_deleterIPN9TCPClient4DataENSt12__shared_ptrIS1_LN9__gnu_cxx12_Lock_policyE0EE8_DeleterISaIS1_EEES8_LS5_0EE10_M_destroyEv>:
      }

      // __p is not permitted to be a null pointer.
      void
      deallocate(pointer __p, size_type)
      { ::operator delete(__p); }
   d9bf4:	f7fa ba53 	b.w	d409e <_ZdlPv>

000d9bf8 <_ZN9TCPClient5writeEPKhjm>:

size_t TCPClient::write(uint8_t b, system_tick_t timeout) {
    return write(&b, 1, timeout);
}

size_t TCPClient::write(const uint8_t *buffer, size_t size, system_tick_t timeout) {
   d9bf8:	b57f      	push	{r0, r1, r2, r3, r4, r5, r6, lr}
   d9bfa:	4616      	mov	r6, r2

    size_t printNumber(unsigned long, uint8_t);
    size_t printNumber(unsigned long long, uint8_t);
    size_t printFloat(double, uint8_t);
  protected:
    void setWriteError(int err = 1) { write_error = err; }
   d9bfc:	2200      	movs	r2, #0
   d9bfe:	6042      	str	r2, [r0, #4]
    clearWriteError();
    struct timeval tv = {};
   d9c00:	9202      	str	r2, [sp, #8]
   d9c02:	9203      	str	r2, [sp, #12]
    if (timeout != SOCKET_WAIT_FOREVER) {
   d9c04:	1c5a      	adds	r2, r3, #1

size_t TCPClient::write(uint8_t b, system_tick_t timeout) {
    return write(&b, 1, timeout);
}

size_t TCPClient::write(const uint8_t *buffer, size_t size, system_tick_t timeout) {
   d9c06:	4604      	mov	r4, r0
   d9c08:	460d      	mov	r5, r1
    clearWriteError();
    struct timeval tv = {};
    if (timeout != SOCKET_WAIT_FOREVER) {
   d9c0a:	d008      	beq.n	d9c1e <_ZN9TCPClient5writeEPKhjm+0x26>
        tv.tv_sec = timeout / 1000;
   d9c0c:	f44f 727a 	mov.w	r2, #1000	; 0x3e8
   d9c10:	fbb3 f1f2 	udiv	r1, r3, r2
   d9c14:	9102      	str	r1, [sp, #8]
        tv.tv_usec = (timeout % 1000) * 1000;
   d9c16:	fb02 3111 	mls	r1, r2, r1, r3
   d9c1a:	434a      	muls	r2, r1
   d9c1c:	9203      	str	r2, [sp, #12]
    }
    int ret = sock_setsockopt(d_->sock, SOL_SOCKET, SO_SNDTIMEO, &tv, sizeof(tv));
   d9c1e:	6960      	ldr	r0, [r4, #20]
   d9c20:	2308      	movs	r3, #8
   d9c22:	9300      	str	r3, [sp, #0]
   d9c24:	f241 0205 	movw	r2, #4101	; 0x1005
   d9c28:	446b      	add	r3, sp
   d9c2a:	f640 71ff 	movw	r1, #4095	; 0xfff
   d9c2e:	6800      	ldr	r0, [r0, #0]
   d9c30:	f7fc fad0 	bl	d61d4 <sock_setsockopt>
    if (ret < 0) {
   d9c34:	2800      	cmp	r0, #0
   d9c36:	db08      	blt.n	d9c4a <_ZN9TCPClient5writeEPKhjm+0x52>
        setWriteError(errno);
        return 0;
    }

    ret = sock_send(d_->sock, buffer, size, 0);
   d9c38:	6960      	ldr	r0, [r4, #20]
   d9c3a:	2300      	movs	r3, #0
   d9c3c:	4632      	mov	r2, r6
   d9c3e:	4629      	mov	r1, r5
   d9c40:	6800      	ldr	r0, [r0, #0]
   d9c42:	f7fc fae7 	bl	d6214 <sock_send>
    if (ret < 0) {
   d9c46:	2800      	cmp	r0, #0
   d9c48:	da04      	bge.n	d9c54 <_ZN9TCPClient5writeEPKhjm+0x5c>
        setWriteError(errno);
   d9c4a:	f7fc fc2f 	bl	d64ac <__errno>
   d9c4e:	6803      	ldr	r3, [r0, #0]
   d9c50:	6063      	str	r3, [r4, #4]
   d9c52:	2000      	movs	r0, #0
        return 0;
    }

    return ret;
}
   d9c54:	b004      	add	sp, #16
   d9c56:	bd70      	pop	{r4, r5, r6, pc}

000d9c58 <_ZNSt16_Sp_counted_baseILN9__gnu_cxx12_Lock_policyE0EE10_M_releaseEv.part.4.constprop.31>:
    _Sp_counted_base<_S_single>::_M_add_ref_copy()
    { ++_M_use_count; }

  template<>
    inline void
    _Sp_counted_base<_S_single>::_M_release() noexcept
   d9c58:	b510      	push	{r4, lr}
    {
      if (--_M_use_count == 0)
        {
          _M_dispose();
   d9c5a:	6803      	ldr	r3, [r0, #0]
    _Sp_counted_base<_S_single>::_M_add_ref_copy()
    { ++_M_use_count; }

  template<>
    inline void
    _Sp_counted_base<_S_single>::_M_release() noexcept
   d9c5c:	4604      	mov	r4, r0
    {
      if (--_M_use_count == 0)
        {
          _M_dispose();
   d9c5e:	689b      	ldr	r3, [r3, #8]
   d9c60:	4798      	blx	r3
          if (--_M_weak_count == 0)
   d9c62:	68a3      	ldr	r3, [r4, #8]
   d9c64:	3b01      	subs	r3, #1
   d9c66:	60a3      	str	r3, [r4, #8]
   d9c68:	b92b      	cbnz	r3, d9c76 <_ZNSt16_Sp_counted_baseILN9__gnu_cxx12_Lock_policyE0EE10_M_releaseEv.part.4.constprop.31+0x1e>
            _M_destroy();
   d9c6a:	6823      	ldr	r3, [r4, #0]
   d9c6c:	4620      	mov	r0, r4
   d9c6e:	68db      	ldr	r3, [r3, #12]
        }
    }
   d9c70:	e8bd 4010 	ldmia.w	sp!, {r4, lr}
    {
      if (--_M_use_count == 0)
        {
          _M_dispose();
          if (--_M_weak_count == 0)
            _M_destroy();
   d9c74:	4718      	bx	r3
   d9c76:	bd10      	pop	{r4, pc}

000d9c78 <_ZN9TCPClient8remoteIPEv>:

TCPClient::operator bool() {
   return (status() != 0);
}

IPAddress TCPClient::remoteIP() {
   d9c78:	b570      	push	{r4, r5, r6, lr}

/**
 * The IP address stored in host order.
 *
 */
class IPAddress : public Printable {
   d9c7a:	4604      	mov	r4, r0
   d9c7c:	694d      	ldr	r5, [r1, #20]
   d9c7e:	4b05      	ldr	r3, [pc, #20]	; (d9c94 <_ZN9TCPClient8remoteIPEv+0x1c>)
   d9c80:	f844 3b04 	str.w	r3, [r4], #4
   d9c84:	358c      	adds	r5, #140	; 0x8c
   d9c86:	4606      	mov	r6, r0
   d9c88:	cd0f      	ldmia	r5!, {r0, r1, r2, r3}
   d9c8a:	c40f      	stmia	r4!, {r0, r1, r2, r3}
   d9c8c:	682b      	ldr	r3, [r5, #0]
   d9c8e:	7023      	strb	r3, [r4, #0]
    return d_->remoteIP;
}
   d9c90:	4630      	mov	r0, r6
   d9c92:	bd70      	pop	{r4, r5, r6, pc}
   d9c94:	000dbdb8 	.word	0x000dbdb8

000d9c98 <_ZN9TCPClient4peekEv>:
        d_->offset += read;
    }
    return read;
}

int TCPClient::peek() {
   d9c98:	b510      	push	{r4, lr}
   d9c9a:	6943      	ldr	r3, [r0, #20]
    return (bufferCount() || available()) ? d_->buffer[d_->offset] : -1;
   d9c9c:	f8b3 2086 	ldrh.w	r2, [r3, #134]	; 0x86
   d9ca0:	f8b3 3084 	ldrh.w	r3, [r3, #132]	; 0x84
   d9ca4:	429a      	cmp	r2, r3
        d_->offset += read;
    }
    return read;
}

int TCPClient::peek() {
   d9ca6:	4604      	mov	r4, r0
    return (bufferCount() || available()) ? d_->buffer[d_->offset] : -1;
   d9ca8:	d005      	beq.n	d9cb6 <_ZN9TCPClient4peekEv+0x1e>
   d9caa:	6962      	ldr	r2, [r4, #20]
   d9cac:	f8b2 3084 	ldrh.w	r3, [r2, #132]	; 0x84
   d9cb0:	4413      	add	r3, r2
   d9cb2:	7918      	ldrb	r0, [r3, #4]
   d9cb4:	bd10      	pop	{r4, pc}
   d9cb6:	6803      	ldr	r3, [r0, #0]
   d9cb8:	691b      	ldr	r3, [r3, #16]
   d9cba:	4798      	blx	r3
   d9cbc:	2800      	cmp	r0, #0
   d9cbe:	d1f4      	bne.n	d9caa <_ZN9TCPClient4peekEv+0x12>
   d9cc0:	f04f 30ff 	mov.w	r0, #4294967295
}
   d9cc4:	bd10      	pop	{r4, pc}

000d9cc6 <_ZN9TCPClient4readEv>:
    } // isOpen(d_->sock)
    avail = bufferCount();
    return avail;
}

int TCPClient::read() {
   d9cc6:	b510      	push	{r4, lr}
   d9cc8:	6943      	ldr	r3, [r0, #20]
    return (bufferCount() || available()) ? d_->buffer[d_->offset++] : -1;
   d9cca:	f8b3 2086 	ldrh.w	r2, [r3, #134]	; 0x86
   d9cce:	f8b3 3084 	ldrh.w	r3, [r3, #132]	; 0x84
   d9cd2:	429a      	cmp	r2, r3
    } // isOpen(d_->sock)
    avail = bufferCount();
    return avail;
}

int TCPClient::read() {
   d9cd4:	4604      	mov	r4, r0
    return (bufferCount() || available()) ? d_->buffer[d_->offset++] : -1;
   d9cd6:	d008      	beq.n	d9cea <_ZN9TCPClient4readEv+0x24>
   d9cd8:	6962      	ldr	r2, [r4, #20]
   d9cda:	f8b2 3084 	ldrh.w	r3, [r2, #132]	; 0x84
   d9cde:	1c59      	adds	r1, r3, #1
   d9ce0:	4413      	add	r3, r2
   d9ce2:	f8a2 1084 	strh.w	r1, [r2, #132]	; 0x84
   d9ce6:	7918      	ldrb	r0, [r3, #4]
   d9ce8:	bd10      	pop	{r4, pc}
   d9cea:	6803      	ldr	r3, [r0, #0]
   d9cec:	691b      	ldr	r3, [r3, #16]
   d9cee:	4798      	blx	r3
   d9cf0:	2800      	cmp	r0, #0
   d9cf2:	d1f1      	bne.n	d9cd8 <_ZN9TCPClient4readEv+0x12>
   d9cf4:	f04f 30ff 	mov.w	r0, #4294967295
}
   d9cf8:	bd10      	pop	{r4, pc}

000d9cfa <_ZN9TCPClient4readEPhj>:

int TCPClient::read(uint8_t *buffer, size_t size) {
   d9cfa:	b5f8      	push	{r3, r4, r5, r6, r7, lr}
   d9cfc:	6943      	ldr	r3, [r0, #20]
   d9cfe:	4617      	mov	r7, r2
    int read = -1;
    if (bufferCount() || available()) {
   d9d00:	f8b3 2086 	ldrh.w	r2, [r3, #134]	; 0x86
   d9d04:	f8b3 3084 	ldrh.w	r3, [r3, #132]	; 0x84
   d9d08:	429a      	cmp	r2, r3

int TCPClient::read() {
    return (bufferCount() || available()) ? d_->buffer[d_->offset++] : -1;
}

int TCPClient::read(uint8_t *buffer, size_t size) {
   d9d0a:	4605      	mov	r5, r0
   d9d0c:	460e      	mov	r6, r1
    int read = -1;
    if (bufferCount() || available()) {
   d9d0e:	d106      	bne.n	d9d1e <_ZN9TCPClient4readEPhj+0x24>
   d9d10:	6803      	ldr	r3, [r0, #0]
   d9d12:	691b      	ldr	r3, [r3, #16]
   d9d14:	4798      	blx	r3
   d9d16:	b910      	cbnz	r0, d9d1e <_ZN9TCPClient4readEPhj+0x24>
int TCPClient::read() {
    return (bufferCount() || available()) ? d_->buffer[d_->offset++] : -1;
}

int TCPClient::read(uint8_t *buffer, size_t size) {
    int read = -1;
   d9d18:	f04f 34ff 	mov.w	r4, #4294967295
   d9d1c:	e014      	b.n	d9d48 <_ZN9TCPClient4readEPhj+0x4e>
   d9d1e:	6969      	ldr	r1, [r5, #20]

    return ret;
}

int TCPClient::bufferCount() {
    return d_->total - d_->offset;
   d9d20:	f8b1 3084 	ldrh.w	r3, [r1, #132]	; 0x84
   d9d24:	f8b1 4086 	ldrh.w	r4, [r1, #134]	; 0x86
   d9d28:	1ae4      	subs	r4, r4, r3
}

int TCPClient::read(uint8_t *buffer, size_t size) {
    int read = -1;
    if (bufferCount() || available()) {
        read = (size > (size_t) bufferCount()) ? bufferCount() : size;
   d9d2a:	42bc      	cmp	r4, r7
   d9d2c:	bf28      	it	cs
   d9d2e:	463c      	movcs	r4, r7
        memcpy(buffer, &d_->buffer[d_->offset], read);
   d9d30:	4419      	add	r1, r3
   d9d32:	4622      	mov	r2, r4
   d9d34:	3104      	adds	r1, #4
   d9d36:	4630      	mov	r0, r6
   d9d38:	f000 fe03 	bl	da942 <memcpy>
   d9d3c:	696a      	ldr	r2, [r5, #20]
        d_->offset += read;
   d9d3e:	f8b2 3084 	ldrh.w	r3, [r2, #132]	; 0x84
   d9d42:	4423      	add	r3, r4
   d9d44:	f8a2 3084 	strh.w	r3, [r2, #132]	; 0x84
    }
    return read;
}
   d9d48:	4620      	mov	r0, r4
   d9d4a:	bdf8      	pop	{r3, r4, r5, r6, r7, pc}

000d9d4c <_ZN9TCPClient7connectEPKctm>:
        : d_(std::make_shared<Data>(sock)) {
    flush_buffer();
}

// return 0 on error, 1 on success
int TCPClient::connect(const char* host, uint16_t port, network_interface_t nif) {
   d9d4c:	e92d 43f0 	stmdb	sp!, {r4, r5, r6, r7, r8, r9, lr}
   d9d50:	4698      	mov	r8, r3
    stop();
   d9d52:	6803      	ldr	r3, [r0, #0]
        : d_(std::make_shared<Data>(sock)) {
    flush_buffer();
}

// return 0 on error, 1 on success
int TCPClient::connect(const char* host, uint16_t port, network_interface_t nif) {
   d9d54:	b093      	sub	sp, #76	; 0x4c
    stop();
   d9d56:	6adb      	ldr	r3, [r3, #44]	; 0x2c
        : d_(std::make_shared<Data>(sock)) {
    flush_buffer();
}

// return 0 on error, 1 on success
int TCPClient::connect(const char* host, uint16_t port, network_interface_t nif) {
   d9d58:	460d      	mov	r5, r1
   d9d5a:	4606      	mov	r6, r0
   d9d5c:	4617      	mov	r7, r2
    stop();
   d9d5e:	4798      	blx	r3

    struct addrinfo* ais = nullptr;
   d9d60:	ab12      	add	r3, sp, #72	; 0x48
   d9d62:	2400      	movs	r4, #0
   d9d64:	f843 4d48 	str.w	r4, [r3, #-72]!
    SCOPE_GUARD({
        netdb_freeaddrinfo(ais);
    });
    CHECK_TRUE(netdb_getaddrinfo(host, nullptr, nullptr, &ais) == 0, 0); // return 0
   d9d68:	4622      	mov	r2, r4
   d9d6a:	4621      	mov	r1, r4
   d9d6c:	4628      	mov	r0, r5
   d9d6e:	f7fc f909 	bl	d5f84 <netdb_getaddrinfo>
   d9d72:	4681      	mov	r9, r0
   d9d74:	2800      	cmp	r0, #0
   d9d76:	d13d      	bne.n	d9df4 <_ZN9TCPClient7connectEPKctm+0xa8>

    // FIXME: for now using only the first entry
    if (ais && ais->ai_addr) {
   d9d78:	9b00      	ldr	r3, [sp, #0]
   d9d7a:	2b00      	cmp	r3, #0
   d9d7c:	d056      	beq.n	d9e2c <_ZN9TCPClient7connectEPKctm+0xe0>
   d9d7e:	695b      	ldr	r3, [r3, #20]
   d9d80:	2b00      	cmp	r3, #0
   d9d82:	d053      	beq.n	d9e2c <_ZN9TCPClient7connectEPKctm+0xe0>
        IPAddress addr;
   d9d84:	a806      	add	r0, sp, #24
   d9d86:	f7ff fca9 	bl	d96dc <_ZN9IPAddressC1Ev>
        detail::sockaddrToIpAddressPort(ais->ai_addr, addr, nullptr);
   d9d8a:	9b00      	ldr	r3, [sp, #0]
   d9d8c:	695c      	ldr	r4, [r3, #20]
namespace spark {

namespace detail {

inline void sockaddrToIpAddressPort(const struct sockaddr* saddr, IPAddress& addr, uint16_t* port) {
    if (saddr->sa_family == AF_INET) {
   d9d8e:	7863      	ldrb	r3, [r4, #1]
   d9d90:	2b02      	cmp	r3, #2
   d9d92:	d101      	bne.n	d9d98 <_ZN9TCPClient7connectEPKctm+0x4c>
        const struct sockaddr_in* inaddr = (const struct sockaddr_in*)saddr;
        addr = (const uint8_t*)(&inaddr->sin_addr.s_addr);
   d9d94:	1d21      	adds	r1, r4, #4
   d9d96:	e013      	b.n	d9dc0 <_ZN9TCPClient7connectEPKctm+0x74>
        if (port) {
            *port = ntohs(inaddr->sin_port);
        }
    }
#if HAL_IPv6
    else if (saddr->sa_family == AF_INET6) {
   d9d98:	2b0a      	cmp	r3, #10
   d9d9a:	d114      	bne.n	d9dc6 <_ZN9TCPClient7connectEPKctm+0x7a>
        const struct sockaddr_in6* in6addr = (const struct sockaddr_in6*)saddr;
        HAL_IPAddress a = {};
   d9d9c:	2211      	movs	r2, #17
   d9d9e:	4649      	mov	r1, r9
   d9da0:	a801      	add	r0, sp, #4
   d9da2:	f000 fdf4 	bl	da98e <memset>
        if (!IN6_IS_ADDR_V4MAPPED(&in6addr->sin6_addr)) {
   d9da6:	68a3      	ldr	r3, [r4, #8]
   d9da8:	bb33      	cbnz	r3, d9df8 <_ZN9TCPClient7connectEPKctm+0xac>
   d9daa:	68e3      	ldr	r3, [r4, #12]
   d9dac:	bb23      	cbnz	r3, d9df8 <_ZN9TCPClient7connectEPKctm+0xac>
   d9dae:	f64f 70ff 	movw	r0, #65535	; 0xffff
   d9db2:	6925      	ldr	r5, [r4, #16]
   d9db4:	f7fc f9b6 	bl	d6124 <inet_htonl>
   d9db8:	4285      	cmp	r5, r0
   d9dba:	d11d      	bne.n	d9df8 <_ZN9TCPClient7connectEPKctm+0xac>
            memcpy(a.ipv6, in6addr->sin6_addr.s6_addr, sizeof(a.ipv6));
            a.v = 6;
            addr = IPAddress(a);
        } else {
            auto ptr = (const uint32_t*)(in6addr->sin6_addr.s6_addr);
            addr = (const uint8_t*)(&ptr[3]);
   d9dbc:	f104 0114 	add.w	r1, r4, #20
   d9dc0:	a806      	add	r0, sp, #24
   d9dc2:	f7ff fcce 	bl	d9762 <_ZN9IPAddressaSEPKh>
    operator bool() const;

    // For some reason, without this non-const overload GCC struggles to pick right operator
    // for bool conversion of a non-const object
    operator bool() {
        return static_cast<const IPAddress*>(this)->operator bool();
   d9dc6:	a806      	add	r0, sp, #24
   d9dc8:	f7ff fca8 	bl	d971c <_ZNK9IPAddresscvbEv>
        if (addr) {
   d9dcc:	2800      	cmp	r0, #0
   d9dce:	d02d      	beq.n	d9e2c <_ZN9TCPClient7connectEPKctm+0xe0>
            return connect(addr, port, nif);
   d9dd0:	6833      	ldr	r3, [r6, #0]

/**
 * The IP address stored in host order.
 *
 */
class IPAddress : public Printable {
   d9dd2:	ad07      	add	r5, sp, #28
   d9dd4:	f8d3 9020 	ldr.w	r9, [r3, #32]
   d9dd8:	4b18      	ldr	r3, [pc, #96]	; (d9e3c <_ZN9TCPClient7connectEPKctm+0xf0>)
   d9dda:	930c      	str	r3, [sp, #48]	; 0x30
   d9ddc:	cd0f      	ldmia	r5!, {r0, r1, r2, r3}
   d9dde:	ac0d      	add	r4, sp, #52	; 0x34
   d9de0:	c40f      	stmia	r4!, {r0, r1, r2, r3}
   d9de2:	682b      	ldr	r3, [r5, #0]
   d9de4:	7023      	strb	r3, [r4, #0]
   d9de6:	463a      	mov	r2, r7
   d9de8:	4643      	mov	r3, r8
   d9dea:	a90c      	add	r1, sp, #48	; 0x30
   d9dec:	4630      	mov	r0, r6
   d9dee:	47c8      	blx	r9
   d9df0:	4681      	mov	r9, r0
   d9df2:	e01b      	b.n	d9e2c <_ZN9TCPClient7connectEPKctm+0xe0>

    struct addrinfo* ais = nullptr;
    SCOPE_GUARD({
        netdb_freeaddrinfo(ais);
    });
    CHECK_TRUE(netdb_getaddrinfo(host, nullptr, nullptr, &ais) == 0, 0); // return 0
   d9df4:	46a1      	mov	r9, r4
   d9df6:	e019      	b.n	d9e2c <_ZN9TCPClient7connectEPKctm+0xe0>
#if HAL_IPv6
    else if (saddr->sa_family == AF_INET6) {
        const struct sockaddr_in6* in6addr = (const struct sockaddr_in6*)saddr;
        HAL_IPAddress a = {};
        if (!IN6_IS_ADDR_V4MAPPED(&in6addr->sin6_addr)) {
            memcpy(a.ipv6, in6addr->sin6_addr.s6_addr, sizeof(a.ipv6));
   d9df8:	f104 0308 	add.w	r3, r4, #8
   d9dfc:	ad01      	add	r5, sp, #4
   d9dfe:	3418      	adds	r4, #24
   d9e00:	6818      	ldr	r0, [r3, #0]
   d9e02:	6859      	ldr	r1, [r3, #4]
   d9e04:	462a      	mov	r2, r5
   d9e06:	c203      	stmia	r2!, {r0, r1}
   d9e08:	3308      	adds	r3, #8
   d9e0a:	42a3      	cmp	r3, r4
   d9e0c:	4615      	mov	r5, r2
   d9e0e:	d1f7      	bne.n	d9e00 <_ZN9TCPClient7connectEPKctm+0xb4>
            a.v = 6;
   d9e10:	2306      	movs	r3, #6
            addr = IPAddress(a);
   d9e12:	a901      	add	r1, sp, #4
   d9e14:	a80c      	add	r0, sp, #48	; 0x30
   d9e16:	ad0d      	add	r5, sp, #52	; 0x34
    else if (saddr->sa_family == AF_INET6) {
        const struct sockaddr_in6* in6addr = (const struct sockaddr_in6*)saddr;
        HAL_IPAddress a = {};
        if (!IN6_IS_ADDR_V4MAPPED(&in6addr->sin6_addr)) {
            memcpy(a.ipv6, in6addr->sin6_addr.s6_addr, sizeof(a.ipv6));
            a.v = 6;
   d9e18:	f88d 3014 	strb.w	r3, [sp, #20]
            addr = IPAddress(a);
   d9e1c:	f7ff fc6c 	bl	d96f8 <_ZN9IPAddressC1ERK16_HAL_IPAddress_t>
   d9e20:	cd0f      	ldmia	r5!, {r0, r1, r2, r3}
   d9e22:	ac07      	add	r4, sp, #28
   d9e24:	c40f      	stmia	r4!, {r0, r1, r2, r3}
   d9e26:	682b      	ldr	r3, [r5, #0]
   d9e28:	7023      	strb	r3, [r4, #0]
   d9e2a:	e7cc      	b.n	d9dc6 <_ZN9TCPClient7connectEPKctm+0x7a>
// return 0 on error, 1 on success
int TCPClient::connect(const char* host, uint16_t port, network_interface_t nif) {
    stop();

    struct addrinfo* ais = nullptr;
    SCOPE_GUARD({
   d9e2c:	9800      	ldr	r0, [sp, #0]
   d9e2e:	f7fc f8a1 	bl	d5f74 <netdb_freeaddrinfo>
            return connect(addr, port, nif);
        }
    }

    return 0; // error, could not connect
}
   d9e32:	4648      	mov	r0, r9
   d9e34:	b013      	add	sp, #76	; 0x4c
   d9e36:	e8bd 83f0 	ldmia.w	sp!, {r4, r5, r6, r7, r8, r9, pc}
   d9e3a:	bf00      	nop
   d9e3c:	000dbdb8 	.word	0x000dbdb8

000d9e40 <_ZN9TCPClient12flush_bufferEv>:

int TCPClient::peek() {
    return (bufferCount() || available()) ? d_->buffer[d_->offset] : -1;
}

void TCPClient::flush_buffer() {
   d9e40:	6942      	ldr	r2, [r0, #20]
    d_->offset = 0;
   d9e42:	2300      	movs	r3, #0
   d9e44:	f8a2 3084 	strh.w	r3, [r2, #132]	; 0x84
   d9e48:	6942      	ldr	r2, [r0, #20]
    d_->total = 0;
   d9e4a:	f8a2 3086 	strh.w	r3, [r2, #134]	; 0x86
   d9e4e:	4770      	bx	lr

000d9e50 <_ZN9TCPClient7connectE9IPAddresstm>:

    return 0; // error, could not connect
}

// return 0 on error, 1 on success
int TCPClient::connect(IPAddress ip, uint16_t port, network_interface_t nif) {
   d9e50:	e92d 41f0 	stmdb	sp!, {r4, r5, r6, r7, r8, lr}
   d9e54:	461e      	mov	r6, r3
    stop();
   d9e56:	6803      	ldr	r3, [r0, #0]

    return 0; // error, could not connect
}

// return 0 on error, 1 on success
int TCPClient::connect(IPAddress ip, uint16_t port, network_interface_t nif) {
   d9e58:	460c      	mov	r4, r1
   d9e5a:	b08a      	sub	sp, #40	; 0x28
    stop();
   d9e5c:	6adb      	ldr	r3, [r3, #44]	; 0x2c

    return 0; // error, could not connect
}

// return 0 on error, 1 on success
int TCPClient::connect(IPAddress ip, uint16_t port, network_interface_t nif) {
   d9e5e:	4605      	mov	r5, r0
   d9e60:	4617      	mov	r7, r2
    stop();
   d9e62:	4798      	blx	r3

    NAMED_SCOPE_GUARD(done, {
        stop();
    });

    d_->sock = sock_socket(ip.version() == 4 ? AF_INET : AF_INET6, SOCK_STREAM, IPPROTO_TCP);
   d9e64:	7d23      	ldrb	r3, [r4, #20]
   d9e66:	f8d5 8014 	ldr.w	r8, [r5, #20]
   d9e6a:	2b04      	cmp	r3, #4
   d9e6c:	bf0c      	ite	eq
   d9e6e:	2002      	moveq	r0, #2
   d9e70:	200a      	movne	r0, #10
   d9e72:	2206      	movs	r2, #6
   d9e74:	2101      	movs	r1, #1
   d9e76:	f7fc f9d5 	bl	d6224 <sock_socket>
   d9e7a:	f8c8 0000 	str.w	r0, [r8]
    CHECK_TRUE(d_->sock >= 0, 0); // return 0
   d9e7e:	696b      	ldr	r3, [r5, #20]
   d9e80:	681b      	ldr	r3, [r3, #0]
   d9e82:	2b00      	cmp	r3, #0
   d9e84:	db18      	blt.n	d9eb8 <_ZN9TCPClient7connectE9IPAddresstm+0x68>

    flush_buffer();
   d9e86:	4628      	mov	r0, r5
   d9e88:	f7ff ffda 	bl	d9e40 <_ZN9TCPClient12flush_bufferEv>

#if HAL_PLATFORM_IFAPI
    // TODO: provide compatibility headers and use if_indextoname()
    if (nif != 0) {
   d9e8c:	b1d6      	cbz	r6, d9ec4 <_ZN9TCPClient7connectE9IPAddresstm+0x74>
        struct ifreq ifr = {};
   d9e8e:	2300      	movs	r3, #0
        CHECK_TRUE(if_index_to_name(nif, ifr.ifr_name) == 0, 0); // return 0
   d9e90:	a903      	add	r1, sp, #12
   d9e92:	b2f0      	uxtb	r0, r6
    flush_buffer();

#if HAL_PLATFORM_IFAPI
    // TODO: provide compatibility headers and use if_indextoname()
    if (nif != 0) {
        struct ifreq ifr = {};
   d9e94:	9303      	str	r3, [sp, #12]
   d9e96:	f8ad 3010 	strh.w	r3, [sp, #16]
        CHECK_TRUE(if_index_to_name(nif, ifr.ifr_name) == 0, 0); // return 0
   d9e9a:	f7fc f883 	bl	d5fa4 <if_index_to_name>
   d9e9e:	b958      	cbnz	r0, d9eb8 <_ZN9TCPClient7connectE9IPAddresstm+0x68>
        CHECK_TRUE(sock_setsockopt(d_->sock, SOL_SOCKET, SO_BINDTODEVICE, &ifr, sizeof(ifr)) == 0, 0); // return 0
   d9ea0:	6968      	ldr	r0, [r5, #20]
   d9ea2:	2306      	movs	r3, #6
   d9ea4:	9300      	str	r3, [sp, #0]
   d9ea6:	f241 020b 	movw	r2, #4107	; 0x100b
   d9eaa:	ab03      	add	r3, sp, #12
   d9eac:	f640 71ff 	movw	r1, #4095	; 0xfff
   d9eb0:	6800      	ldr	r0, [r0, #0]
   d9eb2:	f7fc f98f 	bl	d61d4 <sock_setsockopt>
   d9eb6:	b128      	cbz	r0, d9ec4 <_ZN9TCPClient7connectE9IPAddresstm+0x74>

// return 0 on error, 1 on success
int TCPClient::connect(IPAddress ip, uint16_t port, network_interface_t nif) {
    stop();

    NAMED_SCOPE_GUARD(done, {
   d9eb8:	682b      	ldr	r3, [r5, #0]
   d9eba:	4628      	mov	r0, r5
   d9ebc:	6adb      	ldr	r3, [r3, #44]	; 0x2c

#if HAL_PLATFORM_IFAPI
    // TODO: provide compatibility headers and use if_indextoname()
    if (nif != 0) {
        struct ifreq ifr = {};
        CHECK_TRUE(if_index_to_name(nif, ifr.ifr_name) == 0, 0); // return 0
   d9ebe:	2400      	movs	r4, #0

// return 0 on error, 1 on success
int TCPClient::connect(IPAddress ip, uint16_t port, network_interface_t nif) {
    stop();

    NAMED_SCOPE_GUARD(done, {
   d9ec0:	4798      	blx	r3
   d9ec2:	e03b      	b.n	d9f3c <_ZN9TCPClient7connectE9IPAddresstm+0xec>
        CHECK_TRUE(if_index_to_name(nif, ifr.ifr_name) == 0, 0); // return 0
        CHECK_TRUE(sock_setsockopt(d_->sock, SOL_SOCKET, SO_BINDTODEVICE, &ifr, sizeof(ifr)) == 0, 0); // return 0
    }
#endif // HAL_PLATFORM_IFAPI

    sockaddr_storage saddr = {};
   d9ec4:	261c      	movs	r6, #28
   d9ec6:	4632      	mov	r2, r6
   d9ec8:	2100      	movs	r1, #0
   d9eca:	a803      	add	r0, sp, #12
   d9ecc:	f000 fd5f 	bl	da98e <memset>
    if (ip.version() == 4) {
   d9ed0:	7d23      	ldrb	r3, [r4, #20]
        auto s = (sockaddr_in*)&saddr;
        s->sin_len = sizeof(saddr);
   d9ed2:	f88d 600c 	strb.w	r6, [sp, #12]
        CHECK_TRUE(sock_setsockopt(d_->sock, SOL_SOCKET, SO_BINDTODEVICE, &ifr, sizeof(ifr)) == 0, 0); // return 0
    }
#endif // HAL_PLATFORM_IFAPI

    sockaddr_storage saddr = {};
    if (ip.version() == 4) {
   d9ed6:	2b04      	cmp	r3, #4
   d9ed8:	d10c      	bne.n	d9ef4 <_ZN9TCPClient7connectE9IPAddresstm+0xa4>
        auto s = (sockaddr_in*)&saddr;
        s->sin_len = sizeof(saddr);
        s->sin_family = AF_INET;
   d9eda:	2302      	movs	r3, #2
        s->sin_port = htons(port);
   d9edc:	4638      	mov	r0, r7

    sockaddr_storage saddr = {};
    if (ip.version() == 4) {
        auto s = (sockaddr_in*)&saddr;
        s->sin_len = sizeof(saddr);
        s->sin_family = AF_INET;
   d9ede:	f88d 300d 	strb.w	r3, [sp, #13]
        s->sin_port = htons(port);
   d9ee2:	f7fc f927 	bl	d6134 <inet_htons>
   d9ee6:	f8ad 000e 	strh.w	r0, [sp, #14]
        s->sin_addr.s_addr = htonl(ip.raw().ipv4);
   d9eea:	6860      	ldr	r0, [r4, #4]
   d9eec:	f7fc f91a 	bl	d6124 <inet_htonl>
   d9ef0:	9004      	str	r0, [sp, #16]
   d9ef2:	e013      	b.n	d9f1c <_ZN9TCPClient7connectE9IPAddresstm+0xcc>
    } else {
        auto s = (sockaddr_in6*)&saddr;
        s->sin6_len = sizeof(saddr);
        s->sin6_family = AF_INET6;
   d9ef4:	230a      	movs	r3, #10
        s->sin6_port = htons(port);
   d9ef6:	4638      	mov	r0, r7
        s->sin_port = htons(port);
        s->sin_addr.s_addr = htonl(ip.raw().ipv4);
    } else {
        auto s = (sockaddr_in6*)&saddr;
        s->sin6_len = sizeof(saddr);
        s->sin6_family = AF_INET6;
   d9ef8:	f88d 300d 	strb.w	r3, [sp, #13]
        s->sin6_port = htons(port);
   d9efc:	f7fc f91a 	bl	d6134 <inet_htons>
        memcpy(s->sin6_addr.s6_addr, ip.raw().ipv6, sizeof(s->sin6_addr.s6_addr));
   d9f00:	ae05      	add	r6, sp, #20
        s->sin_addr.s_addr = htonl(ip.raw().ipv4);
    } else {
        auto s = (sockaddr_in6*)&saddr;
        s->sin6_len = sizeof(saddr);
        s->sin6_family = AF_INET6;
        s->sin6_port = htons(port);
   d9f02:	f8ad 000e 	strh.w	r0, [sp, #14]
        memcpy(s->sin6_addr.s6_addr, ip.raw().ipv6, sizeof(s->sin6_addr.s6_addr));
   d9f06:	1d23      	adds	r3, r4, #4
   d9f08:	f104 0714 	add.w	r7, r4, #20
   d9f0c:	6818      	ldr	r0, [r3, #0]
   d9f0e:	6859      	ldr	r1, [r3, #4]
   d9f10:	4632      	mov	r2, r6
   d9f12:	c203      	stmia	r2!, {r0, r1}
   d9f14:	3308      	adds	r3, #8
   d9f16:	42bb      	cmp	r3, r7
   d9f18:	4616      	mov	r6, r2
   d9f1a:	d1f7      	bne.n	d9f0c <_ZN9TCPClient7connectE9IPAddresstm+0xbc>
    }

    // FIXME: timeout?
    CHECK_TRUE(sock_connect(d_->sock, (const sockaddr*)&saddr, sizeof(saddr)) == 0, 0); // return 0
   d9f1c:	696b      	ldr	r3, [r5, #20]
   d9f1e:	221c      	movs	r2, #28
   d9f20:	a903      	add	r1, sp, #12
   d9f22:	6818      	ldr	r0, [r3, #0]
   d9f24:	f7fc f966 	bl	d61f4 <sock_connect>
   d9f28:	2800      	cmp	r0, #0
   d9f2a:	d1c5      	bne.n	d9eb8 <_ZN9TCPClient7connectE9IPAddresstm+0x68>
   d9f2c:	3404      	adds	r4, #4
   d9f2e:	cc0f      	ldmia	r4!, {r0, r1, r2, r3}
   d9f30:	696d      	ldr	r5, [r5, #20]
   d9f32:	358c      	adds	r5, #140	; 0x8c
   d9f34:	c50f      	stmia	r5!, {r0, r1, r2, r3}
   d9f36:	6823      	ldr	r3, [r4, #0]
   d9f38:	702b      	strb	r3, [r5, #0]

    d_->remoteIP = ip;

    done.dismiss();

    return 1; // success
   d9f3a:	2401      	movs	r4, #1
}
   d9f3c:	4620      	mov	r0, r4
   d9f3e:	b00a      	add	sp, #40	; 0x28
   d9f40:	e8bd 81f0 	ldmia.w	sp!, {r4, r5, r6, r7, r8, pc}

000d9f44 <_ZN9TCPClient4stopEv>:
}

void TCPClient::flush() {
}

void TCPClient::stop() {
   d9f44:	b510      	push	{r4, lr}
    if (isOpen(d_->sock)) {
   d9f46:	6943      	ldr	r3, [r0, #20]
}

void TCPClient::flush() {
}

void TCPClient::stop() {
   d9f48:	4604      	mov	r4, r0
    if (isOpen(d_->sock)) {
   d9f4a:	6818      	ldr	r0, [r3, #0]
   d9f4c:	2800      	cmp	r0, #0
   d9f4e:	db01      	blt.n	d9f54 <_ZN9TCPClient4stopEv+0x10>
        sock_close(d_->sock);
   d9f50:	f7fc f948 	bl	d61e4 <sock_close>
   d9f54:	6963      	ldr	r3, [r4, #20]
    }
    d_->sock = -1;
   d9f56:	f04f 32ff 	mov.w	r2, #4294967295
   d9f5a:	601a      	str	r2, [r3, #0]
        return address;
    }

    virtual size_t printTo(Print& p) const;

    void clear() { memset(&address, 0, sizeof (address)); }
   d9f5c:	6960      	ldr	r0, [r4, #20]
   d9f5e:	2211      	movs	r2, #17
   d9f60:	2100      	movs	r1, #0
   d9f62:	308c      	adds	r0, #140	; 0x8c
   d9f64:	f000 fd13 	bl	da98e <memset>
    d_->remoteIP.clear();
    flush_buffer();
   d9f68:	4620      	mov	r0, r4
}
   d9f6a:	e8bd 4010 	ldmia.w	sp!, {r4, lr}
    if (isOpen(d_->sock)) {
        sock_close(d_->sock);
    }
    d_->sock = -1;
    d_->remoteIP.clear();
    flush_buffer();
   d9f6e:	f7ff bf67 	b.w	d9e40 <_ZN9TCPClient12flush_bufferEv>
	...

000d9f74 <_ZN9TCPClient9availableEv>:
int TCPClient::bufferCount() {
    return d_->total - d_->offset;
}

int TCPClient::available()
{
   d9f74:	b530      	push	{r4, r5, lr}
   d9f76:	6942      	ldr	r2, [r0, #20]
    int avail = 0;

    // At EOB => Flush it
    if (d_->total && (d_->offset == d_->total)) {
   d9f78:	f8b2 3086 	ldrh.w	r3, [r2, #134]	; 0x86
int TCPClient::bufferCount() {
    return d_->total - d_->offset;
}

int TCPClient::available()
{
   d9f7c:	b08b      	sub	sp, #44	; 0x2c
   d9f7e:	4604      	mov	r4, r0
    int avail = 0;

    // At EOB => Flush it
    if (d_->total && (d_->offset == d_->total)) {
   d9f80:	b11b      	cbz	r3, d9f8a <_ZN9TCPClient9availableEv+0x16>
   d9f82:	f8b2 2084 	ldrh.w	r2, [r2, #132]	; 0x84
   d9f86:	429a      	cmp	r2, r3
   d9f88:	d040      	beq.n	da00c <_ZN9TCPClient9availableEv+0x98>
   d9f8a:	6963      	ldr	r3, [r4, #20]
        flush_buffer();
    }

    if (isOpen(d_->sock)) {
   d9f8c:	6818      	ldr	r0, [r3, #0]
   d9f8e:	2800      	cmp	r0, #0
   d9f90:	db3f      	blt.n	da012 <_ZN9TCPClient9availableEv+0x9e>
        // Have room
        if (d_->total < arraySize(d_->buffer)) {
   d9f92:	f8b3 5086 	ldrh.w	r5, [r3, #134]	; 0x86
   d9f96:	2d7f      	cmp	r5, #127	; 0x7f
   d9f98:	d83b      	bhi.n	da012 <_ZN9TCPClient9availableEv+0x9e>
            int ret = sock_recv(d_->sock, d_->buffer + d_->total, arraySize(d_->buffer) - d_->total, MSG_DONTWAIT);
   d9f9a:	1d19      	adds	r1, r3, #4
   d9f9c:	f1c5 0280 	rsb	r2, r5, #128	; 0x80
   d9fa0:	2308      	movs	r3, #8
   d9fa2:	4429      	add	r1, r5
   d9fa4:	f7fc f92e 	bl	d6204 <sock_recv>
            if (ret > 0) {
   d9fa8:	2800      	cmp	r0, #0
   d9faa:	dd0c      	ble.n	d9fc6 <_ZN9TCPClient9availableEv+0x52>
   d9fac:	6963      	ldr	r3, [r4, #20]
                if (d_->total == 0) {
   d9fae:	f8b3 2086 	ldrh.w	r2, [r3, #134]	; 0x86
   d9fb2:	b90a      	cbnz	r2, d9fb8 <_ZN9TCPClient9availableEv+0x44>
                    d_->offset = 0;
   d9fb4:	f8a3 2084 	strh.w	r2, [r3, #132]	; 0x84
   d9fb8:	6962      	ldr	r2, [r4, #20]
                }
                d_->total += ret;
   d9fba:	f8b2 3086 	ldrh.w	r3, [r2, #134]	; 0x86
   d9fbe:	4418      	add	r0, r3
   d9fc0:	f8a2 0086 	strh.w	r0, [r2, #134]	; 0x86
   d9fc4:	e025      	b.n	da012 <_ZN9TCPClient9availableEv+0x9e>
            } else {
                if (errno != EAGAIN && errno != EWOULDBLOCK) {
   d9fc6:	f7fc fa71 	bl	d64ac <__errno>
   d9fca:	6803      	ldr	r3, [r0, #0]
   d9fcc:	2b0b      	cmp	r3, #11
   d9fce:	d020      	beq.n	da012 <_ZN9TCPClient9availableEv+0x9e>
   d9fd0:	f7fc fa6c 	bl	d64ac <__errno>
   d9fd4:	6803      	ldr	r3, [r0, #0]
   d9fd6:	2b0b      	cmp	r3, #11
   d9fd8:	d01b      	beq.n	da012 <_ZN9TCPClient9availableEv+0x9e>
                    LOG(ERROR, "recv error = %d", errno);
   d9fda:	2320      	movs	r3, #32
   d9fdc:	2500      	movs	r5, #0
   d9fde:	9302      	str	r3, [sp, #8]
   d9fe0:	9503      	str	r5, [sp, #12]
   d9fe2:	f7fc fa63 	bl	d64ac <__errno>
   d9fe6:	6803      	ldr	r3, [r0, #0]
   d9fe8:	9301      	str	r3, [sp, #4]
   d9fea:	4b0e      	ldr	r3, [pc, #56]	; (da024 <_ZN9TCPClient9availableEv+0xb0>)
   d9fec:	9300      	str	r3, [sp, #0]
   d9fee:	aa02      	add	r2, sp, #8
   d9ff0:	462b      	mov	r3, r5
   d9ff2:	490d      	ldr	r1, [pc, #52]	; (da028 <_ZN9TCPClient9availableEv+0xb4>)
   d9ff4:	2032      	movs	r0, #50	; 0x32
   d9ff6:	f7fc f96d 	bl	d62d4 <log_message>
                    sock_close(d_->sock);
   d9ffa:	6963      	ldr	r3, [r4, #20]
   d9ffc:	6818      	ldr	r0, [r3, #0]
   d9ffe:	f7fc f8f1 	bl	d61e4 <sock_close>
   da002:	6963      	ldr	r3, [r4, #20]
                    d_->sock = -1;
   da004:	f04f 32ff 	mov.w	r2, #4294967295
   da008:	601a      	str	r2, [r3, #0]
   da00a:	e002      	b.n	da012 <_ZN9TCPClient9availableEv+0x9e>
{
    int avail = 0;

    // At EOB => Flush it
    if (d_->total && (d_->offset == d_->total)) {
        flush_buffer();
   da00c:	f7ff ff18 	bl	d9e40 <_ZN9TCPClient12flush_bufferEv>
   da010:	e7bb      	b.n	d9f8a <_ZN9TCPClient9availableEv+0x16>
   da012:	6962      	ldr	r2, [r4, #20]
                }
            }
        } // Have Space
    } // isOpen(d_->sock)
    avail = bufferCount();
    return avail;
   da014:	f8b2 3086 	ldrh.w	r3, [r2, #134]	; 0x86
   da018:	f8b2 0084 	ldrh.w	r0, [r2, #132]	; 0x84
   da01c:	1a18      	subs	r0, r3, r0
}
   da01e:	b00b      	add	sp, #44	; 0x2c
   da020:	bd30      	pop	{r4, r5, pc}
   da022:	bf00      	nop
   da024:	000dbec7 	.word	0x000dbec7
   da028:	000dbec0 	.word	0x000dbec0

000da02c <_ZN9TCPClient4DataC1Ei>:

IPAddress TCPClient::remoteIP() {
    return d_->remoteIP;
}

TCPClient::Data::Data(sock_handle_t sock)
   da02c:	b510      	push	{r4, lr}
        : sock(sock),
          offset(0),
          total(0) {
   da02e:	2300      	movs	r3, #0

IPAddress TCPClient::remoteIP() {
    return d_->remoteIP;
}

TCPClient::Data::Data(sock_handle_t sock)
   da030:	4604      	mov	r4, r0
        : sock(sock),
          offset(0),
          total(0) {
   da032:	6001      	str	r1, [r0, #0]
   da034:	f8a0 3084 	strh.w	r3, [r0, #132]	; 0x84
   da038:	f8a0 3086 	strh.w	r3, [r0, #134]	; 0x86
   da03c:	3088      	adds	r0, #136	; 0x88
   da03e:	f7ff fb4d 	bl	d96dc <_ZN9IPAddressC1Ev>
}
   da042:	4620      	mov	r0, r4
   da044:	bd10      	pop	{r4, pc}
	...

000da048 <_ZN9TCPClientC1Ei>:
   da048:	f44f 727a 	mov.w	r2, #1000	; 0x3e8

TCPClient::TCPClient()
        : TCPClient(-1) {
}

TCPClient::TCPClient(sock_handle_t sock)
   da04c:	b570      	push	{r4, r5, r6, lr}
    size_t printf_impl(bool newline, const char* format, ...);

  public:
    Print() : write_error(0) {}
   da04e:	2300      	movs	r3, #0
   da050:	6082      	str	r2, [r0, #8]
        : d_(std::make_shared<Data>(sock)) {
   da052:	4a14      	ldr	r2, [pc, #80]	; (da0a4 <_ZN9TCPClientC1Ei+0x5c>)
   da054:	6043      	str	r3, [r0, #4]
   da056:	6002      	str	r2, [r0, #0]
        };

      template<typename _Alloc, typename... _Args>
	__shared_ptr(_Sp_make_shared_tag __tag, const _Alloc& __a,
		     _Args&&... __args)
	: _M_ptr(), _M_refcount()
   da058:	6143      	str	r3, [r0, #20]

  template<_Lock_policy _Lp>
    class __shared_count
    {
    public:
      constexpr __shared_count() noexcept : _M_pi(0)
   da05a:	6183      	str	r3, [r0, #24]

TCPClient::TCPClient()
        : TCPClient(-1) {
}

TCPClient::TCPClient(sock_handle_t sock)
   da05c:	4604      	mov	r4, r0
      allocate(size_type __n, const void* = 0)
      { 
	if (__n > this->max_size())
	  std::__throw_bad_alloc();

	return static_cast<_Tp*>(::operator new(__n * sizeof(_Tp)));
   da05e:	20a0      	movs	r0, #160	; 0xa0
   da060:	460e      	mov	r6, r1
   da062:	f7fa f818 	bl	d4096 <_Znwj>

#if __cplusplus >= 201103L
      template<typename _Up, typename... _Args>
        void
        construct(_Up* __p, _Args&&... __args)
	{ ::new((void *)__p) _Up(std::forward<_Args>(__args)...); }
   da066:	4605      	mov	r5, r0
   da068:	b110      	cbz	r0, da070 <_ZN9TCPClientC1Ei+0x28>
   da06a:	4631      	mov	r1, r6
   da06c:	f7ff ffde 	bl	da02c <_ZN9TCPClient4DataC1Ei>
      allocate(size_type __n, const void* = 0)
      { 
	if (__n > this->max_size())
	  std::__throw_bad_alloc();

	return static_cast<_Tp*>(::operator new(__n * sizeof(_Tp)));
   da070:	2014      	movs	r0, #20
   da072:	f7fa f810 	bl	d4096 <_Znwj>
	  __try
	    {
	      typename _Sp_cd_type::__allocator_type __a2(__a);
	      auto __guard = std::__allocate_guarded(__a2);
	      _Sp_cd_type* __mem = __guard.get();
	      ::new (__mem) _Sp_cd_type(__p, std::move(__d), std::move(__a));
   da076:	4603      	mov	r3, r0
   da078:	b128      	cbz	r0, da086 <_ZN9TCPClientC1Ei+0x3e>
    class _Sp_counted_base
    : public _Mutex_base<_Lp>
    {
    public:  
      _Sp_counted_base() noexcept
      : _M_use_count(1), _M_weak_count(1) { }
   da07a:	2201      	movs	r2, #1
   da07c:	6042      	str	r2, [r0, #4]
   da07e:	6082      	str	r2, [r0, #8]
      _Sp_counted_deleter(_Ptr __p, _Deleter __d) noexcept
      : _M_impl(__p, __d, _Alloc()) { }

      // __d(__p) must not throw.
      _Sp_counted_deleter(_Ptr __p, _Deleter __d, const _Alloc& __a) noexcept
      : _M_impl(__p, __d, __a) { }
   da080:	4a09      	ldr	r2, [pc, #36]	; (da0a8 <_ZN9TCPClientC1Ei+0x60>)
   da082:	6002      	str	r2, [r0, #0]
	typedef _Sp_ebo_helper<0, _Deleter>	_Del_base;
	typedef _Sp_ebo_helper<1, _Alloc>	_Alloc_base;

      public:
	_Impl(_Ptr __p, _Deleter __d, const _Alloc& __a) noexcept
	: _M_ptr(__p), _Del_base(__d), _Alloc_base(__a)
   da084:	6105      	str	r5, [r0, #16]

      void
      _M_swap(__shared_count& __r) noexcept
      {
	_Sp_counted_base<_Lp>* __tmp = __r._M_pi;
	__r._M_pi = _M_pi;
   da086:	69a0      	ldr	r0, [r4, #24]
	  __traits::construct(__del._M_alloc, __ptr,
			      std::forward<_Args>(__args)...);
	  __guard = nullptr;
	  __shared_count<_Lp> __count(__ptr, __del, __del._M_alloc);
	  _M_refcount._M_swap(__count);
	  _M_ptr = __ptr;
   da088:	6165      	str	r5, [r4, #20]
      void
      _M_swap(__shared_count& __r) noexcept
      {
	_Sp_counted_base<_Lp>* __tmp = __r._M_pi;
	__r._M_pi = _M_pi;
	_M_pi = __tmp;
   da08a:	61a3      	str	r3, [r4, #24]
      // Does not throw if __r._M_get_use_count() == 0, caller must check.
      explicit __shared_count(const __weak_count<_Lp>& __r, std::nothrow_t);

      ~__shared_count() noexcept
      {
	if (_M_pi != nullptr)
   da08c:	b128      	cbz	r0, da09a <_ZN9TCPClientC1Ei+0x52>

  template<>
    inline void
    _Sp_counted_base<_S_single>::_M_release() noexcept
    {
      if (--_M_use_count == 0)
   da08e:	6843      	ldr	r3, [r0, #4]
   da090:	3b01      	subs	r3, #1
   da092:	6043      	str	r3, [r0, #4]
   da094:	b90b      	cbnz	r3, da09a <_ZN9TCPClientC1Ei+0x52>
   da096:	f7ff fddf 	bl	d9c58 <_ZNSt16_Sp_counted_baseILN9__gnu_cxx12_Lock_policyE0EE10_M_releaseEv.part.4.constprop.31>
        : d_(std::make_shared<Data>(sock)) {
    flush_buffer();
   da09a:	4620      	mov	r0, r4
   da09c:	f7ff fed0 	bl	d9e40 <_ZN9TCPClient12flush_bufferEv>
}
   da0a0:	4620      	mov	r0, r4
   da0a2:	bd70      	pop	{r4, r5, r6, pc}
   da0a4:	000dbe7c 	.word	0x000dbe7c
   da0a8:	000dbe60 	.word	0x000dbe60

000da0ac <_ZN9TCPClientC1Ev>:

static bool inline isOpen(sock_handle_t sd) {
    return socket_handle_valid(sd);
}

TCPClient::TCPClient()
   da0ac:	b510      	push	{r4, lr}
        : TCPClient(-1) {
   da0ae:	f04f 31ff 	mov.w	r1, #4294967295

static bool inline isOpen(sock_handle_t sd) {
    return socket_handle_valid(sd);
}

TCPClient::TCPClient()
   da0b2:	4604      	mov	r4, r0
        : TCPClient(-1) {
   da0b4:	f7ff ffc8 	bl	da048 <_ZN9TCPClientC1Ei>
}
   da0b8:	4620      	mov	r0, r4
   da0ba:	bd10      	pop	{r4, pc}

000da0bc <_ZN9TCPClient4DataD1Ev>:
        : sock(sock),
          offset(0),
          total(0) {
}

TCPClient::Data::~Data() {
   da0bc:	b510      	push	{r4, lr}
   da0be:	4604      	mov	r4, r0
    if (socket_handle_valid(sock)) {
   da0c0:	6800      	ldr	r0, [r0, #0]
   da0c2:	2800      	cmp	r0, #0
   da0c4:	db01      	blt.n	da0ca <_ZN9TCPClient4DataD1Ev+0xe>
        sock_close(sock);
   da0c6:	f7fc f88d 	bl	d61e4 <sock_close>
    }
}
   da0ca:	4620      	mov	r0, r4
   da0cc:	bd10      	pop	{r4, pc}

000da0ce <_ZNSt19_Sp_counted_deleterIPN9TCPClient4DataENSt12__shared_ptrIS1_LN9__gnu_cxx12_Lock_policyE0EE8_DeleterISaIS1_EEES8_LS5_0EE10_M_disposeEv>:
      : _M_impl(__p, __d, __a) { }

      ~_Sp_counted_deleter() noexcept { }

      virtual void
      _M_dispose() noexcept
   da0ce:	b510      	push	{r4, lr}
      { _M_impl._M_del()(_M_impl._M_ptr); }
   da0d0:	6904      	ldr	r4, [r0, #16]
        construct(_Up* __p, _Args&&... __args)
	{ ::new((void *)__p) _Up(std::forward<_Args>(__args)...); }

      template<typename _Up>
        void 
        destroy(_Up* __p) { __p->~_Up(); }
   da0d2:	4620      	mov	r0, r4
   da0d4:	f7ff fff2 	bl	da0bc <_ZN9TCPClient4DataD1Ev>
      { __gd._M_ptr = nullptr; }

      /// Deallocate the owned pointer
      ~__allocated_ptr()
      {
	if (_M_ptr != nullptr)
   da0d8:	b124      	cbz	r4, da0e4 <_ZNSt19_Sp_counted_deleterIPN9TCPClient4DataENSt12__shared_ptrIS1_LN9__gnu_cxx12_Lock_policyE0EE8_DeleterISaIS1_EEES8_LS5_0EE10_M_disposeEv+0x16>
      }

      // __p is not permitted to be a null pointer.
      void
      deallocate(pointer __p, size_type)
      { ::operator delete(__p); }
   da0da:	4620      	mov	r0, r4
   da0dc:	e8bd 4010 	ldmia.w	sp!, {r4, lr}
   da0e0:	f7f9 bfdd 	b.w	d409e <_ZdlPv>
   da0e4:	bd10      	pop	{r4, pc}

000da0e6 <_ZN5spark9WiFiClass5readyEv>:
    bool connecting(void) {
        return network_connecting(*this, 0, NULL);
    }

    bool ready(void) {
        return network_ready(*this, 0, NULL);
   da0e6:	2200      	movs	r2, #0
   da0e8:	4611      	mov	r1, r2
   da0ea:	6840      	ldr	r0, [r0, #4]
   da0ec:	f7fc b956 	b.w	d639c <network_ready>

000da0f0 <_ZN5spark9WiFiClass9listeningEv>:
    uint16_t getListenTimeout(void) {
        return network_get_listen_timeout(*this, 0, NULL);
    }

    bool listening(void) {
        return network_listening(*this, 0, NULL);
   da0f0:	2200      	movs	r2, #0
   da0f2:	4611      	mov	r1, r2
   da0f4:	6840      	ldr	r0, [r0, #4]
   da0f6:	f7fc b971 	b.w	d63dc <network_listening>

000da0fa <_ZN5spark9WiFiClass16getListenTimeoutEv>:
        network_set_listen_timeout(*this, timeout, NULL);
    }
    inline void setListenTimeout(std::chrono::seconds s) { setListenTimeout(s.count()); }

    uint16_t getListenTimeout(void) {
        return network_get_listen_timeout(*this, 0, NULL);
   da0fa:	2200      	movs	r2, #0
   da0fc:	4611      	mov	r1, r2
   da0fe:	6840      	ldr	r0, [r0, #4]
   da100:	f7fc b97c 	b.w	d63fc <network_get_listen_timeout>

000da104 <_ZN5spark9WiFiClass16setListenTimeoutEt>:
    void listen(bool begin=true) {
        network_listen(*this, begin ? 0 : 1, NULL);
    }

    void setListenTimeout(uint16_t timeout) {
        network_set_listen_timeout(*this, timeout, NULL);
   da104:	2200      	movs	r2, #0
   da106:	6840      	ldr	r0, [r0, #4]
   da108:	f7fc b970 	b.w	d63ec <network_set_listen_timeout>

000da10c <_ZN5spark9WiFiClass6listenEb>:
    void off(void) {
        network_off(*this, 0, 0, NULL);
    }

    void listen(bool begin=true) {
        network_listen(*this, begin ? 0 : 1, NULL);
   da10c:	2200      	movs	r2, #0
   da10e:	f081 0101 	eor.w	r1, r1, #1
   da112:	6840      	ldr	r0, [r0, #4]
   da114:	f7fc b95a 	b.w	d63cc <network_listen>

000da118 <_ZN5spark9WiFiClass3offEv>:
    void on(void) {
        network_on(*this, 0, 0, NULL);
    }

    void off(void) {
        network_off(*this, 0, 0, NULL);
   da118:	2300      	movs	r3, #0
   da11a:	461a      	mov	r2, r3
   da11c:	4619      	mov	r1, r3
   da11e:	6840      	ldr	r0, [r0, #4]
   da120:	f7fc b94c 	b.w	d63bc <network_off>

000da124 <_ZN5spark9WiFiClass2onEv>:
    bool ready(void) {
        return network_ready(*this, 0, NULL);
    }

    void on(void) {
        network_on(*this, 0, 0, NULL);
   da124:	2300      	movs	r3, #0
   da126:	461a      	mov	r2, r3
   da128:	4619      	mov	r1, r3
   da12a:	6840      	ldr	r0, [r0, #4]
   da12c:	f7fc b93e 	b.w	d63ac <network_on>

000da130 <_ZN5spark9WiFiClass10connectingEv>:
    void disconnect(void) {
        network_disconnect(*this, NETWORK_DISCONNECT_REASON_USER, NULL);
    }

    bool connecting(void) {
        return network_connecting(*this, 0, NULL);
   da130:	2200      	movs	r2, #0
   da132:	4611      	mov	r1, r2
   da134:	6840      	ldr	r0, [r0, #4]
   da136:	f7fc b921 	b.w	d637c <network_connecting>

000da13a <_ZN5spark9WiFiClass10disconnectEv>:
    void connect(unsigned flags=0) {
        network_connect(*this, flags, 0, NULL);
    }

    void disconnect(void) {
        network_disconnect(*this, NETWORK_DISCONNECT_REASON_USER, NULL);
   da13a:	2200      	movs	r2, #0
   da13c:	2102      	movs	r1, #2
   da13e:	6840      	ldr	r0, [r0, #4]
   da140:	f7fc b924 	b.w	d638c <network_disconnect>

000da144 <_ZN5spark9WiFiClass7connectEj>:
    uint32_t ping(IPAddress remoteIP, uint8_t nTries) {
        return inet_ping(&remoteIP.raw(), *this, nTries, NULL);
    }

    void connect(unsigned flags=0) {
        network_connect(*this, flags, 0, NULL);
   da144:	2300      	movs	r3, #0
   da146:	461a      	mov	r2, r3
   da148:	6840      	ldr	r0, [r0, #4]
   da14a:	f7fc b90f 	b.w	d636c <network_connect>
	...

000da150 <_GLOBAL__sub_I__ZN10WiFiSignalC2ERK21wlan_connected_info_t>:
   da150:	4b02      	ldr	r3, [pc, #8]	; (da15c <_GLOBAL__sub_I__ZN10WiFiSignalC2ERK21wlan_connected_info_t+0xc>)
   da152:	2204      	movs	r2, #4
   da154:	605a      	str	r2, [r3, #4]
        wlan_set_ipaddress_source(source, true, NULL);
    }

public:
    WiFiClass() :
            NetworkClass(NETWORK_INTERFACE_WIFI_STA) {
   da156:	4a02      	ldr	r2, [pc, #8]	; (da160 <_GLOBAL__sub_I__ZN10WiFiSignalC2ERK21wlan_connected_info_t+0x10>)
   da158:	601a      	str	r2, [r3, #0]
   da15a:	4770      	bx	lr
   da15c:	2003e738 	.word	0x2003e738
   da160:	000dbee0 	.word	0x000dbee0

000da164 <_ZN5spark12NetworkClass7connectEj>:
        return Network;
    }
}

void NetworkClass::connect(unsigned flags) {
    network_connect(*this, flags, 0, nullptr);
   da164:	2300      	movs	r3, #0
   da166:	461a      	mov	r2, r3
   da168:	6840      	ldr	r0, [r0, #4]
   da16a:	f7fc b8ff 	b.w	d636c <network_connect>

000da16e <_ZN5spark12NetworkClass10disconnectEv>:
}

void NetworkClass::disconnect() {
    network_disconnect(*this, NETWORK_DISCONNECT_REASON_USER, nullptr);
   da16e:	2200      	movs	r2, #0
   da170:	2102      	movs	r1, #2
   da172:	6840      	ldr	r0, [r0, #4]
   da174:	f7fc b90a 	b.w	d638c <network_disconnect>

000da178 <_ZN5spark12NetworkClass10connectingEv>:
}

bool NetworkClass::connecting() {
    return network_connecting(*this, 0, nullptr);
   da178:	2200      	movs	r2, #0
   da17a:	4611      	mov	r1, r2
   da17c:	6840      	ldr	r0, [r0, #4]
   da17e:	f7fc b8fd 	b.w	d637c <network_connecting>

000da182 <_ZN5spark12NetworkClass5readyEv>:
}

bool NetworkClass::ready() {
    return network_ready(*this, 0, nullptr);
   da182:	2200      	movs	r2, #0
   da184:	4611      	mov	r1, r2
   da186:	6840      	ldr	r0, [r0, #4]
   da188:	f7fc b908 	b.w	d639c <network_ready>

000da18c <_ZN5spark12NetworkClass2onEv>:
}

void NetworkClass::on() {
    network_on(*this, 0, 0, nullptr);
   da18c:	2300      	movs	r3, #0
   da18e:	461a      	mov	r2, r3
   da190:	4619      	mov	r1, r3
   da192:	6840      	ldr	r0, [r0, #4]
   da194:	f7fc b90a 	b.w	d63ac <network_on>

000da198 <_ZN5spark12NetworkClass3offEv>:
}

void NetworkClass::off() {
    network_off(*this, 0, 0, nullptr);
   da198:	2300      	movs	r3, #0
   da19a:	461a      	mov	r2, r3
   da19c:	4619      	mov	r1, r3
   da19e:	6840      	ldr	r0, [r0, #4]
   da1a0:	f7fc b90c 	b.w	d63bc <network_off>

000da1a4 <_ZN5spark12NetworkClass6listenEb>:
}

void NetworkClass::listen(bool begin) {
    network_listen(*this, begin ? 0 : 1, nullptr);
   da1a4:	2200      	movs	r2, #0
   da1a6:	f081 0101 	eor.w	r1, r1, #1
   da1aa:	6840      	ldr	r0, [r0, #4]
   da1ac:	f7fc b90e 	b.w	d63cc <network_listen>

000da1b0 <_ZN5spark12NetworkClass16setListenTimeoutEt>:
}

void NetworkClass::setListenTimeout(uint16_t timeout) {
    network_set_listen_timeout(*this, timeout, nullptr);
   da1b0:	2200      	movs	r2, #0
   da1b2:	6840      	ldr	r0, [r0, #4]
   da1b4:	f7fc b91a 	b.w	d63ec <network_set_listen_timeout>

000da1b8 <_ZN5spark12NetworkClass16getListenTimeoutEv>:
}

uint16_t NetworkClass::getListenTimeout() {
    return network_get_listen_timeout(*this, 0, nullptr);
   da1b8:	2200      	movs	r2, #0
   da1ba:	4611      	mov	r1, r2
   da1bc:	6840      	ldr	r0, [r0, #4]
   da1be:	f7fc b91d 	b.w	d63fc <network_get_listen_timeout>

000da1c2 <_ZN5spark12NetworkClass9listeningEv>:
}

bool NetworkClass::listening() {
    return network_listening(*this, 0, nullptr);
   da1c2:	2200      	movs	r2, #0
   da1c4:	4611      	mov	r1, r2
   da1c6:	6840      	ldr	r0, [r0, #4]
   da1c8:	f7fc b908 	b.w	d63dc <network_listening>

000da1cc <_ZN5spark12NetworkClass7resolveEPKc>:
}

IPAddress NetworkClass::resolve(const char* name) {
   da1cc:	e92d 43f0 	stmdb	sp!, {r4, r5, r6, r7, r8, r9, lr}
    IPAddress addr;
#if HAL_USE_INET_HAL_POSIX
    struct addrinfo *ai = nullptr;
   da1d0:	2400      	movs	r4, #0

bool NetworkClass::listening() {
    return network_listening(*this, 0, nullptr);
}

IPAddress NetworkClass::resolve(const char* name) {
   da1d2:	b095      	sub	sp, #84	; 0x54
   da1d4:	4616      	mov	r6, r2
   da1d6:	460d      	mov	r5, r1
   da1d8:	4607      	mov	r7, r0
    IPAddress addr;
   da1da:	f7ff fa7f 	bl	d96dc <_ZN9IPAddressC1Ev>
#if HAL_USE_INET_HAL_POSIX
    struct addrinfo *ai = nullptr;
    struct addrinfo hints = {};
   da1de:	4621      	mov	r1, r4
   da1e0:	2220      	movs	r2, #32
   da1e2:	a80c      	add	r0, sp, #48	; 0x30
}

IPAddress NetworkClass::resolve(const char* name) {
    IPAddress addr;
#if HAL_USE_INET_HAL_POSIX
    struct addrinfo *ai = nullptr;
   da1e4:	9400      	str	r4, [sp, #0]
    struct addrinfo hints = {};
   da1e6:	f000 fbd2 	bl	da98e <memset>
    hints.ai_flags = AI_ADDRCONFIG;
   da1ea:	2340      	movs	r3, #64	; 0x40
   da1ec:	930c      	str	r3, [sp, #48]	; 0x30
    hints.ai_family = AF_UNSPEC;
    const int r = getaddrinfo(name, nullptr, &hints, &ai);
   da1ee:	4621      	mov	r1, r4
   da1f0:	466b      	mov	r3, sp
   da1f2:	aa0c      	add	r2, sp, #48	; 0x30
   da1f4:	4630      	mov	r0, r6
   da1f6:	f7fb fec5 	bl	d5f84 <netdb_getaddrinfo>
    if (!r) {
   da1fa:	4604      	mov	r4, r0
   da1fc:	2800      	cmp	r0, #0
   da1fe:	d144      	bne.n	da28a <_ZN5spark12NetworkClass7resolveEPKc+0xbe>
        bool ok = false;
        // This is not really needed if AI_ADDRCONFIG is properly supported
        bool ipv4 = network_ready(*this, NETWORK_READY_TYPE_IPV4, nullptr);
   da200:	4602      	mov	r2, r0
   da202:	2101      	movs	r1, #1
   da204:	6868      	ldr	r0, [r5, #4]
   da206:	f7fc f8c9 	bl	d639c <network_ready>
        bool ipv6 = network_ready(*this, NETWORK_READY_TYPE_IPV6, nullptr);
   da20a:	2102      	movs	r1, #2
    hints.ai_family = AF_UNSPEC;
    const int r = getaddrinfo(name, nullptr, &hints, &ai);
    if (!r) {
        bool ok = false;
        // This is not really needed if AI_ADDRCONFIG is properly supported
        bool ipv4 = network_ready(*this, NETWORK_READY_TYPE_IPV4, nullptr);
   da20c:	4680      	mov	r8, r0
        bool ipv6 = network_ready(*this, NETWORK_READY_TYPE_IPV6, nullptr);
   da20e:	4622      	mov	r2, r4
   da210:	6868      	ldr	r0, [r5, #4]
   da212:	f7fc f8c3 	bl	d639c <network_ready>
        for (auto cur = ai; cur != nullptr && !ok; cur = cur->ai_next) {
   da216:	9e00      	ldr	r6, [sp, #0]
    const int r = getaddrinfo(name, nullptr, &hints, &ai);
    if (!r) {
        bool ok = false;
        // This is not really needed if AI_ADDRCONFIG is properly supported
        bool ipv4 = network_ready(*this, NETWORK_READY_TYPE_IPV4, nullptr);
        bool ipv6 = network_ready(*this, NETWORK_READY_TYPE_IPV6, nullptr);
   da218:	4681      	mov	r9, r0
    struct addrinfo hints = {};
    hints.ai_flags = AI_ADDRCONFIG;
    hints.ai_family = AF_UNSPEC;
    const int r = getaddrinfo(name, nullptr, &hints, &ai);
    if (!r) {
        bool ok = false;
   da21a:	4621      	mov	r1, r4
        // This is not really needed if AI_ADDRCONFIG is properly supported
        bool ipv4 = network_ready(*this, NETWORK_READY_TYPE_IPV4, nullptr);
        bool ipv6 = network_ready(*this, NETWORK_READY_TYPE_IPV6, nullptr);
        for (auto cur = ai; cur != nullptr && !ok; cur = cur->ai_next) {
   da21c:	2e00      	cmp	r6, #0
   da21e:	d034      	beq.n	da28a <_ZN5spark12NetworkClass7resolveEPKc+0xbe>
   da220:	2900      	cmp	r1, #0
   da222:	d132      	bne.n	da28a <_ZN5spark12NetworkClass7resolveEPKc+0xbe>
            // NOTE: using only the first entry that matches the current state of IPv4/IPv6 connectivity
            switch (cur->ai_family) {
   da224:	6873      	ldr	r3, [r6, #4]
   da226:	2b02      	cmp	r3, #2
   da228:	d002      	beq.n	da230 <_ZN5spark12NetworkClass7resolveEPKc+0x64>
   da22a:	2b0a      	cmp	r3, #10
   da22c:	d009      	beq.n	da242 <_ZN5spark12NetworkClass7resolveEPKc+0x76>
   da22e:	e02a      	b.n	da286 <_ZN5spark12NetworkClass7resolveEPKc+0xba>
                case AF_INET: {
                    if (!ipv4) {
   da230:	f1b8 0f00 	cmp.w	r8, #0
   da234:	d027      	beq.n	da286 <_ZN5spark12NetworkClass7resolveEPKc+0xba>
                        continue;
                    }
                    // NOTE: HAL_IPAddress is little-endian
                    auto in = (struct sockaddr_in*)cur->ai_addr;
                    addr = (const uint8_t*)(&in->sin_addr.s_addr);
   da236:	6971      	ldr	r1, [r6, #20]
   da238:	4638      	mov	r0, r7
   da23a:	3104      	adds	r1, #4
   da23c:	f7ff fa91 	bl	d9762 <_ZN9IPAddressaSEPKh>
   da240:	e020      	b.n	da284 <_ZN5spark12NetworkClass7resolveEPKc+0xb8>
                    ok = true;
                    break;
                }
                case AF_INET6: {
                    if (!ipv6) {
   da242:	f1b9 0f00 	cmp.w	r9, #0
   da246:	d01e      	beq.n	da286 <_ZN5spark12NetworkClass7resolveEPKc+0xba>
                        continue;
                    }
                    auto in6 = (struct sockaddr_in6*)cur->ai_addr;
   da248:	6974      	ldr	r4, [r6, #20]
                    HAL_IPAddress a = {};
   da24a:	2211      	movs	r2, #17
   da24c:	a801      	add	r0, sp, #4
   da24e:	f000 fb9e 	bl	da98e <memset>
                    a.v = 6;
   da252:	2306      	movs	r3, #6
   da254:	f88d 3014 	strb.w	r3, [sp, #20]
                    memcpy(a.ipv6, in6->sin6_addr.s6_addr, sizeof(a.ipv6));
   da258:	ad01      	add	r5, sp, #4
   da25a:	f104 0308 	add.w	r3, r4, #8
   da25e:	3418      	adds	r4, #24
   da260:	6818      	ldr	r0, [r3, #0]
   da262:	6859      	ldr	r1, [r3, #4]
   da264:	462a      	mov	r2, r5
   da266:	c203      	stmia	r2!, {r0, r1}
   da268:	3308      	adds	r3, #8
   da26a:	42a3      	cmp	r3, r4
   da26c:	4615      	mov	r5, r2
   da26e:	d1f7      	bne.n	da260 <_ZN5spark12NetworkClass7resolveEPKc+0x94>
                    addr = IPAddress(a);
   da270:	a901      	add	r1, sp, #4
   da272:	a806      	add	r0, sp, #24

/**
 * The IP address stored in host order.
 *
 */
class IPAddress : public Printable {
   da274:	ad07      	add	r5, sp, #28
   da276:	f7ff fa3f 	bl	d96f8 <_ZN9IPAddressC1ERK16_HAL_IPAddress_t>
   da27a:	cd0f      	ldmia	r5!, {r0, r1, r2, r3}
   da27c:	1d3c      	adds	r4, r7, #4
   da27e:	c40f      	stmia	r4!, {r0, r1, r2, r3}
   da280:	682b      	ldr	r3, [r5, #0]
   da282:	7023      	strb	r3, [r4, #0]
                    ok = true;
   da284:	2101      	movs	r1, #1
    if (!r) {
        bool ok = false;
        // This is not really needed if AI_ADDRCONFIG is properly supported
        bool ipv4 = network_ready(*this, NETWORK_READY_TYPE_IPV4, nullptr);
        bool ipv6 = network_ready(*this, NETWORK_READY_TYPE_IPV6, nullptr);
        for (auto cur = ai; cur != nullptr && !ok; cur = cur->ai_next) {
   da286:	69f6      	ldr	r6, [r6, #28]
   da288:	e7c8      	b.n	da21c <_ZN5spark12NetworkClass7resolveEPKc+0x50>
                    break;
                }
            }
        }
    }
    freeaddrinfo(ai);
   da28a:	9800      	ldr	r0, [sp, #0]
   da28c:	f7fb fe72 	bl	d5f74 <netdb_freeaddrinfo>
    return Cellular.resolve(name);
#endif // Wiring_Cellular

#endif // HAL_USE_INET_HAL_POSIX
    return addr;
}
   da290:	4638      	mov	r0, r7
   da292:	b015      	add	sp, #84	; 0x54
   da294:	e8bd 83f0 	ldmia.w	sp!, {r4, r5, r6, r7, r8, r9, pc}

000da298 <_GLOBAL__sub_I__ZN5spark7NetworkE>:
   da298:	4b02      	ldr	r3, [pc, #8]	; (da2a4 <_GLOBAL__sub_I__ZN5spark7NetworkE+0xc>)
   da29a:	4a03      	ldr	r2, [pc, #12]	; (da2a8 <_GLOBAL__sub_I__ZN5spark7NetworkE+0x10>)
   da29c:	601a      	str	r2, [r3, #0]
   da29e:	2200      	movs	r2, #0
   da2a0:	605a      	str	r2, [r3, #4]
   da2a2:	4770      	bx	lr
   da2a4:	2003e740 	.word	0x2003e740
   da2a8:	000dbf14 	.word	0x000dbf14

000da2ac <_ZN12_GLOBAL__N_19skipTokenEPK9jsmntok_t>:
#include <cstdarg>

namespace {

// Skips token and all its children tokens if any
const jsmntok_t* skipToken(const jsmntok_t *t) {
   da2ac:	f100 0210 	add.w	r2, r0, #16
    size_t n = 1;
   da2b0:	2301      	movs	r3, #1
    do {
        if (t->type == JSMN_OBJECT) {
   da2b2:	f812 1c10 	ldrb.w	r1, [r2, #-16]
   da2b6:	2901      	cmp	r1, #1
   da2b8:	4610      	mov	r0, r2
   da2ba:	d104      	bne.n	da2c6 <_ZN12_GLOBAL__N_19skipTokenEPK9jsmntok_t+0x1a>
            n += t->size * 2; // Number of name and value tokens
   da2bc:	f852 1c04 	ldr.w	r1, [r2, #-4]
   da2c0:	eb03 0341 	add.w	r3, r3, r1, lsl #1
   da2c4:	e004      	b.n	da2d0 <_ZN12_GLOBAL__N_19skipTokenEPK9jsmntok_t+0x24>
        } else if (t->type == JSMN_ARRAY) {
   da2c6:	2902      	cmp	r1, #2
            n += t->size; // Number of value tokens
   da2c8:	bf04      	itt	eq
   da2ca:	f852 1c04 	ldreq.w	r1, [r2, #-4]
   da2ce:	185b      	addeq	r3, r3, r1
namespace {

// Skips token and all its children tokens if any
const jsmntok_t* skipToken(const jsmntok_t *t) {
    size_t n = 1;
    do {
   da2d0:	3b01      	subs	r3, #1
   da2d2:	f102 0210 	add.w	r2, r2, #16
   da2d6:	d1ec      	bne.n	da2b2 <_ZN12_GLOBAL__N_19skipTokenEPK9jsmntok_t+0x6>
        }
        ++t;
        --n;
    } while (n);
    return t;
}
   da2d8:	4770      	bx	lr

000da2da <_ZN5spark10JSONWriter6printfEPKcz>:
    write("null", 4);
    state_ = NEXT;
    return *this;
}

void spark::JSONWriter::printf(const char *fmt, ...) {
   da2da:	b40e      	push	{r1, r2, r3}
   da2dc:	e92d 41f0 	stmdb	sp!, {r4, r5, r6, r7, r8, lr}
   da2e0:	b087      	sub	sp, #28
   da2e2:	af00      	add	r7, sp, #0
   da2e4:	f107 0434 	add.w	r4, r7, #52	; 0x34
   da2e8:	4605      	mov	r5, r0
   da2ea:	f854 6b04 	ldr.w	r6, [r4], #4
    char buf[16];
    va_list args;
    va_start(args, fmt);
   da2ee:	607c      	str	r4, [r7, #4]
    int n = vsnprintf(buf, sizeof(buf), fmt, args);
   da2f0:	4623      	mov	r3, r4
   da2f2:	4632      	mov	r2, r6
   da2f4:	2110      	movs	r1, #16
   da2f6:	f107 0008 	add.w	r0, r7, #8
   da2fa:	f7fc f8bf 	bl	d647c <vsnprintf>
    va_end(args);
    if ((size_t)n >= sizeof(buf)) {
   da2fe:	280f      	cmp	r0, #15
   da300:	d916      	bls.n	da330 <_ZN5spark10JSONWriter6printfEPKcz+0x56>
        char buf[n + 1]; // Use larger buffer
   da302:	f100 0308 	add.w	r3, r0, #8
   da306:	f023 0307 	bic.w	r3, r3, #7
        va_start(args, fmt);
        n = vsnprintf(buf, sizeof(buf), fmt, args);
        va_end(args);
        if (n > 0) {
            write(buf, n);
        }
   da30a:	46e8      	mov	r8, sp
    va_list args;
    va_start(args, fmt);
    int n = vsnprintf(buf, sizeof(buf), fmt, args);
    va_end(args);
    if ((size_t)n >= sizeof(buf)) {
        char buf[n + 1]; // Use larger buffer
   da30c:	ebad 0d03 	sub.w	sp, sp, r3
        va_start(args, fmt);
        n = vsnprintf(buf, sizeof(buf), fmt, args);
   da310:	4632      	mov	r2, r6
   da312:	1c41      	adds	r1, r0, #1
   da314:	4623      	mov	r3, r4
   da316:	4668      	mov	r0, sp
    va_start(args, fmt);
    int n = vsnprintf(buf, sizeof(buf), fmt, args);
    va_end(args);
    if ((size_t)n >= sizeof(buf)) {
        char buf[n + 1]; // Use larger buffer
        va_start(args, fmt);
   da318:	607c      	str	r4, [r7, #4]
        n = vsnprintf(buf, sizeof(buf), fmt, args);
   da31a:	f7fc f8af 	bl	d647c <vsnprintf>
        va_end(args);
        if (n > 0) {
   da31e:	1e02      	subs	r2, r0, #0
   da320:	dd04      	ble.n	da32c <_ZN5spark10JSONWriter6printfEPKcz+0x52>
            write(buf, n);
   da322:	682b      	ldr	r3, [r5, #0]
   da324:	4669      	mov	r1, sp
   da326:	689b      	ldr	r3, [r3, #8]
   da328:	4628      	mov	r0, r5
   da32a:	4798      	blx	r3
   da32c:	46c5      	mov	sp, r8
   da32e:	e007      	b.n	da340 <_ZN5spark10JSONWriter6printfEPKcz+0x66>
        }
    } else if (n > 0) {
   da330:	b130      	cbz	r0, da340 <_ZN5spark10JSONWriter6printfEPKcz+0x66>
        write(buf, n);
   da332:	682b      	ldr	r3, [r5, #0]
   da334:	4602      	mov	r2, r0
   da336:	689b      	ldr	r3, [r3, #8]
   da338:	f107 0108 	add.w	r1, r7, #8
   da33c:	4628      	mov	r0, r5
   da33e:	4798      	blx	r3
    }
}
   da340:	371c      	adds	r7, #28
   da342:	46bd      	mov	sp, r7
   da344:	e8bd 41f0 	ldmia.w	sp!, {r4, r5, r6, r7, r8, lr}
   da348:	b003      	add	sp, #12
   da34a:	4770      	bx	lr

000da34c <_ZN5spark10JSONWriter5writeEc>:

inline spark::JSONWriter& spark::JSONWriter::value(const String &val) {
    return value(val.c_str(), val.length());
}

inline void spark::JSONWriter::write(char c) {
   da34c:	b513      	push	{r0, r1, r4, lr}
   da34e:	ab02      	add	r3, sp, #8
    write(&c, 1);
   da350:	6802      	ldr	r2, [r0, #0]

inline spark::JSONWriter& spark::JSONWriter::value(const String &val) {
    return value(val.c_str(), val.length());
}

inline void spark::JSONWriter::write(char c) {
   da352:	f803 1d01 	strb.w	r1, [r3, #-1]!
    write(&c, 1);
   da356:	6894      	ldr	r4, [r2, #8]
   da358:	4619      	mov	r1, r3
   da35a:	2201      	movs	r2, #1
   da35c:	47a0      	blx	r4
}
   da35e:	b002      	add	sp, #8
   da360:	bd10      	pop	{r4, pc}

000da362 <_ZNK5spark9JSONValue4typeEv>:
        return 0.0;
    }
}

spark::JSONType spark::JSONValue::type() const {
    if (!t_) {
   da362:	6883      	ldr	r3, [r0, #8]
   da364:	b1fb      	cbz	r3, da3a6 <_ZNK5spark9JSONValue4typeEv+0x44>
        return JSON_TYPE_INVALID;
    }
    switch (t_->type) {
   da366:	781a      	ldrb	r2, [r3, #0]
   da368:	2a03      	cmp	r2, #3
   da36a:	d81a      	bhi.n	da3a2 <_ZNK5spark9JSONValue4typeEv+0x40>
   da36c:	e8df f002 	tbb	[pc, r2]
   da370:	1d021704 	.word	0x1d021704
        return JSON_TYPE_INVALID;
    }
    case JSMN_STRING:
        return JSON_TYPE_STRING;
    case JSMN_ARRAY:
        return JSON_TYPE_ARRAY;
   da374:	2005      	movs	r0, #5
   da376:	4770      	bx	lr
    if (!t_) {
        return JSON_TYPE_INVALID;
    }
    switch (t_->type) {
    case JSMN_PRIMITIVE: {
        const char c = d_->json[t_->start];
   da378:	6802      	ldr	r2, [r0, #0]
   da37a:	685b      	ldr	r3, [r3, #4]
   da37c:	6852      	ldr	r2, [r2, #4]
   da37e:	5cd0      	ldrb	r0, [r2, r3]
        if (c == '-' || (c >= '0' && c <= '9')) {
   da380:	282d      	cmp	r0, #45	; 0x2d
   da382:	d014      	beq.n	da3ae <_ZNK5spark9JSONValue4typeEv+0x4c>
   da384:	f1a0 0330 	sub.w	r3, r0, #48	; 0x30
   da388:	2b09      	cmp	r3, #9
   da38a:	d910      	bls.n	da3ae <_ZNK5spark9JSONValue4typeEv+0x4c>
            return JSON_TYPE_NUMBER;
        } else if (c == 't' || c == 'f') { // Literal names are always in lower case
   da38c:	2874      	cmp	r0, #116	; 0x74
   da38e:	d010      	beq.n	da3b2 <_ZNK5spark9JSONValue4typeEv+0x50>
   da390:	2866      	cmp	r0, #102	; 0x66
   da392:	d00e      	beq.n	da3b2 <_ZNK5spark9JSONValue4typeEv+0x50>
    }
}

spark::JSONType spark::JSONValue::type() const {
    if (!t_) {
        return JSON_TYPE_INVALID;
   da394:	f1a0 036e 	sub.w	r3, r0, #110	; 0x6e
   da398:	4258      	negs	r0, r3
   da39a:	4158      	adcs	r0, r3
   da39c:	4770      	bx	lr
    case JSMN_STRING:
        return JSON_TYPE_STRING;
    case JSMN_ARRAY:
        return JSON_TYPE_ARRAY;
    case JSMN_OBJECT:
        return JSON_TYPE_OBJECT;
   da39e:	2006      	movs	r0, #6
   da3a0:	4770      	bx	lr
    default:
        return JSON_TYPE_INVALID;
   da3a2:	2000      	movs	r0, #0
   da3a4:	4770      	bx	lr
    }
}

spark::JSONType spark::JSONValue::type() const {
    if (!t_) {
        return JSON_TYPE_INVALID;
   da3a6:	4618      	mov	r0, r3
   da3a8:	4770      	bx	lr
            return JSON_TYPE_NULL;
        }
        return JSON_TYPE_INVALID;
    }
    case JSMN_STRING:
        return JSON_TYPE_STRING;
   da3aa:	2004      	movs	r0, #4
   da3ac:	4770      	bx	lr
    }
    switch (t_->type) {
    case JSMN_PRIMITIVE: {
        const char c = d_->json[t_->start];
        if (c == '-' || (c >= '0' && c <= '9')) {
            return JSON_TYPE_NUMBER;
   da3ae:	2003      	movs	r0, #3
   da3b0:	4770      	bx	lr
        } else if (c == 't' || c == 'f') { // Literal names are always in lower case
            return JSON_TYPE_BOOL;
   da3b2:	2002      	movs	r0, #2
    case JSMN_OBJECT:
        return JSON_TYPE_OBJECT;
    default:
        return JSON_TYPE_INVALID;
    }
}
   da3b4:	4770      	bx	lr

000da3b6 <_ZNK5spark9JSONValue5toIntEv>:
    default:
        return false;
    }
}

int spark::JSONValue::toInt() const {
   da3b6:	b510      	push	{r4, lr}
   da3b8:	4604      	mov	r4, r0
    switch (type()) {
   da3ba:	f7ff ffd2 	bl	da362 <_ZNK5spark9JSONValue4typeEv>
   da3be:	2802      	cmp	r0, #2
   da3c0:	d00d      	beq.n	da3de <_ZNK5spark9JSONValue5toIntEv+0x28>
   da3c2:	d316      	bcc.n	da3f2 <_ZNK5spark9JSONValue5toIntEv+0x3c>
   da3c4:	2804      	cmp	r0, #4
   da3c6:	d814      	bhi.n	da3f2 <_ZNK5spark9JSONValue5toIntEv+0x3c>
    }
    case JSON_TYPE_NUMBER:
    case JSON_TYPE_STRING: {
        // toInt() may produce incorrect results for floating point numbers, since we want to keep
        // compile-time dependency on strtod() optional
        const char* const s = d_->json + t_->start;
   da3c8:	6822      	ldr	r2, [r4, #0]
   da3ca:	68a3      	ldr	r3, [r4, #8]
        return strtol(s, nullptr, 10);
   da3cc:	6850      	ldr	r0, [r2, #4]
   da3ce:	685b      	ldr	r3, [r3, #4]
   da3d0:	220a      	movs	r2, #10
   da3d2:	2100      	movs	r1, #0
   da3d4:	4418      	add	r0, r3
    }
    default:
        return 0;
    }
}
   da3d6:	e8bd 4010 	ldmia.w	sp!, {r4, lr}
    case JSON_TYPE_NUMBER:
    case JSON_TYPE_STRING: {
        // toInt() may produce incorrect results for floating point numbers, since we want to keep
        // compile-time dependency on strtod() optional
        const char* const s = d_->json + t_->start;
        return strtol(s, nullptr, 10);
   da3da:	f000 bc11 	b.w	dac00 <strtol>
}

int spark::JSONValue::toInt() const {
    switch (type()) {
    case JSON_TYPE_BOOL: {
        const char* const s = d_->json + t_->start;
   da3de:	6822      	ldr	r2, [r4, #0]
   da3e0:	68a3      	ldr	r3, [r4, #8]
        return *s == 't';
   da3e2:	6852      	ldr	r2, [r2, #4]
   da3e4:	685b      	ldr	r3, [r3, #4]
   da3e6:	5cd0      	ldrb	r0, [r2, r3]
   da3e8:	f1a0 0374 	sub.w	r3, r0, #116	; 0x74
   da3ec:	4258      	negs	r0, r3
   da3ee:	4158      	adcs	r0, r3
   da3f0:	bd10      	pop	{r4, pc}
        // compile-time dependency on strtod() optional
        const char* const s = d_->json + t_->start;
        return strtol(s, nullptr, 10);
    }
    default:
        return 0;
   da3f2:	2000      	movs	r0, #0
    }
}
   da3f4:	bd10      	pop	{r4, pc}

000da3f6 <_ZN5spark18JSONObjectIterator4nextEv>:
        n_ = t->size; // Number of properties
        d_ = d;
    }
}

bool spark::JSONObjectIterator::next() {
   da3f6:	b510      	push	{r4, lr}
    if (!n_) {
   da3f8:	6943      	ldr	r3, [r0, #20]
        n_ = t->size; // Number of properties
        d_ = d;
    }
}

bool spark::JSONObjectIterator::next() {
   da3fa:	4604      	mov	r4, r0
    if (!n_) {
   da3fc:	b15b      	cbz	r3, da416 <_ZN5spark18JSONObjectIterator4nextEv+0x20>
        return false;
    }
    k_ = t_; // Name
   da3fe:	6880      	ldr	r0, [r0, #8]
   da400:	60e0      	str	r0, [r4, #12]
    ++t_;
    v_ = t_; // Value
    --n_;
   da402:	3b01      	subs	r3, #1
bool spark::JSONObjectIterator::next() {
    if (!n_) {
        return false;
    }
    k_ = t_; // Name
    ++t_;
   da404:	3010      	adds	r0, #16
   da406:	60a0      	str	r0, [r4, #8]
    v_ = t_; // Value
   da408:	6120      	str	r0, [r4, #16]
    --n_;
   da40a:	6163      	str	r3, [r4, #20]
    if (n_) {
   da40c:	b12b      	cbz	r3, da41a <_ZN5spark18JSONObjectIterator4nextEv+0x24>
        t_ = skipToken(t_);
   da40e:	f7ff ff4d 	bl	da2ac <_ZN12_GLOBAL__N_19skipTokenEPK9jsmntok_t>
   da412:	60a0      	str	r0, [r4, #8]
   da414:	e001      	b.n	da41a <_ZN5spark18JSONObjectIterator4nextEv+0x24>
    }
}

bool spark::JSONObjectIterator::next() {
    if (!n_) {
        return false;
   da416:	4618      	mov	r0, r3
   da418:	bd10      	pop	{r4, pc}
    v_ = t_; // Value
    --n_;
    if (n_) {
        t_ = skipToken(t_);
    }
    return true;
   da41a:	2001      	movs	r0, #1
}
   da41c:	bd10      	pop	{r4, pc}

000da41e <_ZN5spark10JSONWriter9endObjectEv>:
    write('{');
    state_ = BEGIN;
    return *this;
}

spark::JSONWriter& spark::JSONWriter::endObject() {
   da41e:	b510      	push	{r4, lr}
    write('}');
   da420:	217d      	movs	r1, #125	; 0x7d
    write('{');
    state_ = BEGIN;
    return *this;
}

spark::JSONWriter& spark::JSONWriter::endObject() {
   da422:	4604      	mov	r4, r0
    write('}');
   da424:	f7ff ff92 	bl	da34c <_ZN5spark10JSONWriter5writeEc>
    state_ = NEXT;
   da428:	2301      	movs	r3, #1
   da42a:	7123      	strb	r3, [r4, #4]
    return *this;
}
   da42c:	4620      	mov	r0, r4
   da42e:	bd10      	pop	{r4, pc}

000da430 <_ZN5spark10JSONWriter14writeSeparatorEv>:
    } else if (n > 0) {
        write(buf, n);
    }
}

void spark::JSONWriter::writeSeparator() {
   da430:	b508      	push	{r3, lr}
    switch (state_) {
   da432:	7903      	ldrb	r3, [r0, #4]
   da434:	2b01      	cmp	r3, #1
   da436:	d002      	beq.n	da43e <_ZN5spark10JSONWriter14writeSeparatorEv+0xe>
   da438:	2b02      	cmp	r3, #2
   da43a:	d002      	beq.n	da442 <_ZN5spark10JSONWriter14writeSeparatorEv+0x12>
   da43c:	bd08      	pop	{r3, pc}
    case NEXT:
        write(',');
   da43e:	212c      	movs	r1, #44	; 0x2c
   da440:	e000      	b.n	da444 <_ZN5spark10JSONWriter14writeSeparatorEv+0x14>
        break;
    case VALUE:
        write(':');
   da442:	213a      	movs	r1, #58	; 0x3a
   da444:	f7ff ff82 	bl	da34c <_ZN5spark10JSONWriter5writeEc>
   da448:	bd08      	pop	{r3, pc}

000da44a <_ZN5spark10JSONWriter11beginObjectEv>:
    write(']');
    state_ = NEXT;
    return *this;
}

spark::JSONWriter& spark::JSONWriter::beginObject() {
   da44a:	b510      	push	{r4, lr}
   da44c:	4604      	mov	r4, r0
    writeSeparator();
   da44e:	f7ff ffef 	bl	da430 <_ZN5spark10JSONWriter14writeSeparatorEv>
    write('{');
   da452:	4620      	mov	r0, r4
   da454:	217b      	movs	r1, #123	; 0x7b
   da456:	f7ff ff79 	bl	da34c <_ZN5spark10JSONWriter5writeEc>
    state_ = BEGIN;
   da45a:	2300      	movs	r3, #0
   da45c:	7123      	strb	r3, [r4, #4]
    return *this;
}
   da45e:	4620      	mov	r0, r4
   da460:	bd10      	pop	{r4, pc}
	...

000da464 <_ZN5spark10JSONWriter5valueEi>:
    }
    state_ = NEXT;
    return *this;
}

spark::JSONWriter& spark::JSONWriter::value(int val) {
   da464:	b538      	push	{r3, r4, r5, lr}
   da466:	4604      	mov	r4, r0
   da468:	460d      	mov	r5, r1
    writeSeparator();
   da46a:	f7ff ffe1 	bl	da430 <_ZN5spark10JSONWriter14writeSeparatorEv>
    printf("%d", val);
   da46e:	6823      	ldr	r3, [r4, #0]
   da470:	4904      	ldr	r1, [pc, #16]	; (da484 <_ZN5spark10JSONWriter5valueEi+0x20>)
   da472:	68db      	ldr	r3, [r3, #12]
   da474:	4620      	mov	r0, r4
   da476:	462a      	mov	r2, r5
   da478:	4798      	blx	r3
    state_ = NEXT;
   da47a:	2301      	movs	r3, #1
   da47c:	7123      	strb	r3, [r4, #4]
    return *this;
}
   da47e:	4620      	mov	r0, r4
   da480:	bd38      	pop	{r3, r4, r5, pc}
   da482:	bf00      	nop
   da484:	000db31b 	.word	0x000db31b

000da488 <_ZN5spark10JSONWriter5valueEj>:

spark::JSONWriter& spark::JSONWriter::value(unsigned val) {
   da488:	b538      	push	{r3, r4, r5, lr}
   da48a:	4604      	mov	r4, r0
   da48c:	460d      	mov	r5, r1
    writeSeparator();
   da48e:	f7ff ffcf 	bl	da430 <_ZN5spark10JSONWriter14writeSeparatorEv>
    printf("%u", val);
   da492:	6823      	ldr	r3, [r4, #0]
   da494:	4904      	ldr	r1, [pc, #16]	; (da4a8 <_ZN5spark10JSONWriter5valueEj+0x20>)
   da496:	68db      	ldr	r3, [r3, #12]
   da498:	4620      	mov	r0, r4
   da49a:	462a      	mov	r2, r5
   da49c:	4798      	blx	r3
    state_ = NEXT;
   da49e:	2301      	movs	r3, #1
   da4a0:	7123      	strb	r3, [r4, #4]
    return *this;
}
   da4a2:	4620      	mov	r0, r4
   da4a4:	bd38      	pop	{r3, r4, r5, pc}
   da4a6:	bf00      	nop
   da4a8:	000dace9 	.word	0x000dace9

000da4ac <_ZN5spark10JSONWriter12writeEscapedEPKcj>:
    default:
        break;
    }
}

void spark::JSONWriter::writeEscaped(const char *str, size_t size) {
   da4ac:	b5f8      	push	{r3, r4, r5, r6, r7, lr}
   da4ae:	460d      	mov	r5, r1
   da4b0:	4617      	mov	r7, r2
    write('"');
   da4b2:	2122      	movs	r1, #34	; 0x22
    default:
        break;
    }
}

void spark::JSONWriter::writeEscaped(const char *str, size_t size) {
   da4b4:	4604      	mov	r4, r0
   da4b6:	442f      	add	r7, r5
    write('"');
   da4b8:	f7ff ff48 	bl	da34c <_ZN5spark10JSONWriter5writeEc>
   da4bc:	462a      	mov	r2, r5
    const char* const end = str + size;
   da4be:	4629      	mov	r1, r5
    const char *s = str;
    while (s != end) {
   da4c0:	42ba      	cmp	r2, r7
   da4c2:	d038      	beq.n	da536 <_ZN5spark10JSONWriter12writeEscapedEPKcj+0x8a>
        const char c = *s;
   da4c4:	4616      	mov	r6, r2
   da4c6:	f816 5b01 	ldrb.w	r5, [r6], #1
        if (c == '"' || c == '\\' || (c >= 0 && c <= 0x1f)) {
   da4ca:	2d22      	cmp	r5, #34	; 0x22
   da4cc:	d003      	beq.n	da4d6 <_ZN5spark10JSONWriter12writeEscapedEPKcj+0x2a>
   da4ce:	2d5c      	cmp	r5, #92	; 0x5c
   da4d0:	d001      	beq.n	da4d6 <_ZN5spark10JSONWriter12writeEscapedEPKcj+0x2a>
   da4d2:	2d1f      	cmp	r5, #31
   da4d4:	d82d      	bhi.n	da532 <_ZN5spark10JSONWriter12writeEscapedEPKcj+0x86>
            write(str, s - str); // Write preceeding characters
   da4d6:	6823      	ldr	r3, [r4, #0]
   da4d8:	1a52      	subs	r2, r2, r1
   da4da:	689b      	ldr	r3, [r3, #8]
   da4dc:	4620      	mov	r0, r4
   da4de:	4798      	blx	r3
            write('\\');
   da4e0:	215c      	movs	r1, #92	; 0x5c
   da4e2:	4620      	mov	r0, r4
   da4e4:	f7ff ff32 	bl	da34c <_ZN5spark10JSONWriter5writeEc>
            switch (c) {
   da4e8:	2d0c      	cmp	r5, #12
   da4ea:	d019      	beq.n	da520 <_ZN5spark10JSONWriter12writeEscapedEPKcj+0x74>
   da4ec:	d807      	bhi.n	da4fe <_ZN5spark10JSONWriter12writeEscapedEPKcj+0x52>
   da4ee:	2d09      	cmp	r5, #9
   da4f0:	d00f      	beq.n	da512 <_ZN5spark10JSONWriter12writeEscapedEPKcj+0x66>
   da4f2:	2d0a      	cmp	r5, #10
   da4f4:	d012      	beq.n	da51c <_ZN5spark10JSONWriter12writeEscapedEPKcj+0x70>
   da4f6:	2d08      	cmp	r5, #8
   da4f8:	d114      	bne.n	da524 <_ZN5spark10JSONWriter12writeEscapedEPKcj+0x78>
            case '"':
            case '\\':
                write(c);
                break;
            case 0x08: // Backspace
                write('b');
   da4fa:	2162      	movs	r1, #98	; 0x62
   da4fc:	e00a      	b.n	da514 <_ZN5spark10JSONWriter12writeEscapedEPKcj+0x68>
    while (s != end) {
        const char c = *s;
        if (c == '"' || c == '\\' || (c >= 0 && c <= 0x1f)) {
            write(str, s - str); // Write preceeding characters
            write('\\');
            switch (c) {
   da4fe:	2d22      	cmp	r5, #34	; 0x22
   da500:	d005      	beq.n	da50e <_ZN5spark10JSONWriter12writeEscapedEPKcj+0x62>
   da502:	2d5c      	cmp	r5, #92	; 0x5c
   da504:	d003      	beq.n	da50e <_ZN5spark10JSONWriter12writeEscapedEPKcj+0x62>
   da506:	2d0d      	cmp	r5, #13
   da508:	d10c      	bne.n	da524 <_ZN5spark10JSONWriter12writeEscapedEPKcj+0x78>
                break;
            case 0x0c: // Form feed
                write('f');
                break;
            case 0x0d: // Carriage return
                write('r');
   da50a:	2172      	movs	r1, #114	; 0x72
   da50c:	e002      	b.n	da514 <_ZN5spark10JSONWriter12writeEscapedEPKcj+0x68>
            write(str, s - str); // Write preceeding characters
            write('\\');
            switch (c) {
            case '"':
            case '\\':
                write(c);
   da50e:	4629      	mov	r1, r5
   da510:	e000      	b.n	da514 <_ZN5spark10JSONWriter12writeEscapedEPKcj+0x68>
                break;
            case 0x08: // Backspace
                write('b');
                break;
            case 0x09: // Tab
                write('t');
   da512:	2174      	movs	r1, #116	; 0x74
            case '"':
            case '\\':
                write(c);
                break;
            case 0x08: // Backspace
                write('b');
   da514:	4620      	mov	r0, r4
   da516:	f7ff ff19 	bl	da34c <_ZN5spark10JSONWriter5writeEc>
                break;
   da51a:	e009      	b.n	da530 <_ZN5spark10JSONWriter12writeEscapedEPKcj+0x84>
            case 0x09: // Tab
                write('t');
                break;
            case 0x0a: // Line feed
                write('n');
   da51c:	216e      	movs	r1, #110	; 0x6e
   da51e:	e7f9      	b.n	da514 <_ZN5spark10JSONWriter12writeEscapedEPKcj+0x68>
                break;
            case 0x0c: // Form feed
                write('f');
   da520:	2166      	movs	r1, #102	; 0x66
   da522:	e7f7      	b.n	da514 <_ZN5spark10JSONWriter12writeEscapedEPKcj+0x68>
            case 0x0d: // Carriage return
                write('r');
                break;
            default:
                // All other control characters are written in hex, e.g. "\u001f"
                printf("u%04x", (unsigned)c);
   da524:	6823      	ldr	r3, [r4, #0]
   da526:	490a      	ldr	r1, [pc, #40]	; (da550 <_ZN5spark10JSONWriter12writeEscapedEPKcj+0xa4>)
   da528:	68db      	ldr	r3, [r3, #12]
   da52a:	462a      	mov	r2, r5
   da52c:	4620      	mov	r0, r4
   da52e:	4798      	blx	r3
                break;
            }
            str = s + 1;
   da530:	4631      	mov	r1, r6

void spark::JSONWriter::writeEscaped(const char *str, size_t size) {
    write('"');
    const char* const end = str + size;
    const char *s = str;
    while (s != end) {
   da532:	4632      	mov	r2, r6
   da534:	e7c4      	b.n	da4c0 <_ZN5spark10JSONWriter12writeEscapedEPKcj+0x14>
            }
            str = s + 1;
        }
        ++s;
    }
    if (s != str) {
   da536:	4291      	cmp	r1, r2
   da538:	d004      	beq.n	da544 <_ZN5spark10JSONWriter12writeEscapedEPKcj+0x98>
        write(str, s - str); // Write remaining characters
   da53a:	6823      	ldr	r3, [r4, #0]
   da53c:	1a52      	subs	r2, r2, r1
   da53e:	689d      	ldr	r5, [r3, #8]
   da540:	4620      	mov	r0, r4
   da542:	47a8      	blx	r5
    }
    write('"');
   da544:	2122      	movs	r1, #34	; 0x22
   da546:	4620      	mov	r0, r4
   da548:	f7ff ff00 	bl	da34c <_ZN5spark10JSONWriter5writeEc>
   da54c:	bdf8      	pop	{r3, r4, r5, r6, r7, pc}
   da54e:	bf00      	nop
   da550:	000dbf5d 	.word	0x000dbf5d

000da554 <_ZN5spark10JSONWriter4nameEPKcj>:
    write('}');
    state_ = NEXT;
    return *this;
}

spark::JSONWriter& spark::JSONWriter::name(const char *name, size_t size) {
   da554:	b570      	push	{r4, r5, r6, lr}
   da556:	4604      	mov	r4, r0
   da558:	460d      	mov	r5, r1
   da55a:	4616      	mov	r6, r2
    writeSeparator();
   da55c:	f7ff ff68 	bl	da430 <_ZN5spark10JSONWriter14writeSeparatorEv>
    writeEscaped(name, size);
   da560:	4620      	mov	r0, r4
   da562:	4632      	mov	r2, r6
   da564:	4629      	mov	r1, r5
   da566:	f7ff ffa1 	bl	da4ac <_ZN5spark10JSONWriter12writeEscapedEPKcj>
    state_ = VALUE;
   da56a:	2302      	movs	r3, #2
   da56c:	7123      	strb	r3, [r4, #4]
    return *this;
}
   da56e:	4620      	mov	r0, r4
   da570:	bd70      	pop	{r4, r5, r6, pc}

000da572 <_ZN5spark10JSONWriter5valueEPKcj>:
    printf("%g", val);
    state_ = NEXT;
    return *this;
}

spark::JSONWriter& spark::JSONWriter::value(const char *val, size_t size) {
   da572:	b570      	push	{r4, r5, r6, lr}
   da574:	4604      	mov	r4, r0
   da576:	460d      	mov	r5, r1
   da578:	4616      	mov	r6, r2
    writeSeparator();
   da57a:	f7ff ff59 	bl	da430 <_ZN5spark10JSONWriter14writeSeparatorEv>
    writeEscaped(val, size);
   da57e:	4620      	mov	r0, r4
   da580:	4632      	mov	r2, r6
   da582:	4629      	mov	r1, r5
   da584:	f7ff ff92 	bl	da4ac <_ZN5spark10JSONWriter12writeEscapedEPKcj>
    state_ = NEXT;
   da588:	2301      	movs	r3, #1
   da58a:	7123      	strb	r3, [r4, #4]
    return *this;
}
   da58c:	4620      	mov	r0, r4
   da58e:	bd70      	pop	{r4, r5, r6, pc}

000da590 <_ZN5spark10JSONStringC1EPK9jsmntok_tSt10shared_ptrINS_6detail8JSONDataEE>:
    t->end = str - json; // Update string length
    return true;
}

// spark::JSONString
spark::JSONString::JSONString(const jsmntok_t *t, detail::JSONDataPtr d) :
   da590:	b510      	push	{r4, lr}

    public:
      typedef _Tp   element_type;

      constexpr __shared_ptr() noexcept
      : _M_ptr(0), _M_refcount()
   da592:	2300      	movs	r3, #0
   da594:	4604      	mov	r4, r0
   da596:	6003      	str	r3, [r0, #0]

  template<_Lock_policy _Lp>
    class __shared_count
    {
    public:
      constexpr __shared_count() noexcept : _M_pi(0)
   da598:	6043      	str	r3, [r0, #4]
}

// spark::JSONString
inline spark::JSONString::JSONString() :
        s_(""),
        n_(0) {
   da59a:	4810      	ldr	r0, [pc, #64]	; (da5dc <_ZN5spark10JSONStringC1EPK9jsmntok_tSt10shared_ptrINS_6detail8JSONDataEE+0x4c>)
   da59c:	60a0      	str	r0, [r4, #8]
   da59e:	60e3      	str	r3, [r4, #12]
        JSONString() {
    if (t && (t->type == JSMN_STRING || t->type == JSMN_PRIMITIVE)) {
   da5a0:	b1d1      	cbz	r1, da5d8 <_ZN5spark10JSONStringC1EPK9jsmntok_tSt10shared_ptrINS_6detail8JSONDataEE+0x48>
   da5a2:	780b      	ldrb	r3, [r1, #0]
   da5a4:	2b03      	cmp	r3, #3
   da5a6:	d006      	beq.n	da5b6 <_ZN5spark10JSONStringC1EPK9jsmntok_tSt10shared_ptrINS_6detail8JSONDataEE+0x26>
   da5a8:	b9b3      	cbnz	r3, da5d8 <_ZN5spark10JSONStringC1EPK9jsmntok_tSt10shared_ptrINS_6detail8JSONDataEE+0x48>
        if (t->type != JSMN_PRIMITIVE || d->json[t->start] != 'n') { // Nulls are treated as empty strings
   da5aa:	6813      	ldr	r3, [r2, #0]
   da5ac:	6858      	ldr	r0, [r3, #4]
   da5ae:	684b      	ldr	r3, [r1, #4]
   da5b0:	5cc3      	ldrb	r3, [r0, r3]
   da5b2:	2b6e      	cmp	r3, #110	; 0x6e
   da5b4:	d008      	beq.n	da5c8 <_ZN5spark10JSONStringC1EPK9jsmntok_tSt10shared_ptrINS_6detail8JSONDataEE+0x38>
            s_ = d->json + t->start;
   da5b6:	6813      	ldr	r3, [r2, #0]
   da5b8:	6858      	ldr	r0, [r3, #4]
   da5ba:	684b      	ldr	r3, [r1, #4]
   da5bc:	4403      	add	r3, r0
   da5be:	60a3      	str	r3, [r4, #8]
            n_ = t->end - t->start;
   da5c0:	688b      	ldr	r3, [r1, #8]
   da5c2:	6849      	ldr	r1, [r1, #4]
   da5c4:	1a5b      	subs	r3, r3, r1
   da5c6:	60e3      	str	r3, [r4, #12]
    __enable_shared_from_this_helper(const __shared_count<_Lp>&, ...) noexcept
    { }


  template<typename _Tp, _Lock_policy _Lp>
    class __shared_ptr
   da5c8:	4611      	mov	r1, r2
   da5ca:	4620      	mov	r0, r4
   da5cc:	f851 3b04 	ldr.w	r3, [r1], #4
   da5d0:	f840 3b04 	str.w	r3, [r0], #4
   da5d4:	f7fc febc 	bl	d7350 <_ZNSt14__shared_countILN9__gnu_cxx12_Lock_policyE0EEaSERKS2_>
        }
        d_ = d;
    }
}
   da5d8:	4620      	mov	r0, r4
   da5da:	bd10      	pop	{r4, pc}
   da5dc:	000dbce8 	.word	0x000dbce8

000da5e0 <_ZN5spark18JSONObjectIteratorC1EPK9jsmntok_tSt10shared_ptrINS_6detail8JSONDataEE>:

    public:
      typedef _Tp   element_type;

      constexpr __shared_ptr() noexcept
      : _M_ptr(0), _M_refcount()
   da5e0:	2300      	movs	r3, #0
bool spark::JSONString::operator==(const JSONString &str) const {
    return n_ == str.n_ && strncmp(s_, str.s_, n_) == 0;
}

// spark::JSONObjectIterator
spark::JSONObjectIterator::JSONObjectIterator(const jsmntok_t *t, detail::JSONDataPtr d) :
   da5e2:	b510      	push	{r4, lr}
   da5e4:	4604      	mov	r4, r0
   da5e6:	6003      	str	r3, [r0, #0]

  template<_Lock_policy _Lp>
    class __shared_count
    {
    public:
      constexpr __shared_count() noexcept : _M_pi(0)
   da5e8:	6043      	str	r3, [r0, #4]
// spark::JSONObjectIterator
inline spark::JSONObjectIterator::JSONObjectIterator() :
        t_(nullptr),
        k_(nullptr),
        v_(nullptr),
        n_(0) {
   da5ea:	6083      	str	r3, [r0, #8]
   da5ec:	60c3      	str	r3, [r0, #12]
   da5ee:	6103      	str	r3, [r0, #16]
   da5f0:	6143      	str	r3, [r0, #20]
        JSONObjectIterator() {
    if (t && t->type == JSMN_OBJECT) {
   da5f2:	b171      	cbz	r1, da612 <_ZN5spark18JSONObjectIteratorC1EPK9jsmntok_tSt10shared_ptrINS_6detail8JSONDataEE+0x32>
   da5f4:	780b      	ldrb	r3, [r1, #0]
   da5f6:	2b01      	cmp	r3, #1
   da5f8:	d10b      	bne.n	da612 <_ZN5spark18JSONObjectIteratorC1EPK9jsmntok_tSt10shared_ptrINS_6detail8JSONDataEE+0x32>
        t_ = t + 1; // First property's name
   da5fa:	f101 0310 	add.w	r3, r1, #16
   da5fe:	6083      	str	r3, [r0, #8]
        n_ = t->size; // Number of properties
   da600:	68cb      	ldr	r3, [r1, #12]
   da602:	6143      	str	r3, [r0, #20]
    __enable_shared_from_this_helper(const __shared_count<_Lp>&, ...) noexcept
    { }


  template<typename _Tp, _Lock_policy _Lp>
    class __shared_ptr
   da604:	4611      	mov	r1, r2
   da606:	f851 3b04 	ldr.w	r3, [r1], #4
   da60a:	f840 3b04 	str.w	r3, [r0], #4
   da60e:	f7fc fe9f 	bl	d7350 <_ZNSt14__shared_countILN9__gnu_cxx12_Lock_policyE0EEaSERKS2_>
        d_ = d;
    }
}
   da612:	4620      	mov	r0, r4
   da614:	bd10      	pop	{r4, pc}

000da616 <_ZN5spark9JSONValueC1EPK9jsmntok_tSt10shared_ptrINS_6detail8JSONDataEE>:

    public:
      typedef _Tp   element_type;

      constexpr __shared_ptr() noexcept
      : _M_ptr(0), _M_refcount()
   da616:	2300      	movs	r3, #0
        }
    }
};

// spark::JSONValue
spark::JSONValue::JSONValue(const jsmntok_t *t, detail::JSONDataPtr d) :
   da618:	b510      	push	{r4, lr}
   da61a:	4604      	mov	r4, r0
   da61c:	6003      	str	r3, [r0, #0]

  template<_Lock_policy _Lp>
    class __shared_count
    {
    public:
      constexpr __shared_count() noexcept : _M_pi(0)
   da61e:	6043      	str	r3, [r0, #4]
        JSONValue() {
    if (t) {
        t_ = t;
   da620:	6081      	str	r1, [r0, #8]
};

// spark::JSONValue
spark::JSONValue::JSONValue(const jsmntok_t *t, detail::JSONDataPtr d) :
        JSONValue() {
    if (t) {
   da622:	b131      	cbz	r1, da632 <_ZN5spark9JSONValueC1EPK9jsmntok_tSt10shared_ptrINS_6detail8JSONDataEE+0x1c>
    __enable_shared_from_this_helper(const __shared_count<_Lp>&, ...) noexcept
    { }


  template<typename _Tp, _Lock_policy _Lp>
    class __shared_ptr
   da624:	4611      	mov	r1, r2
   da626:	f851 3b04 	ldr.w	r3, [r1], #4
   da62a:	f840 3b04 	str.w	r3, [r0], #4
   da62e:	f7fc fe8f 	bl	d7350 <_ZNSt14__shared_countILN9__gnu_cxx12_Lock_policyE0EEaSERKS2_>
        t_ = t;
        d_ = d;
    }
}
   da632:	4620      	mov	r0, r4
   da634:	bd10      	pop	{r4, pc}

000da636 <__aeabi_atexit>:
   da636:	460b      	mov	r3, r1
   da638:	4601      	mov	r1, r0
   da63a:	4618      	mov	r0, r3
   da63c:	f000 b964 	b.w	da908 <__cxa_atexit>

000da640 <_ZSt15get_new_handlerv>:
   da640:	4b02      	ldr	r3, [pc, #8]	; (da64c <_ZSt15get_new_handlerv+0xc>)
   da642:	6818      	ldr	r0, [r3, #0]
   da644:	f3bf 8f5f 	dmb	sy
   da648:	4770      	bx	lr
   da64a:	bf00      	nop
   da64c:	2003e74c 	.word	0x2003e74c

000da650 <_ZdlPvj>:
   da650:	f7f9 bd25 	b.w	d409e <_ZdlPv>

000da654 <_ZnwjRKSt9nothrow_t>:
   da654:	b510      	push	{r4, lr}
   da656:	2800      	cmp	r0, #0
   da658:	bf14      	ite	ne
   da65a:	4604      	movne	r4, r0
   da65c:	2401      	moveq	r4, #1
   da65e:	4620      	mov	r0, r4
   da660:	f7fb feec 	bl	d643c <malloc>
   da664:	b920      	cbnz	r0, da670 <_ZnwjRKSt9nothrow_t+0x1c>
   da666:	f7ff ffeb 	bl	da640 <_ZSt15get_new_handlerv>
   da66a:	b108      	cbz	r0, da670 <_ZnwjRKSt9nothrow_t+0x1c>
   da66c:	4780      	blx	r0
   da66e:	e7f6      	b.n	da65e <_ZnwjRKSt9nothrow_t+0xa>
   da670:	bd10      	pop	{r4, pc}

000da672 <_ZSt25__throw_bad_function_callv>:
   da672:	b508      	push	{r3, lr}
   da674:	f7fb ff0a 	bl	d648c <abort>

000da678 <_GLOBAL__sub_I__ZNSt12ctype_bynameIcEC2ERKNSt7__cxx1112basic_stringIcSt11char_traitsIcESaIcEEEj>:
   da678:	4b18      	ldr	r3, [pc, #96]	; (da6dc <_GLOBAL__sub_I__ZNSt12ctype_bynameIcEC2ERKNSt7__cxx1112basic_stringIcSt11char_traitsIcESaIcEEEj+0x64>)
   da67a:	681a      	ldr	r2, [r3, #0]
   da67c:	07d1      	lsls	r1, r2, #31
   da67e:	bf5c      	itt	pl
   da680:	2201      	movpl	r2, #1
   da682:	601a      	strpl	r2, [r3, #0]
   da684:	4b16      	ldr	r3, [pc, #88]	; (da6e0 <_GLOBAL__sub_I__ZNSt12ctype_bynameIcEC2ERKNSt7__cxx1112basic_stringIcSt11char_traitsIcESaIcEEEj+0x68>)
   da686:	681a      	ldr	r2, [r3, #0]
   da688:	07d2      	lsls	r2, r2, #31
   da68a:	bf5c      	itt	pl
   da68c:	2201      	movpl	r2, #1
   da68e:	601a      	strpl	r2, [r3, #0]
   da690:	4b14      	ldr	r3, [pc, #80]	; (da6e4 <_GLOBAL__sub_I__ZNSt12ctype_bynameIcEC2ERKNSt7__cxx1112basic_stringIcSt11char_traitsIcESaIcEEEj+0x6c>)
   da692:	681a      	ldr	r2, [r3, #0]
   da694:	07d0      	lsls	r0, r2, #31
   da696:	bf5c      	itt	pl
   da698:	2201      	movpl	r2, #1
   da69a:	601a      	strpl	r2, [r3, #0]
   da69c:	4b12      	ldr	r3, [pc, #72]	; (da6e8 <_GLOBAL__sub_I__ZNSt12ctype_bynameIcEC2ERKNSt7__cxx1112basic_stringIcSt11char_traitsIcESaIcEEEj+0x70>)
   da69e:	681a      	ldr	r2, [r3, #0]
   da6a0:	07d1      	lsls	r1, r2, #31
   da6a2:	bf5c      	itt	pl
   da6a4:	2201      	movpl	r2, #1
   da6a6:	601a      	strpl	r2, [r3, #0]
   da6a8:	4b10      	ldr	r3, [pc, #64]	; (da6ec <_GLOBAL__sub_I__ZNSt12ctype_bynameIcEC2ERKNSt7__cxx1112basic_stringIcSt11char_traitsIcESaIcEEEj+0x74>)
   da6aa:	681a      	ldr	r2, [r3, #0]
   da6ac:	07d2      	lsls	r2, r2, #31
   da6ae:	bf5c      	itt	pl
   da6b0:	2201      	movpl	r2, #1
   da6b2:	601a      	strpl	r2, [r3, #0]
   da6b4:	4b0e      	ldr	r3, [pc, #56]	; (da6f0 <_GLOBAL__sub_I__ZNSt12ctype_bynameIcEC2ERKNSt7__cxx1112basic_stringIcSt11char_traitsIcESaIcEEEj+0x78>)
   da6b6:	681a      	ldr	r2, [r3, #0]
   da6b8:	07d0      	lsls	r0, r2, #31
   da6ba:	bf5c      	itt	pl
   da6bc:	2201      	movpl	r2, #1
   da6be:	601a      	strpl	r2, [r3, #0]
   da6c0:	4b0c      	ldr	r3, [pc, #48]	; (da6f4 <_GLOBAL__sub_I__ZNSt12ctype_bynameIcEC2ERKNSt7__cxx1112basic_stringIcSt11char_traitsIcESaIcEEEj+0x7c>)
   da6c2:	681a      	ldr	r2, [r3, #0]
   da6c4:	07d1      	lsls	r1, r2, #31
   da6c6:	bf5c      	itt	pl
   da6c8:	2201      	movpl	r2, #1
   da6ca:	601a      	strpl	r2, [r3, #0]
   da6cc:	4b0a      	ldr	r3, [pc, #40]	; (da6f8 <_GLOBAL__sub_I__ZNSt12ctype_bynameIcEC2ERKNSt7__cxx1112basic_stringIcSt11char_traitsIcESaIcEEEj+0x80>)
   da6ce:	681a      	ldr	r2, [r3, #0]
   da6d0:	07d2      	lsls	r2, r2, #31
   da6d2:	bf5c      	itt	pl
   da6d4:	2201      	movpl	r2, #1
   da6d6:	601a      	strpl	r2, [r3, #0]
   da6d8:	4770      	bx	lr
   da6da:	bf00      	nop
   da6dc:	2003e76c 	.word	0x2003e76c
   da6e0:	2003e768 	.word	0x2003e768
   da6e4:	2003e764 	.word	0x2003e764
   da6e8:	2003e760 	.word	0x2003e760
   da6ec:	2003e75c 	.word	0x2003e75c
   da6f0:	2003e758 	.word	0x2003e758
   da6f4:	2003e754 	.word	0x2003e754
   da6f8:	2003e750 	.word	0x2003e750

000da6fc <_GLOBAL__sub_I__ZNSt12ctype_bynameIwEC2ERKSsj>:
   da6fc:	4b24      	ldr	r3, [pc, #144]	; (da790 <_GLOBAL__sub_I__ZNSt12ctype_bynameIwEC2ERKSsj+0x94>)
   da6fe:	681a      	ldr	r2, [r3, #0]
   da700:	07d0      	lsls	r0, r2, #31
   da702:	bf5c      	itt	pl
   da704:	2201      	movpl	r2, #1
   da706:	601a      	strpl	r2, [r3, #0]
   da708:	4b22      	ldr	r3, [pc, #136]	; (da794 <_GLOBAL__sub_I__ZNSt12ctype_bynameIwEC2ERKSsj+0x98>)
   da70a:	681a      	ldr	r2, [r3, #0]
   da70c:	07d1      	lsls	r1, r2, #31
   da70e:	bf5c      	itt	pl
   da710:	2201      	movpl	r2, #1
   da712:	601a      	strpl	r2, [r3, #0]
   da714:	4b20      	ldr	r3, [pc, #128]	; (da798 <_GLOBAL__sub_I__ZNSt12ctype_bynameIwEC2ERKSsj+0x9c>)
   da716:	681a      	ldr	r2, [r3, #0]
   da718:	07d2      	lsls	r2, r2, #31
   da71a:	bf5c      	itt	pl
   da71c:	2201      	movpl	r2, #1
   da71e:	601a      	strpl	r2, [r3, #0]
   da720:	4b1e      	ldr	r3, [pc, #120]	; (da79c <_GLOBAL__sub_I__ZNSt12ctype_bynameIwEC2ERKSsj+0xa0>)
   da722:	681a      	ldr	r2, [r3, #0]
   da724:	07d0      	lsls	r0, r2, #31
   da726:	bf5c      	itt	pl
   da728:	2201      	movpl	r2, #1
   da72a:	601a      	strpl	r2, [r3, #0]
   da72c:	4b1c      	ldr	r3, [pc, #112]	; (da7a0 <_GLOBAL__sub_I__ZNSt12ctype_bynameIwEC2ERKSsj+0xa4>)
   da72e:	681a      	ldr	r2, [r3, #0]
   da730:	07d1      	lsls	r1, r2, #31
   da732:	bf5c      	itt	pl
   da734:	2201      	movpl	r2, #1
   da736:	601a      	strpl	r2, [r3, #0]
   da738:	4b1a      	ldr	r3, [pc, #104]	; (da7a4 <_GLOBAL__sub_I__ZNSt12ctype_bynameIwEC2ERKSsj+0xa8>)
   da73a:	681a      	ldr	r2, [r3, #0]
   da73c:	07d2      	lsls	r2, r2, #31
   da73e:	bf5c      	itt	pl
   da740:	2201      	movpl	r2, #1
   da742:	601a      	strpl	r2, [r3, #0]
   da744:	4b18      	ldr	r3, [pc, #96]	; (da7a8 <_GLOBAL__sub_I__ZNSt12ctype_bynameIwEC2ERKSsj+0xac>)
   da746:	681a      	ldr	r2, [r3, #0]
   da748:	07d0      	lsls	r0, r2, #31
   da74a:	bf5c      	itt	pl
   da74c:	2201      	movpl	r2, #1
   da74e:	601a      	strpl	r2, [r3, #0]
   da750:	4b16      	ldr	r3, [pc, #88]	; (da7ac <_GLOBAL__sub_I__ZNSt12ctype_bynameIwEC2ERKSsj+0xb0>)
   da752:	681a      	ldr	r2, [r3, #0]
   da754:	07d1      	lsls	r1, r2, #31
   da756:	bf5c      	itt	pl
   da758:	2201      	movpl	r2, #1
   da75a:	601a      	strpl	r2, [r3, #0]
   da75c:	4b14      	ldr	r3, [pc, #80]	; (da7b0 <_GLOBAL__sub_I__ZNSt12ctype_bynameIwEC2ERKSsj+0xb4>)
   da75e:	681a      	ldr	r2, [r3, #0]
   da760:	07d2      	lsls	r2, r2, #31
   da762:	bf5c      	itt	pl
   da764:	2201      	movpl	r2, #1
   da766:	601a      	strpl	r2, [r3, #0]
   da768:	4b12      	ldr	r3, [pc, #72]	; (da7b4 <_GLOBAL__sub_I__ZNSt12ctype_bynameIwEC2ERKSsj+0xb8>)
   da76a:	681a      	ldr	r2, [r3, #0]
   da76c:	07d0      	lsls	r0, r2, #31
   da76e:	bf5c      	itt	pl
   da770:	2201      	movpl	r2, #1
   da772:	601a      	strpl	r2, [r3, #0]
   da774:	4b10      	ldr	r3, [pc, #64]	; (da7b8 <_GLOBAL__sub_I__ZNSt12ctype_bynameIwEC2ERKSsj+0xbc>)
   da776:	681a      	ldr	r2, [r3, #0]
   da778:	07d1      	lsls	r1, r2, #31
   da77a:	bf5c      	itt	pl
   da77c:	2201      	movpl	r2, #1
   da77e:	601a      	strpl	r2, [r3, #0]
   da780:	4b0e      	ldr	r3, [pc, #56]	; (da7bc <_GLOBAL__sub_I__ZNSt12ctype_bynameIwEC2ERKSsj+0xc0>)
   da782:	681a      	ldr	r2, [r3, #0]
   da784:	07d2      	lsls	r2, r2, #31
   da786:	bf5c      	itt	pl
   da788:	2201      	movpl	r2, #1
   da78a:	601a      	strpl	r2, [r3, #0]
   da78c:	4770      	bx	lr
   da78e:	bf00      	nop
   da790:	2003e79c 	.word	0x2003e79c
   da794:	2003e798 	.word	0x2003e798
   da798:	2003e794 	.word	0x2003e794
   da79c:	2003e790 	.word	0x2003e790
   da7a0:	2003e78c 	.word	0x2003e78c
   da7a4:	2003e788 	.word	0x2003e788
   da7a8:	2003e784 	.word	0x2003e784
   da7ac:	2003e780 	.word	0x2003e780
   da7b0:	2003e77c 	.word	0x2003e77c
   da7b4:	2003e778 	.word	0x2003e778
   da7b8:	2003e774 	.word	0x2003e774
   da7bc:	2003e770 	.word	0x2003e770

000da7c0 <_GLOBAL__sub_I__ZNSt12ctype_bynameIcEC2ERKSsj>:
   da7c0:	4b24      	ldr	r3, [pc, #144]	; (da854 <_GLOBAL__sub_I__ZNSt12ctype_bynameIcEC2ERKSsj+0x94>)
   da7c2:	681a      	ldr	r2, [r3, #0]
   da7c4:	07d0      	lsls	r0, r2, #31
   da7c6:	bf5c      	itt	pl
   da7c8:	2201      	movpl	r2, #1
   da7ca:	601a      	strpl	r2, [r3, #0]
   da7cc:	4b22      	ldr	r3, [pc, #136]	; (da858 <_GLOBAL__sub_I__ZNSt12ctype_bynameIcEC2ERKSsj+0x98>)
   da7ce:	681a      	ldr	r2, [r3, #0]
   da7d0:	07d1      	lsls	r1, r2, #31
   da7d2:	bf5c      	itt	pl
   da7d4:	2201      	movpl	r2, #1
   da7d6:	601a      	strpl	r2, [r3, #0]
   da7d8:	4b20      	ldr	r3, [pc, #128]	; (da85c <_GLOBAL__sub_I__ZNSt12ctype_bynameIcEC2ERKSsj+0x9c>)
   da7da:	681a      	ldr	r2, [r3, #0]
   da7dc:	07d2      	lsls	r2, r2, #31
   da7de:	bf5c      	itt	pl
   da7e0:	2201      	movpl	r2, #1
   da7e2:	601a      	strpl	r2, [r3, #0]
   da7e4:	4b1e      	ldr	r3, [pc, #120]	; (da860 <_GLOBAL__sub_I__ZNSt12ctype_bynameIcEC2ERKSsj+0xa0>)
   da7e6:	681a      	ldr	r2, [r3, #0]
   da7e8:	07d0      	lsls	r0, r2, #31
   da7ea:	bf5c      	itt	pl
   da7ec:	2201      	movpl	r2, #1
   da7ee:	601a      	strpl	r2, [r3, #0]
   da7f0:	4b1c      	ldr	r3, [pc, #112]	; (da864 <_GLOBAL__sub_I__ZNSt12ctype_bynameIcEC2ERKSsj+0xa4>)
   da7f2:	681a      	ldr	r2, [r3, #0]
   da7f4:	07d1      	lsls	r1, r2, #31
   da7f6:	bf5c      	itt	pl
   da7f8:	2201      	movpl	r2, #1
   da7fa:	601a      	strpl	r2, [r3, #0]
   da7fc:	4b1a      	ldr	r3, [pc, #104]	; (da868 <_GLOBAL__sub_I__ZNSt12ctype_bynameIcEC2ERKSsj+0xa8>)
   da7fe:	681a      	ldr	r2, [r3, #0]
   da800:	07d2      	lsls	r2, r2, #31
   da802:	bf5c      	itt	pl
   da804:	2201      	movpl	r2, #1
   da806:	601a      	strpl	r2, [r3, #0]
   da808:	4b18      	ldr	r3, [pc, #96]	; (da86c <_GLOBAL__sub_I__ZNSt12ctype_bynameIcEC2ERKSsj+0xac>)
   da80a:	681a      	ldr	r2, [r3, #0]
   da80c:	07d0      	lsls	r0, r2, #31
   da80e:	bf5c      	itt	pl
   da810:	2201      	movpl	r2, #1
   da812:	601a      	strpl	r2, [r3, #0]
   da814:	4b16      	ldr	r3, [pc, #88]	; (da870 <_GLOBAL__sub_I__ZNSt12ctype_bynameIcEC2ERKSsj+0xb0>)
   da816:	681a      	ldr	r2, [r3, #0]
   da818:	07d1      	lsls	r1, r2, #31
   da81a:	bf5c      	itt	pl
   da81c:	2201      	movpl	r2, #1
   da81e:	601a      	strpl	r2, [r3, #0]
   da820:	4b14      	ldr	r3, [pc, #80]	; (da874 <_GLOBAL__sub_I__ZNSt12ctype_bynameIcEC2ERKSsj+0xb4>)
   da822:	681a      	ldr	r2, [r3, #0]
   da824:	07d2      	lsls	r2, r2, #31
   da826:	bf5c      	itt	pl
   da828:	2201      	movpl	r2, #1
   da82a:	601a      	strpl	r2, [r3, #0]
   da82c:	4b12      	ldr	r3, [pc, #72]	; (da878 <_GLOBAL__sub_I__ZNSt12ctype_bynameIcEC2ERKSsj+0xb8>)
   da82e:	681a      	ldr	r2, [r3, #0]
   da830:	07d0      	lsls	r0, r2, #31
   da832:	bf5c      	itt	pl
   da834:	2201      	movpl	r2, #1
   da836:	601a      	strpl	r2, [r3, #0]
   da838:	4b10      	ldr	r3, [pc, #64]	; (da87c <_GLOBAL__sub_I__ZNSt12ctype_bynameIcEC2ERKSsj+0xbc>)
   da83a:	681a      	ldr	r2, [r3, #0]
   da83c:	07d1      	lsls	r1, r2, #31
   da83e:	bf5c      	itt	pl
   da840:	2201      	movpl	r2, #1
   da842:	601a      	strpl	r2, [r3, #0]
   da844:	4b0e      	ldr	r3, [pc, #56]	; (da880 <_GLOBAL__sub_I__ZNSt12ctype_bynameIcEC2ERKSsj+0xc0>)
   da846:	681a      	ldr	r2, [r3, #0]
   da848:	07d2      	lsls	r2, r2, #31
   da84a:	bf5c      	itt	pl
   da84c:	2201      	movpl	r2, #1
   da84e:	601a      	strpl	r2, [r3, #0]
   da850:	4770      	bx	lr
   da852:	bf00      	nop
   da854:	2003e7cc 	.word	0x2003e7cc
   da858:	2003e7c8 	.word	0x2003e7c8
   da85c:	2003e7c4 	.word	0x2003e7c4
   da860:	2003e7c0 	.word	0x2003e7c0
   da864:	2003e7bc 	.word	0x2003e7bc
   da868:	2003e7b8 	.word	0x2003e7b8
   da86c:	2003e7b4 	.word	0x2003e7b4
   da870:	2003e7b0 	.word	0x2003e7b0
   da874:	2003e7ac 	.word	0x2003e7ac
   da878:	2003e7a8 	.word	0x2003e7a8
   da87c:	2003e7a4 	.word	0x2003e7a4
   da880:	2003e7a0 	.word	0x2003e7a0

000da884 <_GLOBAL__sub_I__ZNSt12ctype_bynameIwEC2ERKNSt7__cxx1112basic_stringIcSt11char_traitsIcESaIcEEEj>:
   da884:	4b18      	ldr	r3, [pc, #96]	; (da8e8 <_GLOBAL__sub_I__ZNSt12ctype_bynameIwEC2ERKNSt7__cxx1112basic_stringIcSt11char_traitsIcESaIcEEEj+0x64>)
   da886:	681a      	ldr	r2, [r3, #0]
   da888:	07d1      	lsls	r1, r2, #31
   da88a:	bf5c      	itt	pl
   da88c:	2201      	movpl	r2, #1
   da88e:	601a      	strpl	r2, [r3, #0]
   da890:	4b16      	ldr	r3, [pc, #88]	; (da8ec <_GLOBAL__sub_I__ZNSt12ctype_bynameIwEC2ERKNSt7__cxx1112basic_stringIcSt11char_traitsIcESaIcEEEj+0x68>)
   da892:	681a      	ldr	r2, [r3, #0]
   da894:	07d2      	lsls	r2, r2, #31
   da896:	bf5c      	itt	pl
   da898:	2201      	movpl	r2, #1
   da89a:	601a      	strpl	r2, [r3, #0]
   da89c:	4b14      	ldr	r3, [pc, #80]	; (da8f0 <_GLOBAL__sub_I__ZNSt12ctype_bynameIwEC2ERKNSt7__cxx1112basic_stringIcSt11char_traitsIcESaIcEEEj+0x6c>)
   da89e:	681a      	ldr	r2, [r3, #0]
   da8a0:	07d0      	lsls	r0, r2, #31
   da8a2:	bf5c      	itt	pl
   da8a4:	2201      	movpl	r2, #1
   da8a6:	601a      	strpl	r2, [r3, #0]
   da8a8:	4b12      	ldr	r3, [pc, #72]	; (da8f4 <_GLOBAL__sub_I__ZNSt12ctype_bynameIwEC2ERKNSt7__cxx1112basic_stringIcSt11char_traitsIcESaIcEEEj+0x70>)
   da8aa:	681a      	ldr	r2, [r3, #0]
   da8ac:	07d1      	lsls	r1, r2, #31
   da8ae:	bf5c      	itt	pl
   da8b0:	2201      	movpl	r2, #1
   da8b2:	601a      	strpl	r2, [r3, #0]
   da8b4:	4b10      	ldr	r3, [pc, #64]	; (da8f8 <_GLOBAL__sub_I__ZNSt12ctype_bynameIwEC2ERKNSt7__cxx1112basic_stringIcSt11char_traitsIcESaIcEEEj+0x74>)
   da8b6:	681a      	ldr	r2, [r3, #0]
   da8b8:	07d2      	lsls	r2, r2, #31
   da8ba:	bf5c      	itt	pl
   da8bc:	2201      	movpl	r2, #1
   da8be:	601a      	strpl	r2, [r3, #0]
   da8c0:	4b0e      	ldr	r3, [pc, #56]	; (da8fc <_GLOBAL__sub_I__ZNSt12ctype_bynameIwEC2ERKNSt7__cxx1112basic_stringIcSt11char_traitsIcESaIcEEEj+0x78>)
   da8c2:	681a      	ldr	r2, [r3, #0]
   da8c4:	07d0      	lsls	r0, r2, #31
   da8c6:	bf5c      	itt	pl
   da8c8:	2201      	movpl	r2, #1
   da8ca:	601a      	strpl	r2, [r3, #0]
   da8cc:	4b0c      	ldr	r3, [pc, #48]	; (da900 <_GLOBAL__sub_I__ZNSt12ctype_bynameIwEC2ERKNSt7__cxx1112basic_stringIcSt11char_traitsIcESaIcEEEj+0x7c>)
   da8ce:	681a      	ldr	r2, [r3, #0]
   da8d0:	07d1      	lsls	r1, r2, #31
   da8d2:	bf5c      	itt	pl
   da8d4:	2201      	movpl	r2, #1
   da8d6:	601a      	strpl	r2, [r3, #0]
   da8d8:	4b0a      	ldr	r3, [pc, #40]	; (da904 <_GLOBAL__sub_I__ZNSt12ctype_bynameIwEC2ERKNSt7__cxx1112basic_stringIcSt11char_traitsIcESaIcEEEj+0x80>)
   da8da:	681a      	ldr	r2, [r3, #0]
   da8dc:	07d2      	lsls	r2, r2, #31
   da8de:	bf5c      	itt	pl
   da8e0:	2201      	movpl	r2, #1
   da8e2:	601a      	strpl	r2, [r3, #0]
   da8e4:	4770      	bx	lr
   da8e6:	bf00      	nop
   da8e8:	2003e7ec 	.word	0x2003e7ec
   da8ec:	2003e7e8 	.word	0x2003e7e8
   da8f0:	2003e7e4 	.word	0x2003e7e4
   da8f4:	2003e7e0 	.word	0x2003e7e0
   da8f8:	2003e7dc 	.word	0x2003e7dc
   da8fc:	2003e7d8 	.word	0x2003e7d8
   da900:	2003e7d4 	.word	0x2003e7d4
   da904:	2003e7d0 	.word	0x2003e7d0

000da908 <__cxa_atexit>:
   da908:	b510      	push	{r4, lr}
   da90a:	4c05      	ldr	r4, [pc, #20]	; (da920 <__cxa_atexit+0x18>)
   da90c:	4613      	mov	r3, r2
   da90e:	b12c      	cbz	r4, da91c <__cxa_atexit+0x14>
   da910:	460a      	mov	r2, r1
   da912:	4601      	mov	r1, r0
   da914:	2002      	movs	r0, #2
   da916:	f3af 8000 	nop.w
   da91a:	bd10      	pop	{r4, pc}
   da91c:	4620      	mov	r0, r4
   da91e:	bd10      	pop	{r4, pc}
   da920:	00000000 	.word	0x00000000

000da924 <memcmp>:
   da924:	b510      	push	{r4, lr}
   da926:	3901      	subs	r1, #1
   da928:	4402      	add	r2, r0
   da92a:	4290      	cmp	r0, r2
   da92c:	d007      	beq.n	da93e <memcmp+0x1a>
   da92e:	f810 3b01 	ldrb.w	r3, [r0], #1
   da932:	f811 4f01 	ldrb.w	r4, [r1, #1]!
   da936:	42a3      	cmp	r3, r4
   da938:	d0f7      	beq.n	da92a <memcmp+0x6>
   da93a:	1b18      	subs	r0, r3, r4
   da93c:	bd10      	pop	{r4, pc}
   da93e:	2000      	movs	r0, #0
   da940:	bd10      	pop	{r4, pc}

000da942 <memcpy>:
   da942:	b510      	push	{r4, lr}
   da944:	1e43      	subs	r3, r0, #1
   da946:	440a      	add	r2, r1
   da948:	4291      	cmp	r1, r2
   da94a:	d004      	beq.n	da956 <memcpy+0x14>
   da94c:	f811 4b01 	ldrb.w	r4, [r1], #1
   da950:	f803 4f01 	strb.w	r4, [r3, #1]!
   da954:	e7f8      	b.n	da948 <memcpy+0x6>
   da956:	bd10      	pop	{r4, pc}

000da958 <memmove>:
   da958:	4288      	cmp	r0, r1
   da95a:	b510      	push	{r4, lr}
   da95c:	eb01 0302 	add.w	r3, r1, r2
   da960:	d801      	bhi.n	da966 <memmove+0xe>
   da962:	1e42      	subs	r2, r0, #1
   da964:	e00b      	b.n	da97e <memmove+0x26>
   da966:	4298      	cmp	r0, r3
   da968:	d2fb      	bcs.n	da962 <memmove+0xa>
   da96a:	1881      	adds	r1, r0, r2
   da96c:	1ad2      	subs	r2, r2, r3
   da96e:	42d3      	cmn	r3, r2
   da970:	d004      	beq.n	da97c <memmove+0x24>
   da972:	f813 4d01 	ldrb.w	r4, [r3, #-1]!
   da976:	f801 4d01 	strb.w	r4, [r1, #-1]!
   da97a:	e7f8      	b.n	da96e <memmove+0x16>
   da97c:	bd10      	pop	{r4, pc}
   da97e:	4299      	cmp	r1, r3
   da980:	d004      	beq.n	da98c <memmove+0x34>
   da982:	f811 4b01 	ldrb.w	r4, [r1], #1
   da986:	f802 4f01 	strb.w	r4, [r2, #1]!
   da98a:	e7f8      	b.n	da97e <memmove+0x26>
   da98c:	bd10      	pop	{r4, pc}

000da98e <memset>:
   da98e:	4402      	add	r2, r0
   da990:	4603      	mov	r3, r0
   da992:	4293      	cmp	r3, r2
   da994:	d002      	beq.n	da99c <memset+0xe>
   da996:	f803 1b01 	strb.w	r1, [r3], #1
   da99a:	e7fa      	b.n	da992 <memset+0x4>
   da99c:	4770      	bx	lr
	...

000da9a0 <srand>:
   da9a0:	b538      	push	{r3, r4, r5, lr}
   da9a2:	4b12      	ldr	r3, [pc, #72]	; (da9ec <srand+0x4c>)
   da9a4:	681c      	ldr	r4, [r3, #0]
   da9a6:	6ba3      	ldr	r3, [r4, #56]	; 0x38
   da9a8:	4605      	mov	r5, r0
   da9aa:	b9d3      	cbnz	r3, da9e2 <srand+0x42>
   da9ac:	2018      	movs	r0, #24
   da9ae:	f7fb fd45 	bl	d643c <malloc>
   da9b2:	f243 330e 	movw	r3, #13070	; 0x330e
   da9b6:	63a0      	str	r0, [r4, #56]	; 0x38
   da9b8:	8003      	strh	r3, [r0, #0]
   da9ba:	f64a 33cd 	movw	r3, #43981	; 0xabcd
   da9be:	8043      	strh	r3, [r0, #2]
   da9c0:	f241 2334 	movw	r3, #4660	; 0x1234
   da9c4:	8083      	strh	r3, [r0, #4]
   da9c6:	f24e 636d 	movw	r3, #58989	; 0xe66d
   da9ca:	80c3      	strh	r3, [r0, #6]
   da9cc:	f64d 63ec 	movw	r3, #57068	; 0xdeec
   da9d0:	8103      	strh	r3, [r0, #8]
   da9d2:	2305      	movs	r3, #5
   da9d4:	8143      	strh	r3, [r0, #10]
   da9d6:	230b      	movs	r3, #11
   da9d8:	8183      	strh	r3, [r0, #12]
   da9da:	2201      	movs	r2, #1
   da9dc:	2300      	movs	r3, #0
   da9de:	e9c0 2304 	strd	r2, r3, [r0, #16]
   da9e2:	6ba3      	ldr	r3, [r4, #56]	; 0x38
   da9e4:	2200      	movs	r2, #0
   da9e6:	611d      	str	r5, [r3, #16]
   da9e8:	615a      	str	r2, [r3, #20]
   da9ea:	bd38      	pop	{r3, r4, r5, pc}
   da9ec:	2003d8d0 	.word	0x2003d8d0

000da9f0 <strchr>:
   da9f0:	b2c9      	uxtb	r1, r1
   da9f2:	4603      	mov	r3, r0
   da9f4:	f810 2b01 	ldrb.w	r2, [r0], #1
   da9f8:	b11a      	cbz	r2, daa02 <strchr+0x12>
   da9fa:	4291      	cmp	r1, r2
   da9fc:	d1f9      	bne.n	da9f2 <strchr+0x2>
   da9fe:	4618      	mov	r0, r3
   daa00:	4770      	bx	lr
   daa02:	2900      	cmp	r1, #0
   daa04:	bf0c      	ite	eq
   daa06:	4618      	moveq	r0, r3
   daa08:	2000      	movne	r0, #0
   daa0a:	4770      	bx	lr

000daa0c <strchrnul>:
   daa0c:	b510      	push	{r4, lr}
   daa0e:	4604      	mov	r4, r0
   daa10:	f7ff ffee 	bl	da9f0 <strchr>
   daa14:	b918      	cbnz	r0, daa1e <strchrnul+0x12>
   daa16:	4620      	mov	r0, r4
   daa18:	f000 f82f 	bl	daa7a <strlen>
   daa1c:	4420      	add	r0, r4
   daa1e:	bd10      	pop	{r4, pc}

000daa20 <strcmp>:
   daa20:	f810 2b01 	ldrb.w	r2, [r0], #1
   daa24:	f811 3b01 	ldrb.w	r3, [r1], #1
   daa28:	2a01      	cmp	r2, #1
   daa2a:	bf28      	it	cs
   daa2c:	429a      	cmpcs	r2, r3
   daa2e:	d0f7      	beq.n	daa20 <strcmp>
   daa30:	1ad0      	subs	r0, r2, r3
   daa32:	4770      	bx	lr

000daa34 <strcpy>:
   daa34:	4603      	mov	r3, r0
   daa36:	f811 2b01 	ldrb.w	r2, [r1], #1
   daa3a:	f803 2b01 	strb.w	r2, [r3], #1
   daa3e:	2a00      	cmp	r2, #0
   daa40:	d1f9      	bne.n	daa36 <strcpy+0x2>
   daa42:	4770      	bx	lr

000daa44 <strdup>:
   daa44:	4b02      	ldr	r3, [pc, #8]	; (daa50 <strdup+0xc>)
   daa46:	4601      	mov	r1, r0
   daa48:	6818      	ldr	r0, [r3, #0]
   daa4a:	f000 b803 	b.w	daa54 <_strdup_r>
   daa4e:	bf00      	nop
   daa50:	2003d8d0 	.word	0x2003d8d0

000daa54 <_strdup_r>:
   daa54:	b570      	push	{r4, r5, r6, lr}
   daa56:	4606      	mov	r6, r0
   daa58:	4608      	mov	r0, r1
   daa5a:	460c      	mov	r4, r1
   daa5c:	f000 f80d 	bl	daa7a <strlen>
   daa60:	1c45      	adds	r5, r0, #1
   daa62:	4629      	mov	r1, r5
   daa64:	4630      	mov	r0, r6
   daa66:	f7fb fd19 	bl	d649c <_malloc_r>
   daa6a:	4606      	mov	r6, r0
   daa6c:	b118      	cbz	r0, daa76 <_strdup_r+0x22>
   daa6e:	462a      	mov	r2, r5
   daa70:	4621      	mov	r1, r4
   daa72:	f7ff ff66 	bl	da942 <memcpy>
   daa76:	4630      	mov	r0, r6
   daa78:	bd70      	pop	{r4, r5, r6, pc}

000daa7a <strlen>:
   daa7a:	4603      	mov	r3, r0
   daa7c:	f813 2b01 	ldrb.w	r2, [r3], #1
   daa80:	2a00      	cmp	r2, #0
   daa82:	d1fb      	bne.n	daa7c <strlen+0x2>
   daa84:	1a18      	subs	r0, r3, r0
   daa86:	3801      	subs	r0, #1
   daa88:	4770      	bx	lr

000daa8a <strncmp>:
   daa8a:	b530      	push	{r4, r5, lr}
   daa8c:	b182      	cbz	r2, daab0 <strncmp+0x26>
   daa8e:	1e45      	subs	r5, r0, #1
   daa90:	3901      	subs	r1, #1
   daa92:	f815 3f01 	ldrb.w	r3, [r5, #1]!
   daa96:	f811 4f01 	ldrb.w	r4, [r1, #1]!
   daa9a:	42a3      	cmp	r3, r4
   daa9c:	d106      	bne.n	daaac <strncmp+0x22>
   daa9e:	43ec      	mvns	r4, r5
   daaa0:	4414      	add	r4, r2
   daaa2:	42e0      	cmn	r0, r4
   daaa4:	d001      	beq.n	daaaa <strncmp+0x20>
   daaa6:	2b00      	cmp	r3, #0
   daaa8:	d1f3      	bne.n	daa92 <strncmp+0x8>
   daaaa:	461c      	mov	r4, r3
   daaac:	1b18      	subs	r0, r3, r4
   daaae:	bd30      	pop	{r4, r5, pc}
   daab0:	4610      	mov	r0, r2
   daab2:	bd30      	pop	{r4, r5, pc}

000daab4 <strnlen>:
   daab4:	b510      	push	{r4, lr}
   daab6:	4603      	mov	r3, r0
   daab8:	4401      	add	r1, r0
   daaba:	428b      	cmp	r3, r1
   daabc:	d004      	beq.n	daac8 <strnlen+0x14>
   daabe:	781a      	ldrb	r2, [r3, #0]
   daac0:	1c5c      	adds	r4, r3, #1
   daac2:	b10a      	cbz	r2, daac8 <strnlen+0x14>
   daac4:	4623      	mov	r3, r4
   daac6:	e7f8      	b.n	daaba <strnlen+0x6>
   daac8:	1a18      	subs	r0, r3, r0
   daaca:	bd10      	pop	{r4, pc}

000daacc <strrchr>:
   daacc:	b538      	push	{r3, r4, r5, lr}
   daace:	4603      	mov	r3, r0
   daad0:	460d      	mov	r5, r1
   daad2:	b141      	cbz	r1, daae6 <strrchr+0x1a>
   daad4:	2400      	movs	r4, #0
   daad6:	4629      	mov	r1, r5
   daad8:	4618      	mov	r0, r3
   daada:	f7ff ff89 	bl	da9f0 <strchr>
   daade:	b130      	cbz	r0, daaee <strrchr+0x22>
   daae0:	1c43      	adds	r3, r0, #1
   daae2:	4604      	mov	r4, r0
   daae4:	e7f7      	b.n	daad6 <strrchr+0xa>
   daae6:	e8bd 4038 	ldmia.w	sp!, {r3, r4, r5, lr}
   daaea:	f7ff bf81 	b.w	da9f0 <strchr>
   daaee:	4620      	mov	r0, r4
   daaf0:	bd38      	pop	{r3, r4, r5, pc}
	...

000daaf4 <_strtol_r>:
   daaf4:	e92d 47f0 	stmdb	sp!, {r4, r5, r6, r7, r8, r9, sl, lr}
   daaf8:	4680      	mov	r8, r0
   daafa:	4840      	ldr	r0, [pc, #256]	; (dabfc <_strtol_r+0x108>)
   daafc:	f8d0 9000 	ldr.w	r9, [r0]
   dab00:	460f      	mov	r7, r1
   dab02:	463d      	mov	r5, r7
   dab04:	f815 4b01 	ldrb.w	r4, [r5], #1
   dab08:	eb09 0004 	add.w	r0, r9, r4
   dab0c:	7840      	ldrb	r0, [r0, #1]
   dab0e:	f000 0008 	and.w	r0, r0, #8
   dab12:	f000 06ff 	and.w	r6, r0, #255	; 0xff
   dab16:	b108      	cbz	r0, dab1c <_strtol_r+0x28>
   dab18:	462f      	mov	r7, r5
   dab1a:	e7f2      	b.n	dab02 <_strtol_r+0xe>
   dab1c:	2c2d      	cmp	r4, #45	; 0x2d
   dab1e:	d103      	bne.n	dab28 <_strtol_r+0x34>
   dab20:	1cbd      	adds	r5, r7, #2
   dab22:	787c      	ldrb	r4, [r7, #1]
   dab24:	2601      	movs	r6, #1
   dab26:	e003      	b.n	dab30 <_strtol_r+0x3c>
   dab28:	2c2b      	cmp	r4, #43	; 0x2b
   dab2a:	bf04      	itt	eq
   dab2c:	787c      	ldrbeq	r4, [r7, #1]
   dab2e:	1cbd      	addeq	r5, r7, #2
   dab30:	b113      	cbz	r3, dab38 <_strtol_r+0x44>
   dab32:	2b10      	cmp	r3, #16
   dab34:	d10a      	bne.n	dab4c <_strtol_r+0x58>
   dab36:	e05b      	b.n	dabf0 <_strtol_r+0xfc>
   dab38:	2c30      	cmp	r4, #48	; 0x30
   dab3a:	d157      	bne.n	dabec <_strtol_r+0xf8>
   dab3c:	7828      	ldrb	r0, [r5, #0]
   dab3e:	f000 00df 	and.w	r0, r0, #223	; 0xdf
   dab42:	2858      	cmp	r0, #88	; 0x58
   dab44:	d14d      	bne.n	dabe2 <_strtol_r+0xee>
   dab46:	786c      	ldrb	r4, [r5, #1]
   dab48:	2310      	movs	r3, #16
   dab4a:	3502      	adds	r5, #2
   dab4c:	2e00      	cmp	r6, #0
   dab4e:	bf14      	ite	ne
   dab50:	f04f 4c00 	movne.w	ip, #2147483648	; 0x80000000
   dab54:	f06f 4c00 	mvneq.w	ip, #2147483648	; 0x80000000
   dab58:	2700      	movs	r7, #0
   dab5a:	fbbc faf3 	udiv	sl, ip, r3
   dab5e:	4638      	mov	r0, r7
   dab60:	fb03 cc1a 	mls	ip, r3, sl, ip
   dab64:	eb09 0e04 	add.w	lr, r9, r4
   dab68:	f89e e001 	ldrb.w	lr, [lr, #1]
   dab6c:	f01e 0f04 	tst.w	lr, #4
   dab70:	d001      	beq.n	dab76 <_strtol_r+0x82>
   dab72:	3c30      	subs	r4, #48	; 0x30
   dab74:	e00b      	b.n	dab8e <_strtol_r+0x9a>
   dab76:	f01e 0e03 	ands.w	lr, lr, #3
   dab7a:	d01b      	beq.n	dabb4 <_strtol_r+0xc0>
   dab7c:	f1be 0f01 	cmp.w	lr, #1
   dab80:	bf0c      	ite	eq
   dab82:	f04f 0e37 	moveq.w	lr, #55	; 0x37
   dab86:	f04f 0e57 	movne.w	lr, #87	; 0x57
   dab8a:	ebce 0404 	rsb	r4, lr, r4
   dab8e:	42a3      	cmp	r3, r4
   dab90:	dd10      	ble.n	dabb4 <_strtol_r+0xc0>
   dab92:	f1b7 3fff 	cmp.w	r7, #4294967295
   dab96:	d00a      	beq.n	dabae <_strtol_r+0xba>
   dab98:	4550      	cmp	r0, sl
   dab9a:	d806      	bhi.n	dabaa <_strtol_r+0xb6>
   dab9c:	d101      	bne.n	daba2 <_strtol_r+0xae>
   dab9e:	4564      	cmp	r4, ip
   daba0:	dc03      	bgt.n	dabaa <_strtol_r+0xb6>
   daba2:	fb03 4000 	mla	r0, r3, r0, r4
   daba6:	2701      	movs	r7, #1
   daba8:	e001      	b.n	dabae <_strtol_r+0xba>
   dabaa:	f04f 37ff 	mov.w	r7, #4294967295
   dabae:	f815 4b01 	ldrb.w	r4, [r5], #1
   dabb2:	e7d7      	b.n	dab64 <_strtol_r+0x70>
   dabb4:	1c7b      	adds	r3, r7, #1
   dabb6:	d10c      	bne.n	dabd2 <_strtol_r+0xde>
   dabb8:	2e00      	cmp	r6, #0
   dabba:	f04f 0322 	mov.w	r3, #34	; 0x22
   dabbe:	bf14      	ite	ne
   dabc0:	f04f 4000 	movne.w	r0, #2147483648	; 0x80000000
   dabc4:	f06f 4000 	mvneq.w	r0, #2147483648	; 0x80000000
   dabc8:	f8c8 3000 	str.w	r3, [r8]
   dabcc:	b92a      	cbnz	r2, dabda <_strtol_r+0xe6>
   dabce:	e8bd 87f0 	ldmia.w	sp!, {r4, r5, r6, r7, r8, r9, sl, pc}
   dabd2:	b106      	cbz	r6, dabd6 <_strtol_r+0xe2>
   dabd4:	4240      	negs	r0, r0
   dabd6:	b172      	cbz	r2, dabf6 <_strtol_r+0x102>
   dabd8:	b107      	cbz	r7, dabdc <_strtol_r+0xe8>
   dabda:	1e69      	subs	r1, r5, #1
   dabdc:	6011      	str	r1, [r2, #0]
   dabde:	e8bd 87f0 	ldmia.w	sp!, {r4, r5, r6, r7, r8, r9, sl, pc}
   dabe2:	2430      	movs	r4, #48	; 0x30
   dabe4:	2b00      	cmp	r3, #0
   dabe6:	d1b1      	bne.n	dab4c <_strtol_r+0x58>
   dabe8:	2308      	movs	r3, #8
   dabea:	e7af      	b.n	dab4c <_strtol_r+0x58>
   dabec:	230a      	movs	r3, #10
   dabee:	e7ad      	b.n	dab4c <_strtol_r+0x58>
   dabf0:	2c30      	cmp	r4, #48	; 0x30
   dabf2:	d0a3      	beq.n	dab3c <_strtol_r+0x48>
   dabf4:	e7aa      	b.n	dab4c <_strtol_r+0x58>
   dabf6:	e8bd 87f0 	ldmia.w	sp!, {r4, r5, r6, r7, r8, r9, sl, pc}
   dabfa:	bf00      	nop
   dabfc:	2003d86c 	.word	0x2003d86c

000dac00 <strtol>:
   dac00:	4613      	mov	r3, r2
   dac02:	460a      	mov	r2, r1
   dac04:	4601      	mov	r1, r0
   dac06:	4802      	ldr	r0, [pc, #8]	; (dac10 <strtol+0x10>)
   dac08:	6800      	ldr	r0, [r0, #0]
   dac0a:	f7ff bf73 	b.w	daaf4 <_strtol_r>
   dac0e:	bf00      	nop
   dac10:	2003d8d0 	.word	0x2003d8d0

000dac14 <dynalib_user>:
   dac14:	000d401d 000d4059 000d4085 000d4089     .@..Y@...@...@..
   dac24:	00000000                                ....

000dac28 <_ZTVN5spark10LogHandlerE>:
	...
   dac38:	000d40a9 000d40cd                       .@...@..

000dac40 <_ZTVN5spark16SerialLogHandlerE>:
	...
   dac48:	000d40e9 000d411d 000d8be1 000d40cf     .@...A.......@..

000dac58 <_ZL29MQTT5_DEFAULT_CONNECT_OPTIONS>:
   dac58:	00000001 0000003c 00000000 00000000     ....<...........
	...
   dac74:	000db188 69706f54 25203a63 4d202e73     ....Topic: %s. M
   dac84:	61737365 203a6567 53007325 6f736e65     essage: %s.Senso
   dac94:	20312072 6554202d 7265706d 72757461     r 1 - Temperatur
   daca4:	25203a65 65642075 65657267 65432073     e: %u degrees Ce
   dacb4:	7569736c 65530073 726f736e 2d203120     lsius.Sensor 1 -
   dacc4:	6d754820 74696469 25203a79 00252575      Humidity: %u%%.
   dacd4:	736e6553 3120726f 4d202d20 7473696f     Sensor 1 - Moist
   dace4:	3a657275 00752520 736e6553 3220726f     ure: %u.Sensor 2
   dacf4:	53202d20 6e656c6f 3a64696f 20752520      - Solenoid: %u 
   dad04:	6e655300 20726f73 202d2031 6867694c     .Sensor 1 - Ligh
   dad14:	25203a74 754c2075 65530078 726f736e     t: %u Lux.Sensor
   dad24:	2d203220 69615220 6574736e 203a6d61      2 - Rainsteam: 
   dad34:	00206425 736e6553 3220726f 4c202d20     %d .Sensor 2 - L
   dad44:	69757169 25203a64 53002075 6f736e65     iquid: %u .Senso
   dad54:	20322072 7548202d 206e616d 65746564     r 2 - Human dete
   dad64:	726f7463 7525203a 6e655300 20726f73     ctor: %u.Sensor 
   dad74:	202d2032 616d7548 6f6c206e 2e2e7473     2 - Human lost..
   dad84:	6553002e 726f736e 2d203220 6d754820     ..Sensor 2 - Hum
   dad94:	64206e61 63657465 21646574 6e655300     an detected!.Sen
   dada4:	20726f73 202d2032 61766e49 2064696c     sor 2 - Invalid 
   dadb4:	616d7568 6564206e 74636574 6d20726f     human detector m
   dadc4:	61737365 202e6567 65707845 64657463     essage. Expected
   dadd4:	6f203020 2c312072 63657220 65766965      0 or 1, receive
   dade4:	75252064 756f4600 6120646e 756c6220     d %u.Found a blu
   dadf4:	6f6f7465 64206874 63697665 41002e65     etooth device..A
   dae04:	65726464 203a7373 756f4600 5520646e     ddress: .Found U
   dae14:	3a444955 65530020 726f736e 65646f4e     UID: .SensorNode
   dae24:	55552031 203a4449 6e655300 4e726f73     1 UUID: .SensorN
   dae34:	3265646f 49555520 00203a44 63637553     ode2 UUID: .Succ
   dae44:	66737365 796c6c75 6e6f6320 7463656e     essfully connect
   dae54:	74206465 6573206f 726f736e 646f6e20     ed to sensor nod
   dae64:	21312065 66393200 66336162 63342d35     e 1!.29fba3f5-4c
   dae74:	342d3865 2d636236 35376438 3837372d     e8-46bc-8d75-778
   dae84:	62643630 33633232 39390031 32643061     06db22c31.99a0d2
   dae94:	312d3966 2d616663 33623234 6235622d     f9-1cfa-42b3-b5b
   daea4:	62312d61 33346434 39333134 34006632     a-1b4d4341392f.4
   daeb4:	34656235 2d363561 35663834 3338342d     5be4a56-48f5-483
   daec4:	62382d63 642d3162 65656633 63333334     c-8bb1-d3fee433c
   daed4:	00633332 32356165 34613834 6333342d     23c.ea5248a4-43c
   daee4:	31342d63 612d3839 2d616134 30323937     c-4198-a4aa-7920
   daef4:	35376130 35333830 69614600 2064656c     0a750835.Failed 
   daf04:	63206f74 656e6e6f 74207463 6573206f     to connect to se
   daf14:	726f736e 646f6e20 2e312065 6e655300     nsor node 1..Sen
   daf24:	20726f73 65646f6e 61203120 6165726c     sor node 1 alrea
   daf34:	63207964 656e6e6f 64657463 7553002e     dy connected..Su
   daf44:	73656363 6c756673 6320796c 656e6e6f     ccessfully conne
   daf54:	64657463 206f7420 736e6573 6e20726f     cted to sensor n
   daf64:	2065646f 62002132 31663763 2d396438     ode 2!.bc7f18d9-
   daf74:	33346332 3830342d 65622d65 362d3532     2c43-408e-be25-6
   daf84:	30346632 39353436 00633738 61623838     2f40645987c.88ba
   daf94:	64356632 3965312d 39342d38 382d6661     2f5d-1e98-49af-8
   dafa4:	2d373936 31353064 30666436 39656233     697-d0516df03be9
   dafb4:	38346200 35356432 33632d31 342d6561     .b482d551-c3ae-4
   dafc4:	2d656464 35323162 3265632d 37643434     dde-b125-ce244d7
   dafd4:	62363938 37390030 36373130 392d3437     896b0.97017674-9
   dafe4:	2d353136 61626634 3137392d 38362d32     615-4fba-9712-68
   daff4:	32663932 38353430 46003633 656c6961     29f2045836.Faile
   db004:	6f742064 6e6f6320 7463656e 206f7420     d to connect to 
   db014:	736e6573 6e20726f 2065646f 53002e32     sensor node 2..S
   db024:	6f736e65 6f6e2072 32206564 726c6120     ensor node 2 alr
   db034:	79646165 6e6f6320 7463656e 002e6465     eady connected..
   db044:	64206425 63697665 66207365 646e756f     %d devices found
   db054:	6f624100 74207475 6373206f 2e2e6e61     .About to scan..
   db064:	6574002e 65007473 3463656c 67303437     ..test.elec4740g
   db074:	61642f36 46006174 646e756f 6e657320     6/data.Found sen
   db084:	20726f73 65646f6e 002e3120 6e756f46     sor node 1..Foun
   db094:	65732064 726f736e 646f6e20 2e322065     d sensor node 2.
   db0a4:	6e655300 20726f73 202d2032 72727543     .Sensor 2 - Curr
   db0b4:	3a746e65 20752520 73706d41 69614600     ent: %u Amps.Fai
   db0c4:	6572756c 65756420 206f7420 73616572     lure due to reas
   db0d4:	25206e6f 6c630064 746e6569 00333231     on %d.client123.
   db0e4:	74736574 736f6d2e 74697571 6f2e6f74     test.mosquitto.o
   db0f4:	4d006772 20545451 6e6e6f63 69746365     rg.MQTT connecti
   db104:	66206e6f 756c6961 3a206572 65480028     on failure :(.He
   db114:	206f6c6c 6c726f77 514d0064 63205454     llo world.MQTT c
   db124:	656e6e6f 65746363 75732064 73656363     onneccted succes
   db134:	6c756673 0021796c 65343537 65356662     sfully!.754ebf5e
   db144:	3365632d 33342d31 392d3030 2d356466     -ce31-4300-9fd5-
   db154:	62663861 34656534 31313861 37373900     a8fb4ee4a811.977
   db164:	64613832 39612d39 342d3839 2d393236     28ad9-a998-4629-
   db174:	35353862 3265652d 63383536 66313061     b855-ee2658ca01f
   db184:	00000037                                7...

000db188 <_ZL32MQTT5_DEFAULT_CONNECT_PROPERTIES>:
   db188:	00000000 0000ffff 00000000 0000000a     ................

000db198 <._379>:
   db198:	5454514d 2e707061 5454514d 6c614d00     MQTTapp.MQTT.Mal
   db1a8:	6d726f66 56206465 61697261 20656c62     formed Variable 
   db1b8:	65747942 746e4920 72656765 6b636100     Byte Integer.ack
   db1c8:	63657200 63655200 65766965 75702064     .rec.Received pu
   db1d8:	73696c62 73252068 726f6620 63617020     blish %s for pac
   db1e8:	2074656b 61206425 7220646e 6f707365     ket %d and respo
   db1f8:	2065736e 52006425 69656365 20646576     nse %d.Received 
   db208:	6c627570 20687369 706d6f63 6574656c     publish complete
   db218:	726f6620 63617020 2074656b 61206425      for packet %d a
   db228:	7220646e 6f707365 2065736e 52006425     nd response %d.R
   db238:	69656365 20646576 73627573 70697263     eceived subscrip
   db248:	6e6f6974 6b636120 726f6620 63617020     tion ack for pac
   db258:	2074656b 61206425 7320646e 63736275     ket %d and subsc
   db268:	74706972 206e6f69 65646e69 64252078     ription index %d
   db278:	646e6120 73657220 736e6f70 64252065      and response %d
   db288:	63655200 65766965 6e752064 73627573     .Received unsubs
   db298:	70697263 6e6f6974 6b636120 726f6620     cription ack for
   db2a8:	63617020 2074656b 61206425 7320646e      packet %d and s
   db2b8:	63736275 74706972 206e6f69 65646e69     ubscription inde
   db2c8:	64252078 646e6120 73657220 736e6f70     x %d and respons
   db2d8:	64252065 73655300 6e6f6973 70784520     e %d.Session Exp
   db2e8:	20797269 65746e49 6c617672 6c25203a     iry Interval: %l
   db2f8:	65520064 76696563 614d2065 756d6978     d.Receive Maximu
   db308:	25203a6d 614d0064 756d6978 6f51206d     m: %d.Maximum Qo
   db318:	25203a53 65520064 6e696174 61764120     S: %d.Retain Ava
   db328:	62616c69 203a656c 4d006425 6d697861     ilable: %d.Maxim
   db338:	50206d75 656b6361 69532074 203a657a     um Packet Size: 
   db348:	00646c25 69737341 64656e67 696c4320     %ld.Assigned Cli
   db358:	20746e65 6e656449 69666974 203a7265     ent Identifier: 
   db368:	54007325 6369706f 696c4120 4d207361     %s.Topic Alias M
   db378:	6d697861 203a6d75 52006425 6f736165     aximum: %d.Reaso
   db388:	7453206e 676e6972 7325203a 65735500     n String: %s.Use
   db398:	72502072 7265706f 57007974 63646c69     r Property.Wildc
   db3a8:	20647261 73627553 70697263 6e6f6974     ard Subscription
   db3b8:	61764120 62616c69 203a656c 53006425      Available: %d.S
   db3c8:	63736275 74706972 206e6f69 6e656449     ubscription Iden
   db3d8:	69666974 20737265 69617641 6c62616c     tifiers Availabl
   db3e8:	25203a65 68530064 64657261 62755320     e: %d.Shared Sub
   db3f8:	69726373 6f697470 7641206e 616c6961     scription Availa
   db408:	3a656c62 00642520 76726553 4b207265     ble: %d.Server K
   db418:	20706565 76696c41 25203a65 65520064     eep Alive: %d.Re
   db428:	6e6f7073 49206573 726f666e 6974616d     sponse Informati
   db438:	203a6e6f 53007325 65767265 65522072     on: %s.Server Re
   db448:	65726566 3a65636e 00732520 68747541     ference: %s.Auth
   db458:	69746e65 69746163 4d206e6f 6f687465     entication Metho
   db468:	25203a64 75410073 6e656874 61636974     d: %s.Authentica
   db478:	6e6f6974 74614420 6e550061 776f6e6b     tion Data.Unknow
   db488:	6f63206e 63656e6e 72702074 7265706f     n connect proper
   db498:	50007974 6f6c7961 46206461 616d726f     ty.Payload Forma
   db4a8:	6e492074 61636964 3a726f74 00642520     t Indicator: %d.
   db4b8:	7373654d 20656761 69707845 49207972     Message Expiry I
   db4c8:	7265746e 3a6c6176 646c2520 706f5400     nterval: %ld.Top
   db4d8:	41206369 7361696c 6425203a 73655200     ic Alias: %d.Res
   db4e8:	736e6f70 6f542065 3a636970 00732520     ponse Topic: %s.
   db4f8:	72726f43 74616c65 206e6f69 61746144     Correlation Data
   db508:	62755300 69726373 6f697470 6449206e     .Subscription Id
   db518:	69746e65 72656966 6e6f4300 746e6574     entifier.Content
   db528:	70795420 25203a65 6e550073 776f6e6b      Type: %s.Unknow
   db538:	7570206e 73696c62 72702068 7265706f     n publish proper
   db548:	50007974 656b6361 78652074 64656563     ty.Packet exceed
   db558:	616d2073 61702078 74656b63 7a697320     s max packet siz
   db568:	64252065 6e655300 676e6964 6e697020     e %d.Sending pin
   db578:	65722067 73657571 65530074 6e69646e     g request.Sendin
   db588:	69642067 6e6f6373 7463656e 74697720     g disconnect wit
   db598:	65722068 6e6f7361 00642520 646e6553     h reason %d.Send
   db5a8:	20676e69 6c627570 20687369 206b6361     ing publish ack 
   db5b8:	20726f66 6b636170 25207465 65530064     for packet %d.Se
   db5c8:	6e69646e 75702067 73696c62 65722068     nding publish re
   db5d8:	6f662063 61702072 74656b63 00642520     c for packet %d.
   db5e8:	65636552 64657669 63617020 2074656b     Received packet 
   db5f8:	20726f66 69706f74 73252063 74697720     for topic %s wit
   db608:	64692068 20642520 20646e61 676e656c     h id %d and leng
   db618:	25206874 65520064 76696563 70206465     th %d.Received p
   db628:	656b6361 6f662074 6f742072 20636970     acket for topic 
   db638:	77207325 20687469 676e656c 25206874     %s with length %
   db648:	65530064 6e69646e 75702067 73696c62     d.Sending publis
   db658:	6f632068 6620706d 7020726f 656b6361     h comp for packe
   db668:	64252074 63655200 65766965 75702064     t %d.Received pu
   db678:	73696c62 65722068 6f66206c 61702072     blish rel for pa
   db688:	74656b63 20642520 20646e61 70736572     cket %d and resp
   db698:	65736e6f 00642520 73627553 62697263     onse %d.Subscrib
   db6a8:	61772065 73692073 64657573 726f6620     e was issued for
   db6b8:	20642520 69706f74 77207363 20687469      %d topics with 
   db6c8:	6b636170 69207465 64252064 736e5500     packet id %d.Uns
   db6d8:	63736275 65626972 73617720 73736920     ubscribe was iss
   db6e8:	20646575 20726f66 74206425 6369706f     ued for %d topic
   db6f8:	69772073 70206874 656b6361 64692074     s with packet id
   db708:	00642520 6c627550 20687369 656c6572      %d.Publish rele
   db718:	20657361 20726f66 6b636170 25207465     ase for packet %
   db728:	75500064 73696c62 676e6968 63617020     d.Publishing pac
   db738:	2074656b 68746977 20646920 69206425     ket with id %d i
   db748:	6f74206e 20636970 77207325 20687469     n topic %s with 
   db758:	676e656c 25206874 75500064 73696c62     length %d.Publis
   db768:	676e6968 63617020 2074656b 74206e69     hing packet in t
   db778:	6369706f 20732520 68746977 6e656c20     opic %s with len
   db788:	20687467 55006425 676e6973 706f7420     gth %d.Using top
   db798:	61206369 7361696c 00642520 69706f54     ic alias %d.Topi
   db7a8:	73252063 73617720 73736120 656e6769     c %s was assigne
   db7b8:	6f742064 696c6120 25207361 75530064     d to alias %d.Su
   db7c8:	73656363 6c756673 6320796c 656e6e6f     ccessfully conne
   db7d8:	64657463 69614600 2064656c 63206f74     cted.Failed to c
   db7e8:	656e6e6f 202e7463 73616552 203a6e6f     onnect. Reason: 
   db7f8:	52006425 69656365 20646576 63736964     %d.Received disc
   db808:	656e6e6f 66207463 206d6f72 76726573     onnect from serv
   db818:	64207265 74206575 6572206f 6e6f7361     er due to reason
   db828:	00642520 6f6b6e55 63206e77 72746e6f      %d.Unkown contr
   db838:	70206c6f 656b6361 79742074 25206570     ol packet type %
   db848:	6f530064 64656b63 6f6c6320 00646573     d.Socked closed.
   db858:	6e6e6f43 20746365 656d6974 756f2064     Connect timed ou
   db868:	61500074 74656b63 746f6e20 6d6f6320     t.Packet not com
   db878:	74656c70 65520065 76696563 70206465     plete.Received p
   db888:	656b6361 79742074 25206570 69772064     acket type %d wi
   db898:	6c206874 74676e65 64252068 6e695000     th length %d.Pin
   db8a8:	6f632067 20646c75 20746f6e 73206562     g could not be s
   db8b8:	00746e65 676e6950 73657220 736e6f70     ent.Ping respons
   db8c8:	6f6e2065 65722074 76696563 79206465     e not received y
   db8d8:	202e7465 65736552 6e69646e 69702067     et. Resending pi
   db8e8:	7220676e 65757165 41007473 74696177     ng request.Await
   db8f8:	63617020 2074656b 736b6361 6c6c4100      packet acks.All
   db908:	63617020 7374656b 6b636120 6c776f6e      packets acknowl
   db918:	65676465 77410064 20746961 656d6974     edged.Await time
   db928:	756f2064 6f430074 63656e6e 676e6974     d out.Connecting
   db938:	206f7420 76726573 25207265 6e6f2073      to server %s on
   db948:	726f7020 64252074 6e6f4300 7463656e      port %d.Connect
   db958:	20676e69 73206f74 65767265 64252072     ing to server %d
   db968:	2e64252e 252e6425 6e6f2064 726f7020     .%d.%d.%d on por
   db978:	64252074 756f4300 6e20646c 6f20746f     t %d.Could not o
   db988:	206e6570 20504354 6e6e6f63 69746365     pen TCP connecti
   db998:	74206e6f 6573206f 72657672 726c4100     on to server.Alr
   db9a8:	79646165 6e6f6320 7463656e 74206465     eady connected t
   db9b8:	6573206f 72657672 00000000              o server....

000db9c4 <_ZL32MQTT5_DEFAULT_PUBLISH_PROPERTIES>:
	...

000db9dc <_ZTVN5spark13EthernetClassE>:
	...
   db9e4:	000d651b 000d6511 000d6507 000d64fd     .e...e...e...d..
   db9f4:	000d64f1 000d64e5 000d64d9 000d64d1     .d...d...d...d..
   dba04:	000d64c7 000d64bd 000da1cd              .d...d......

000dba10 <_ZTVSt19_Sp_counted_deleterIPN8particle21BleCharacteristicImplENSt12__shared_ptrIS1_LN9__gnu_cxx12_Lock_policyE0EE8_DeleterISaIS1_EEES8_LS5_0EE>:
	...
   dba18:	000d66e9 000d66ef 000d7b71 000d6719     .f...f..q{...g..
   dba28:	000d66eb                                .f..

000dba2c <_ZTVSt19_Sp_counted_deleterIPN8particle14BleServiceImplENSt12__shared_ptrIS1_LN9__gnu_cxx12_Lock_policyE0EE8_DeleterISaIS1_EEES8_LS5_0EE>:
	...
   dba34:	000d66e3 000d66fd 000d7d2d 000d671d     .f...f..-}...g..
   dba44:	000d66e5                                .f..

000dba48 <_ZTVSt19_Sp_counted_deleterIPN8particle17BlePeerDeviceImplENSt12__shared_ptrIS1_LN9__gnu_cxx12_Lock_policyE0EE8_DeleterISaIS1_EEES8_LS5_0EE>:
	...
   dba50:	000d66dd 000d670b 000d7283 000d6721     .f...g...r..!g..
   dba60:	000d66df 69726977 622e676e 5300656c     .f..wiring.ble.S
   dba70:	74726174 73696420 65766f63 676e6972     tart discovering
   dba80:	72657320 65636976 53002e73 74726174      services..Start
   dba90:	73696420 65766f63 676e6972 61686320      discovering cha
   dbaa0:	74636172 73697265 73636974 6550002e     racteristics..Pe
   dbab0:	64207265 63697665 73692065 73696d20     er device is mis
   dbac0:	676e6973 61460021 64656c69 206f7420     sing!.Failed to 
   dbad0:	65707061 7020646e 20726565 746e6543     append peer Cent
   dbae0:	206c6172 69766564 002e6563 6e6e6f43     ral device..Conn
   dbaf0:	65746365 79622064 6e654320 6c617274     ected by Central
   dbb00:	76656420 2e656369 73694400 6e6e6f63      device..Disconn
   dbb10:	65746365 79622064 6d657220 2065746f     ected by remote 
   dbb20:	69766564 002e6563 6e6e6143 6120746f     device..Cannot a
   dbb30:	6e206464 70207765 20726565 69766564     dd new peer devi
   dbb40:	002e6563 2077654e 69726570 72656870     ce..New peripher
   dbb50:	69206c61 6f632073 63656e6e 2e646574     al is connected.
   dbb60:	69614600 2064656c 61206f74 6e657070     .Failed to appen
   dbb70:	69642064 766f6373 64657265 61686320     d discovered cha
   dbb80:	74636172 73697265 2e636974 69614600     racteristic..Fai
   dbb90:	2064656c 61206f74 6e657070 69642064     led to append di
   dbba0:	766f6373 64657265 72657320 65636976     scovered service
   dbbb0:	6146002e 64656c69 206f7420 65707061     ..Failed to appe
   dbbc0:	6c20646e 6c61636f 61686320 74636172     nd local charact
   dbbd0:	73697265 2e636974 70754400 6163696c     eristic..Duplica
   dbbe0:	20646574 72616863 65746361 74736972     ted characterist
   dbbf0:	63206369 6f6e6e61 65622074 64646120     ic cannot be add
   dbc00:	002e6465                                ed..

000dbc04 <_ZN8particle7BleUuid9BASE_UUIDE>:
   dbc04:	5f9b34fb 80000080 00001000 00000000     .4._............

000dbc14 <_ZTVN5spark16JSONStreamWriterE>:
	...
   dbc1c:	000d7fbd 000d7fe3 000d7f97 000da2db     ................

000dbc2c <_ZTVN5spark20JSONStreamLogHandlerE>:
	...
   dbc34:	000d8439 000d844d 000d8d95 000d7f9f     9...M...........
   dbc44:	64756162 72655300 006c6169 69726553     baud.Serial.Seri
   dbc54:	00316c61 65707974 72617000 63006d61     al1.type.param.c
   dbc64:	6900646d 6e680064 74730064 66006d72     md.id.hnd.strm.f
   dbc74:	00746c69 006c766c 48646461 6c646e61     ilt.lvl.addHandl
   dbc84:	72007265 766f6d65 6e614865 72656c64     er.removeHandler
   dbc94:	756e6500 6e61486d 72656c64 534a0073     .enumHandlers.JS
   dbca4:	74534e4f 6d616572 48676f4c 6c646e61     ONStreamLogHandl
   dbcb4:	61007265 25007070 75303130 205d0020     er.app.%010u .] 
   dbcc4:	00202c00 203a2928 005b2000 65646f63     ., .(): . [.code
   dbcd4:	00203d20 64006925 69617465 3d20736c      = .%i.details =
   dbce4:	0a0d0020 006e6c00 63006e66 0065646f      ....ln.fn.code.
   dbcf4:	61746564 6e006c69 00656e6f 63617274     detail.none.trac
   dbd04:	6e690065 77006f66 006e7261 6f727265     e.info.warn.erro
   dbd14:	61700072 0063696e 006c6c61              r.panic.all.

000dbd20 <_ZTVN5spark16StreamLogHandlerE>:
	...
   dbd28:	000d840d 000d8425 000d8be1 000d40cf     ....%........@..

000dbd38 <_ZTVN5spark24DefaultLogHandlerFactoryE>:
	...
   dbd40:	000d7fbb 000d7ff1 000d8b09 000d7fa1     ................

000dbd50 <_ZTVN5spark26DefaultOutputStreamFactoryE>:
	...
   dbd58:	000d7fb9 000d7fff 000d8351 000d800d     ........Q.......
   dbd68:	2b25005a 3a643330 75323025 2d592500     Z.%+03d:%02u.%Y-
   dbd78:	252d6d25 48255464 3a4d253a 7a255325     %m-%dT%H:%M:%S%z
   dbd88:	63736100 656d6974 00000000              .asctime....

000dbd94 <_ZTVSt15_Sp_counted_ptrIPN8particle6detail10FutureImplIbNS1_13FutureContextEEELN9__gnu_cxx12_Lock_policyE0EE>:
	...
   dbd9c:	000d90e1 000d90e7 000d912b 000d90f5     ........+.......
   dbdac:	000d90e3                                ....

000dbdb0 <_ZTV9IPAddress>:
	...
   dbdb8:	000d9679 000d9669 000d966b              y...i...k...

000dbdc4 <_ZTV9USBSerial>:
	...
   dbdcc:	000d9791 000d97e1 000d97ef 000d7e79     ............y~..
   dbddc:	000d97cd 000d9793 000d97a9 000d97db     ................
   dbdec:	000d97bf 000d978d                       ........

000dbdf4 <_ZTV11USARTSerial>:
	...
   dbdfc:	000d98a5 000d98f5 000d9903 000d7e79     ............y~..
   dbe0c:	000d98b9 000d98db 000d98c7 000d98ef     ................
   dbe1c:	000d98a7 000d98ab                       ........

000dbe24 <_ZTVN5spark9MeshClassE>:
	...
   dbe2c:	000d9a3b 000d9a31 000d9a27 000d9a1d     ;...1...'.......
   dbe3c:	000d9a11 000d9a05 000d99f9 000d99f1     ................
   dbe4c:	000d99e7 000d99dd 000da1cd              ............

000dbe58 <_ZTVSt19_Sp_counted_deleterIPN9TCPClient4DataENSt12__shared_ptrIS1_LN9__gnu_cxx12_Lock_policyE0EE8_DeleterISaIS1_EEES8_LS5_0EE>:
	...
   dbe60:	000d9be1 000d9be7 000da0cf 000d9bf5     ................
   dbe70:	000d9be3                                ....

000dbe74 <_ZTV9TCPClient>:
	...
   dbe7c:	000d8f41 000d8f61 000d9b59 000d9b73     A...a...Y...s...
   dbe8c:	000d9f75 000d9cc7 000d9c99 000d9b9d     u...............
   dbe9c:	000d9e51 000d9d4d 000d9cfb 000d9f45     Q...M.......E...
   dbeac:	000d9b9f 000d9bd7 000d9b85 000d9bf9     ................
   dbebc:	000d9c79 69726977 7200676e 20766365     y...wiring.recv 
   dbecc:	6f727265 203d2072 00006425              error = %d..

000dbed8 <_ZTVN5spark9WiFiClassE>:
	...
   dbee0:	000da145 000da13b 000da131 000da0e7     E...;...1.......
   dbef0:	000da125 000da119 000da10d 000da105     %...............
   dbf00:	000da0fb 000da0f1 000da1cd              ............

000dbf0c <_ZTVN5spark12NetworkClassE>:
	...
   dbf14:	000da165 000da16f 000da179 000da183     e...o...y.......
   dbf24:	000da18d 000da199 000da1a5 000da1b1     ................
   dbf34:	000da1b9 000da1c3 000da1cd 00302e30     ............0.0.
   dbf44:	736c6166 72740065 25006575 666c2a2e     false.true.%.*lf
   dbf54:	00672500 6c6c756e 30257500 00007834              .%g.null.u%04x.

000dbf63 <_ZSt7nothrow>:
	...

000dbf64 <_ctype_>:
   dbf64:	20202000 20202020 28282020 20282828     .         ((((( 
   dbf74:	20202020 20202020 20202020 20202020                     
   dbf84:	10108820 10101010 10101010 10101010      ...............
   dbf94:	04040410 04040404 10040404 10101010     ................
   dbfa4:	41411010 41414141 01010101 01010101     ..AAAAAA........
   dbfb4:	01010101 01010101 01010101 10101010     ................
   dbfc4:	42421010 42424242 02020202 02020202     ..BBBBBB........
   dbfd4:	02020202 02020202 02020202 10101010     ................
   dbfe4:	00000020 00000000 00000000 00000000      ...............
	...

000dc068 <__sf_fake_stdin>:
	...

000dc088 <__sf_fake_stdout>:
	...

000dc0a8 <__sf_fake_stderr>:
	...
   dc0c8:	00000043                                         C.

000dc0ca <link_const_variable_data_end>:
	...

000dc0cc <link_constructors_location>:
   dc0cc:	000d48b5 	.word	0x000d48b5
   dc0d0:	000d4ab9 	.word	0x000d4ab9
   dc0d4:	000d5f6f 	.word	0x000d5f6f
   dc0d8:	000d6525 	.word	0x000d6525
   dc0dc:	000d6539 	.word	0x000d6539
   dc0e0:	000d7e51 	.word	0x000d7e51
   dc0e4:	000d8bd1 	.word	0x000d8bd1
   dc0e8:	000d8f0d 	.word	0x000d8f0d
   dc0ec:	000d8fb5 	.word	0x000d8fb5
   dc0f0:	000d9b09 	.word	0x000d9b09
   dc0f4:	000da151 	.word	0x000da151
   dc0f8:	000da299 	.word	0x000da299
   dc0fc:	000da679 	.word	0x000da679
   dc100:	000da6fd 	.word	0x000da6fd
   dc104:	000da7c1 	.word	0x000da7c1
   dc108:	000da885 	.word	0x000da885

000dc10c <link_constructors_end>:
   dc10c:	00000000 	.word	0x00000000
